 gh0st

 Timestamp is 5629b0ea (Fri Oct 23 12:00:42 2015)

 Preferred load address is 00400000

 Start         Length     Name                   Class
 0001:00000000 0003df28H .text                   CODE
 0001:0003df28 00000f7cH .text$AFX_AUX           CODE
 0001:0003eea4 000010efH .text$AFX_CMNCTL        CODE
 0001:0003ff93 00000684H .text$AFX_COL1          CODE
 0001:00040617 000004c7H .text$AFX_COL2          CODE
 0001:00040ade 00007303H .text$AFX_CORE1         CODE
 0001:00047de1 00004564H .text$AFX_CORE2         CODE
 0001:0004c345 0000522bH .text$AFX_CORE3         CODE
 0001:00051570 00002f2cH .text$AFX_CORE4         CODE
 0001:0005449c 000038f7H .text$AFX_INIT          CODE
 0001:00057d93 00000290H .text$AFX_OLE1          CODE
 0001:00058023 0000018cH .text$AFX_OLE2          CODE
 0001:000581af 0000035dH .text$AFX_OLE3          CODE
 0001:0005850c 0000035aH .text$AFX_OLE4          CODE
 0001:00058866 00000e7eH .text$AFX_OLE5          CODE
 0001:000596e4 00000266H .text$AFX_TERM          CODE
 0001:00059950 000041e2H .text$x                 CODE
 0002:00000000 00000898H .idata$5                DATA
 0002:00000898 00008f30H .rdata                  DATA
 0002:000097c8 000020fcH .rdata$r                DATA
 0002:0000b8c8 00006618H .xdata$x                DATA
 0002:00011ee0 00000168H .idata$2                DATA
 0002:00012048 00000014H .idata$3                DATA
 0002:0001205c 00000898H .idata$4                DATA
 0002:000128f4 00002268H .idata$6                DATA
 0002:00014b5c 00000000H .edata                  DATA
 0003:00000000 00000004H .CRT$XCA                DATA
 0003:00000004 0000002cH .CRT$XCC                DATA
 0003:00000030 00000014H .CRT$XCL                DATA
 0003:00000044 00000054H .CRT$XCU                DATA
 0003:00000098 00000004H .CRT$XCZ                DATA
 0003:0000009c 00000004H .CRT$XIA                DATA
 0003:000000a0 0000000cH .CRT$XIC                DATA
 0003:000000ac 00000004H .CRT$XIY                DATA
 0003:000000b0 00000004H .CRT$XIZ                DATA
 0003:000000b4 00000004H .CRT$XPA                DATA
 0003:000000b8 00000004H .CRT$XPX                DATA
 0003:000000bc 00000004H .CRT$XPZ                DATA
 0003:000000c0 00000004H .CRT$XTA                DATA
 0003:000000c4 00000004H .CRT$XTB                DATA
 0003:000000c8 00000004H .CRT$XTZ                DATA
 0003:000000d0 00006913H .data                   DATA
 0003:000069e8 00004500H .bss                    DATA
 0004:00000000 00001158H .rsrc$01                DATA
 0004:00001160 000186a0H .rsrc$02                DATA

  Address         Publics by Value              Rva+Base     Lib:Object

 0001:00000000       ??0CAudio@@QAE@XZ          00401000 f   Audio.obj
 0001:000000d0       ??_GCAudio@@UAEPAXI@Z      004010d0 f i Audio.obj
 0001:000000d0       ??_ECAudio@@UAEPAXI@Z      004010d0 f i Audio.obj
 0001:000000f0       ??1CAudio@@UAE@XZ          004010f0 f   Audio.obj
 0001:000001e0       ?getRecordBuffer@CAudio@@QAEPAEPAK@Z 004011e0 f   Audio.obj
 0001:00000240       ?playBuffer@CAudio@@QAE_NPAEK@Z 00401240 f   Audio.obj
 0001:000002c0       ?InitializeWaveIn@CAudio@@AAE_NXZ 004012c0 f   Audio.obj
 0001:00000390       ?InitializeWaveOut@CAudio@@AAE_NXZ 00401390 f   Audio.obj
 0001:00000430       ?waveInCallBack@CAudio@@CGKPAX@Z 00401430 f   Audio.obj
 0001:000004f0       ??0CAudioDlg@@QAE@PAVCWnd@@PAVCIOCPServer@@PAUClientContext@@@Z 004014f0 f   AudioDlg.obj
 0001:000005f0       ??_GCAudioDlg@@UAEPAXI@Z   004015f0 f i AudioDlg.obj
 0001:000005f0       ??_ECAudioDlg@@UAEPAXI@Z   004015f0 f i AudioDlg.obj
 0001:00000610       ??1CAudioDlg@@UAE@XZ       00401610 f i AudioDlg.obj
 0001:00000670       ?DoDataExchange@CAudioDlg@@MAEXPAVCDataExchange@@@Z 00401670 f   AudioDlg.obj
 0001:00000690       ?GetMessageMap@CAudioDlg@@MBEPBUAFX_MSGMAP@@XZ 00401690 f   AudioDlg.obj
 0001:000006a0       ?OnInitDialog@CAudioDlg@@MAEHXZ 004016a0 f   AudioDlg.obj
 0001:00000790       ?OnReceiveComplete@CAudioDlg@@QAEXXZ 00401790 f   AudioDlg.obj
 0001:00000860       ?OnReceive@CAudioDlg@@QAEXXZ 00401860 f   AudioDlg.obj
 0001:00000870       ?OnClose@CAudioDlg@@IAEXXZ 00401870 f   AudioDlg.obj
 0001:000008b0       ?OnSendLocalaudio@CAudioDlg@@IAEXXZ 004018b0 f   AudioDlg.obj
 0001:000008c0       ?WorkThread@CAudioDlg@@CGKPAX@Z 004018c0 f   AudioDlg.obj
 0001:00000930       ?DoDataExchange@CWnd@@MAEXPAVCDataExchange@@@Z 00401930 f i AudioDlg.obj
 0001:00000930       ?Serialize@CObject@@UAEXAAVCArchive@@@Z 00401930 f i AudioDlg.obj
 0001:00000940       ?BeginModalState@CWnd@@UAEXXZ 00401940 f i AudioDlg.obj
 0001:00000950       ?EndModalState@CWnd@@UAEXXZ 00401950 f i AudioDlg.obj
 0001:00000960       ??0CBmpToAvi@@QAE@XZ       00401960 f   BmpToAvi.obj
 0001:00000980       ??_GCBmpToAvi@@UAEPAXI@Z   00401980 f i BmpToAvi.obj
 0001:00000980       ??_ECBmpToAvi@@UAEPAXI@Z   00401980 f i BmpToAvi.obj
 0001:000009a0       ??1CBmpToAvi@@UAE@XZ       004019a0 f   BmpToAvi.obj
 0001:000009b0       ?Open@CBmpToAvi@@QAE_NPBDPAUtagBITMAPINFO@@@Z 004019b0 f   BmpToAvi.obj
 0001:00000a70       ?Write@CBmpToAvi@@QAE_NPAX@Z 00401a70 f   BmpToAvi.obj
 0001:00000ac0       ?Close@CBmpToAvi@@QAEXXZ   00401ac0 f   BmpToAvi.obj
 0001:00000af0       ??0CButtonST@@QAE@XZ       00401af0 f   BtnST.obj
 0001:00000c30       ??_GCButtonST@@UAEPAXI@Z   00401c30 f i BtnST.obj
 0001:00000c30       ??_ECButtonST@@UAEPAXI@Z   00401c30 f i BtnST.obj
 0001:00000c50       ??1CButtonST@@UAE@XZ       00401c50 f   BtnST.obj
 0001:00000d30       ?GetMessageMap@CButtonST@@MBEPBUAFX_MSGMAP@@XZ 00401d30 f   BtnST.obj
 0001:00000d40       ?FreeResources@CButtonST@@AAEXH@Z 00401d40 f   BtnST.obj
 0001:00000dd0       ?PreSubclassWindow@CButtonST@@MAEXXZ 00401dd0 f   BtnST.obj
 0001:00000e30       ?OnGetDlgCode@CButtonST@@IAEIXZ 00401e30 f   BtnST.obj
 0001:00000e50       ?PreTranslateMessage@CButtonST@@UAEHPAUtagMSG@@@Z 00401e50 f   BtnST.obj
 0001:00000e90       ?CtlColor@CButtonST@@IAEPAUHBRUSH__@@PAVCDC@@I@Z 00401e90 f   BtnST.obj
 0001:00000ea0       ?OnSysColorChange@CButtonST@@IAEXXZ 00401ea0 f   BtnST.obj
 0001:00000ed0       ?OnSetStyle@CButtonST@@AAEJIJ@Z 00401ed0 f   BtnST.obj
 0001:00000f10       ?OnSetCheck@CButtonST@@AAEJIJ@Z 00401f10 f   BtnST.obj
 0001:00000f40       ?OnGetCheck@CButtonST@@AAEJIJ@Z 00401f40 f   BtnST.obj
 0001:00000f50       ?OnEnable@CButtonST@@IAEXH@Z 00401f50 f   BtnST.obj
 0001:00000fc0       ?OnKillFocus@CButtonST@@IAEXPAVCWnd@@@Z 00401fc0 f   BtnST.obj
 0001:00000fe0       ?OnActivate@CButtonST@@IAEXIPAVCWnd@@H@Z 00401fe0 f   BtnST.obj
 0001:00001000       ?OnCancelMode@CButtonST@@IAEXXZ 00402000 f   BtnST.obj
 0001:00001020       ?OnSetCursor@CButtonST@@IAEHPAVCWnd@@II@Z 00402020 f   BtnST.obj
 0001:00001050       ?CancelHover@CButtonST@@AAEXXZ 00402050 f   BtnST.obj
 0001:00001080       ?OnMouseMove@CButtonST@@IAEXIVCPoint@@@Z 00402080 f   BtnST.obj
 0001:00001180       ?OnMouseLeave@CButtonST@@AAEJIJ@Z 00402180 f   BtnST.obj
 0001:00001190       ?OnClicked@CButtonST@@IAEHXZ 00402190 f   BtnST.obj
 0001:00001310       ?DrawItem@CButtonST@@UAEXPAUtagDRAWITEMSTRUCT@@@Z 00402310 f   BtnST.obj
 0001:00001520       ?PaintBk@CButtonST@@AAEXPAVCDC@@@Z 00402520 f   BtnST.obj
 0001:000016c0       ?PrepareImageRect@CButtonST@@AAEXHPAUtagRECT@@PAVCRect@@HKK1@Z 004026c0 f   BtnST.obj
 0001:00001800       ?DrawTheIcon@CButtonST@@EAEXPAVCDC@@HPAUtagRECT@@PAVCRect@@HH@Z 00402800 f   BtnST.obj
 0001:000018d0       ?DrawTheBitmap@CButtonST@@EAEXPAVCDC@@HPAUtagRECT@@PAVCRect@@HH@Z 004028d0 f   BtnST.obj
 0001:00001b40       ?DrawTheText@CButtonST@@EAEXPAVCDC@@PBDPAUtagRECT@@PAVCRect@@HH@Z 00402b40 f   BtnST.obj
 0001:00001cb0       ?SetPressedStyle@CButtonST@@QAEKEH@Z 00402cb0 f   BtnST.obj
 0001:00001d00       ?SetCheck@CButtonST@@QAEKHH@Z 00402d00 f   BtnST.obj
 0001:00001d40       ?GetCheck@CButtonST@@QAEHXZ 00402d40 f   BtnST.obj
 0001:00001d50       ?SetDefaultColors@CButtonST@@QAEKH@Z 00402d50 f   BtnST.obj
 0001:00001dc0       ?SetColor@CButtonST@@QAEKEKH@Z 00402dc0 f   BtnST.obj
 0001:00001e00       ?InitToolTip@CButtonST@@AAEXXZ 00402e00 f   BtnST.obj
 0001:00001e60       ?SetURL@CButtonST@@QAEKPBD@Z 00402e60 f   BtnST.obj
 0001:00001e90       ??1CObject@@UAE@XZ         00402e90 f i BtnST.obj
 0001:00001ea0       ?OnDrawBackground@CButtonST@@MAEKPAVCDC@@PAVCRect@@@Z 00402ea0 f   BtnST.obj
 0001:00001f90       ?OnDrawBorder@CButtonST@@MAEKPAVCDC@@PAVCRect@@@Z 00402f90 f   BtnST.obj
 0001:00002290       ??_ECGdiObject@@UAEPAXI@Z  00403290 f i BtnST.obj
 0001:00002290       ??_GCGdiObject@@UAEPAXI@Z  00403290 f i BtnST.obj
 0001:000022b0       ??1CGdiObject@@UAE@XZ      004032b0 f i BtnST.obj
 0001:000022f0       ??1CPen@@UAE@XZ            004032f0 f i BtnST.obj
 0001:00002330       ??_GCBitmap@@UAEPAXI@Z     00403330 f i BtnST.obj
 0001:00002330       ??_ECBitmap@@UAEPAXI@Z     00403330 f i BtnST.obj
 0001:00002350       ??1CBitmap@@UAE@XZ         00403350 f i BtnST.obj
 0001:00002390       ??_ECButton@@UAEPAXI@Z     00403390 f i BtnST.obj
 0001:00002390       ??_GCButton@@UAEPAXI@Z     00403390 f i BtnST.obj
 0001:000023b0       ??0CBuffer@@QAE@XZ         004033b0 f   Buffer.obj
 0001:000023d0       ??_ECBuffer@@UAEPAXI@Z     004033d0 f i Buffer.obj
 0001:000023d0       ??_GCBuffer@@UAEPAXI@Z     004033d0 f i Buffer.obj
 0001:000023f0       ??1CBuffer@@UAE@XZ         004033f0 f   Buffer.obj
 0001:00002410       ?Write@CBuffer@@QAEHPAEI@Z 00403410 f   Buffer.obj
 0001:00002460       ?Read@CBuffer@@QAEIPAEI@Z  00403460 f   Buffer.obj
 0001:000024f0       ?GetMemSize@CBuffer@@IAEIXZ 004034f0 f   Buffer.obj
 0001:00002500       ?GetBufferLen@CBuffer@@QAEIXZ 00403500 f   Buffer.obj
 0001:00002510       ?ReAllocateBuffer@CBuffer@@IAEII@Z 00403510 f   Buffer.obj
 0001:000025d0       ?DeAllocateBuffer@CBuffer@@IAEII@Z 004035d0 f   Buffer.obj
 0001:000026a0       ?ClearBuffer@CBuffer@@QAEXXZ 004036a0 f   Buffer.obj
 0001:000026c0       ?GetBuffer@CBuffer@@QAEPAEI@Z 004036c0 f   Buffer.obj
 0001:000026d0       ?Delete@CBuffer@@QAEII@Z   004036d0 f   Buffer.obj
 0001:00002740       ?CreateObject@CBuildView@@SGPAVCObject@@XZ 00403740 f   BuildView.obj
 0001:000027a0       ?GetRuntimeClass@CBuildView@@UBEPAUCRuntimeClass@@XZ 004037a0 f   BuildView.obj
 0001:000027b0       ??0CBuildView@@QAE@XZ      004037b0 f   BuildView.obj
 0001:00002920       ??_GCBuildView@@UAEPAXI@Z  00403920 f i BuildView.obj
 0001:00002920       ??_ECBuildView@@UAEPAXI@Z  00403920 f i BuildView.obj
 0001:00002940       ??1CFormView@@UAE@XZ       00403940 f i BuildView.obj
 0001:00002950       ??1CBuildView@@UAE@XZ      00403950 f   BuildView.obj
 0001:00002a20       ?DoDataExchange@CBuildView@@MAEXPAVCDataExchange@@@Z 00403a20 f   BuildView.obj
 0001:00002ab0       ?GetMessageMap@CBuildView@@MBEPBUAFX_MSGMAP@@XZ 00403ab0 f   BuildView.obj
 0001:00002ac0       ?OnBuild@CBuildView@@IAEXXZ 00403ac0 f   BuildView.obj
 0001:00003280       ??1CFileDialog@@UAE@XZ     00404280 f i BuildView.obj
 0001:000032d0       ?OnActivateView@CBuildView@@MAEXHPAVCView@@0@Z 004042d0 f   BuildView.obj
 0001:00003530       ?OnEnableHttp@CBuildView@@IAEXXZ 00404530 f   BuildView.obj
 0001:00003580       ??3CObject@@SGXPAX@Z       00404580 f i BuildView.obj
 0001:00003590       ?AfxGetApp@@YGPAVCWinApp@@XZ 00404590 f i BuildView.obj
 0001:000035a0       ??_ECComboBox@@UAEPAXI@Z   004045a0 f i BuildView.obj
 0001:000035a0       ??_GCComboBox@@UAEPAXI@Z   004045a0 f i BuildView.obj
 0001:000035c0       ??1CCommonDialog@@UAE@XZ   004045c0 f i BuildView.obj
 0001:000035c0       ??1CAboutDlg@@UAE@XZ       004045c0 f i BuildView.obj
 0001:000035d0       ??0CCpuUsage@@QAE@XZ       004045d0 f   CpuUsage.obj
 0001:000035f0       ??_GCCpuUsage@@UAEPAXI@Z   004045f0 f i CpuUsage.obj
 0001:000035f0       ??_ECCpuUsage@@UAEPAXI@Z   004045f0 f i CpuUsage.obj
 0001:00003610       ??1CCpuUsage@@UAE@XZ       00404610 f   CpuUsage.obj
 0001:00003630       ?Init@CCpuUsage@@QAEHXZ    00404630 f   CpuUsage.obj
 0001:00003680       ?GetUsage@CCpuUsage@@QAEHXZ 00404680 f   CpuUsage.obj
 0001:000036c0       ??0CCustomTabCtrlItem@@AAE@VCString@@J@Z 004046c0 f   CustomTabCtrl.obj
 0001:00003730       ?ComputeRgn@CCustomTabCtrlItem@@AAEXH@Z 00404730 f   CustomTabCtrl.obj
 0001:00003780       ?GetRegionPoints@CCustomTabCtrlItem@@ABEXABVCRect@@PAVCPoint@@H@Z 00404780 f   CustomTabCtrl.obj
 0001:00003c80       ?GetDrawPoints@CCustomTabCtrlItem@@ABEXABVCRect@@PAVCPoint@@H@Z 00404c80 f   CustomTabCtrl.obj
 0001:00003dc0       ?Draw@CCustomTabCtrlItem@@AAEXAAVCDC@@AAVCFont@@HH@Z 00404dc0 f   CustomTabCtrl.obj
 0001:00004100       ??0CCustomTabCtrl@@QAE@XZ  00405100 f   CustomTabCtrl.obj
 0001:00004220       ??_ECCustomTabCtrl@@UAEPAXI@Z 00405220 f i CustomTabCtrl.obj
 0001:00004220       ??_GCCustomTabCtrl@@UAEPAXI@Z 00405220 f i CustomTabCtrl.obj
 0001:00004240       ?RegisterWindowClass@CCustomTabCtrl@@AAEHXZ 00405240 f   CustomTabCtrl.obj
 0001:000042e0       ??1CCustomTabCtrl@@UAE@XZ  004052e0 f   CustomTabCtrl.obj
 0001:00004460       ?GetMessageMap@CCustomTabCtrl@@MBEPBUAFX_MSGMAP@@XZ 00405460 f   CustomTabCtrl.obj
 0001:00004470       ?Create@CCustomTabCtrl@@QAEHIABVCRect@@PAVCWnd@@I@Z 00405470 f   CustomTabCtrl.obj
 0001:000044a0       ?OnEraseBkgnd@CCustomTabCtrl@@IAEHPAVCDC@@@Z 004054a0 f   CustomTabCtrl.obj
 0001:000044b0       ?OnPaint@CCustomTabCtrl@@IAEXXZ 004054b0 f   CustomTabCtrl.obj
 0001:000055c0       ?OnSize@CCustomTabCtrl@@IAEXIHH@Z 004065c0 f   CustomTabCtrl.obj
 0001:000055f0       ?OnSizeParent@CCustomTabCtrl@@IAEJIJ@Z 004065f0 f   CustomTabCtrl.obj
 0001:00005740       ?OnLButtonDown@CCustomTabCtrl@@IAEXIVCPoint@@@Z 00406740 f   CustomTabCtrl.obj
 0001:00005780       ?OnLButtonDblClk@CCustomTabCtrl@@IAEXIVCPoint@@@Z 00406780 f   CustomTabCtrl.obj
 0001:000057f0       ?ProcessLButtonDown@CCustomTabCtrl@@AAEHHIVCPoint@@@Z 004067f0 f   CustomTabCtrl.obj
 0001:000059f0       ?NotifyParent@CCustomTabCtrl@@AAEHIHVCPoint@@@Z 004069f0 f   CustomTabCtrl.obj
 0001:00005af0       ?OnLButtonUp@CCustomTabCtrl@@IAEXIVCPoint@@@Z 00406af0 f   CustomTabCtrl.obj
 0001:00005bd0       ?OnMouseMove@CCustomTabCtrl@@IAEXIVCPoint@@@Z 00406bd0 f   CustomTabCtrl.obj
 0001:00005ed0       ?OnMouseLeave@CCustomTabCtrl@@IAEJIJ@Z 00406ed0 f   CustomTabCtrl.obj
 0001:00005f40       ?OnUpdateEdit@CCustomTabCtrl@@IAEXXZ 00406f40 f   CustomTabCtrl.obj
 0001:00005f90       ?OnThemeChanged@CCustomTabCtrl@@IAEJIJ@Z 00406f90 f   CustomTabCtrl.obj
 0001:00006720       ?OnTimer@CCustomTabCtrl@@IAEXI@Z 00407720 f   CustomTabCtrl.obj
 0001:000068e0       ?SetControlFont@CCustomTabCtrl@@QAEXABUtagLOGFONTA@@H@Z 004078e0 f   CustomTabCtrl.obj
 0001:000069b0       ?InsertItem@CCustomTabCtrl@@QAEHHVCString@@J@Z 004079b0 f   CustomTabCtrl.obj
 0001:00006cb0       ?MoveItem@CCustomTabCtrl@@AAEHHHH@Z 00407cb0 f   CustomTabCtrl.obj
 0001:00007080       ?CopyItem@CCustomTabCtrl@@AAEHHHH@Z 00408080 f   CustomTabCtrl.obj
 0001:000072f0       ?DeleteItem@CCustomTabCtrl@@QAEHH@Z 004082f0 f   CustomTabCtrl.obj
 0001:000074f0       ?DeleteAllItems@CCustomTabCtrl@@QAEXXZ 004084f0 f   CustomTabCtrl.obj
 0001:000075b0       ??1CCustomTabCtrlItem@@QAE@XZ 004085b0 f i CustomTabCtrl.obj
 0001:00007610       ?SetCurSel@CCustomTabCtrl@@QAEHH@Z 00408610 f   CustomTabCtrl.obj
 0001:00007630       ?SetItemTooltipText@CCustomTabCtrl@@QAEHHVCString@@@Z 00408630 f   CustomTabCtrl.obj
 0001:000077a0       ?GetItemData@CCustomTabCtrl@@QAEHHAAK@Z 004087a0 f   CustomTabCtrl.obj
 0001:000077d0       ?HitTest@CCustomTabCtrl@@QAEHVCPoint@@@Z 004087d0 f   CustomTabCtrl.obj
 0001:00007c60       ?HighlightItem@CCustomTabCtrl@@AAEHHHH@Z 00408c60 f   CustomTabCtrl.obj
 0001:00007d70       ?SetCurSel@CCustomTabCtrl@@AAEHHHH@Z 00408d70 f   CustomTabCtrl.obj
 0001:00007e10       ??0CGdiObject@@QAE@XZ      00408e10 f i CustomTabCtrl.obj
 0001:00007e20       ?RecalcLayout@CCustomTabCtrl@@AAEXHH@Z 00408e20 f   CustomTabCtrl.obj
 0001:00008bf0       ??1CBrush@@UAE@XZ          00409bf0 f i CustomTabCtrl.obj
 0001:00008c30       ??_GCFont@@UAEPAXI@Z       00409c30 f i CustomTabCtrl.obj
 0001:00008c30       ??_ECFont@@UAEPAXI@Z       00409c30 f i CustomTabCtrl.obj
 0001:00008c50       ??1CFont@@UAE@XZ           00409c50 f i CustomTabCtrl.obj
 0001:00008c90       ??_ECRgn@@UAEPAXI@Z        00409c90 f i CustomTabCtrl.obj
 0001:00008c90       ??_GCRgn@@UAEPAXI@Z        00409c90 f i CustomTabCtrl.obj
 0001:00008cb0       ??1CRgn@@UAE@XZ            00409cb0 f i CustomTabCtrl.obj
 0001:00008cf0       ?RecalcEditResized@CCustomTabCtrl@@AAEXHH@Z 00409cf0 f   CustomTabCtrl.obj
 0001:00008f00       ?RecalcOffset@CCustomTabCtrl@@AAEXH@Z 00409f00 f   CustomTabCtrl.obj
 0001:00009260       ?RecalcRectangles@CCustomTabCtrl@@AAEHXZ 0040a260 f   CustomTabCtrl.obj
 0001:000096a0       ?PreTranslateMessage@CCustomTabCtrl@@MAEHPAUtagMSG@@@Z 0040a6a0 f   CustomTabCtrl.obj
 0001:00009700       ?DrawBk@CCustomTabCtrl@@AAEXAAVCDC@@AAVCRect@@PAUHBITMAP__@@HAAU_MY_MARGINS@@H@Z 0040a700 f   CustomTabCtrl.obj
 0001:0000a050       ?DrawGlyph@CCustomTabCtrl@@AAEXAAVCDC@@AAVCPoint@@HH@Z 0040b050 f   CustomTabCtrl.obj
 0001:0000a2b0       ?ModifyStyle@CCustomTabCtrl@@QAEHKKI@Z 0040b2b0 f   CustomTabCtrl.obj
 0001:0000a370       ?PreSubclassWindow@CCustomTabCtrl@@MAEXXZ 0040b370 f   CustomTabCtrl.obj
 0001:0000a3b0       ?SetDragCursors@CCustomTabCtrl@@QAEXPAUHICON__@@0@Z 0040b3b0 f   CustomTabCtrl.obj
 0001:0000a400       ?OnRButtonDown@CCustomTabCtrl@@IAEXIVCPoint@@@Z 0040b400 f   CustomTabCtrl.obj
 0001:0000a430       ?OnRButtonDblClk@CCustomTabCtrl@@IAEXIVCPoint@@@Z 0040b430 f   CustomTabCtrl.obj
 0001:0000a460       ?EditLabel@CCustomTabCtrl@@AAEHHH@Z 0040b460 f   CustomTabCtrl.obj
 0001:0000a920       ??1?$CArray@PAVCCustomTabCtrlItem@@PAV1@@@UAE@XZ 0040b920 f i CustomTabCtrl.obj
 0001:0000a970       ?Serialize@?$CArray@PAVCCustomTabCtrlItem@@PAV1@@@UAEXAAVCArchive@@@Z 0040b970 f i CustomTabCtrl.obj
 0001:0000ab00       ??_G?$CArray@PAVCCustomTabCtrlItem@@PAV1@@@UAEPAXI@Z 0040bb00 f i CustomTabCtrl.obj
 0001:0000ab00       ??_E?$CArray@PAVCCustomTabCtrlItem@@PAV1@@@UAEPAXI@Z 0040bb00 f i CustomTabCtrl.obj
 0001:0000ab20       ?SetSize@?$CArray@PAVCCustomTabCtrlItem@@PAV1@@@QAEXHH@Z 0040bb20 f i CustomTabCtrl.obj
 0001:0000ac60       ??_ECEdit@@UAEPAXI@Z       0040bc60 f i CustomTabCtrl.obj
 0001:0000ac60       ??_GCEdit@@UAEPAXI@Z       0040bc60 f i CustomTabCtrl.obj
 0001:0000ac80       ??0CFileManagerDlg@@QAE@PAVCWnd@@PAVCIOCPServer@@PAUClientContext@@@Z 0040bc80 f   FileManagerDlg.obj
 0001:0000af90       ??_GCFileManagerDlg@@UAEPAXI@Z 0040bf90 f i FileManagerDlg.obj
 0001:0000af90       ??_ECFileManagerDlg@@UAEPAXI@Z 0040bf90 f i FileManagerDlg.obj
 0001:0000afb0       ??1CFileManagerDlg@@UAE@XZ 0040bfb0 f i FileManagerDlg.obj
 0001:0000b1a0       ?DoDataExchange@CFileManagerDlg@@MAEXPAVCDataExchange@@@Z 0040c1a0 f   FileManagerDlg.obj
 0001:0000b200       ?GetMessageMap@CFileManagerDlg@@MBEPBUAFX_MSGMAP@@XZ 0040c200 f   FileManagerDlg.obj
 0001:0000b210       ?GetIconIndex@@YAHPBDK@Z   0040c210 f   FileManagerDlg.obj
 0001:0000b260       ?OnInitDialog@CFileManagerDlg@@MAEHXZ 0040c260 f   FileManagerDlg.obj
 0001:0000b640       ?OnSize@CFileManagerDlg@@IAEXIHH@Z 0040c640 f   FileManagerDlg.obj
 0001:0000b7b0       ?FixedLocalDriveList@CFileManagerDlg@@QAEXXZ 0040c7b0 f   FileManagerDlg.obj
 0001:0000bad0       ?OnDblclkListLocal@CFileManagerDlg@@IAEXPAUtagNMHDR@@PAJ@Z 0040cad0 f   FileManagerDlg.obj
 0001:0000bb40       ?FixedLocalFileList@CFileManagerDlg@@QAEXVCString@@@Z 0040cb40 f   FileManagerDlg.obj
 0001:0000c0b0       ?DropItemOnList@CFileManagerDlg@@IAEXPAVCListCtrl@@0@Z 0040d0b0 f   FileManagerDlg.obj
 0001:0000c120       ?OnQueryDragIcon@CFileManagerDlg@@IAEPAUHICON__@@XZ 0040d120 f   FileManagerDlg.obj
 0001:0000c130       ?OnBegindragListLocal@CFileManagerDlg@@IAEXPAUtagNMHDR@@PAJ@Z 0040d130 f   FileManagerDlg.obj
 0001:0000c210       ?OnBegindragListRemote@CFileManagerDlg@@IAEXPAUtagNMHDR@@PAJ@Z 0040d210 f   FileManagerDlg.obj
 0001:0000c2f0       ?OnMouseMove@CFileManagerDlg@@IAEXIVCPoint@@@Z 0040d2f0 f   FileManagerDlg.obj
 0001:0000c480       ?OnLButtonUp@CFileManagerDlg@@IAEXIVCPoint@@@Z 0040d480 f   FileManagerDlg.obj
 0001:0000c510       ?PreTranslateMessage@CFileManagerDlg@@UAEHPAUtagMSG@@@Z 0040d510 f   FileManagerDlg.obj
 0001:0000c680       ?OnTimer@CFileManagerDlg@@IAEXI@Z 0040d680 f   FileManagerDlg.obj
 0001:0000c6b0       ?FixedRemoteDriveList@CFileManagerDlg@@QAEXXZ 0040d6b0 f   FileManagerDlg.obj
 0001:0000c9b0       ?OnClose@CFileManagerDlg@@IAEXXZ 0040d9b0 f   FileManagerDlg.obj
 0001:0000c9e0       ?GetParentDirectory@CFileManagerDlg@@QAE?AVCString@@V2@@Z 0040d9e0 f   FileManagerDlg.obj
 0001:0000cb40       ?OnReceiveComplete@CFileManagerDlg@@QAEXXZ 0040db40 f   FileManagerDlg.obj
 0001:0000cc30       ?GetRemoteFileList@CFileManagerDlg@@QAEXVCString@@@Z 0040dc30 f   FileManagerDlg.obj
 0001:0000ce70       ?OnDblclkListRemote@CFileManagerDlg@@IAEXPAUtagNMHDR@@PAJ@Z 0040de70 f   FileManagerDlg.obj
 0001:0000cee0       ?FixedRemoteFileList@CFileManagerDlg@@QAEXPAEK@Z 0040dee0 f   FileManagerDlg.obj
 0001:0000d270       ?ShowMessage@CFileManagerDlg@@QAAXPADZZ 0040e270 f   FileManagerDlg.obj
 0001:0000d2d0       ?OnLocalPrev@CFileManagerDlg@@IAEXXZ 0040e2d0 f   FileManagerDlg.obj
 0001:0000d2f0       ?OnRemotePrev@CFileManagerDlg@@IAEXXZ 0040e2f0 f   FileManagerDlg.obj
 0001:0000d310       ?OnLocalView@CFileManagerDlg@@IAEXXZ 0040e310 f   FileManagerDlg.obj
 0001:0000d310       ?OnLocalBigicon@CFileManagerDlg@@IAEXXZ 0040e310 f   FileManagerDlg.obj
 0001:0000d330       ?OnLocalList@CFileManagerDlg@@IAEXXZ 0040e330 f   FileManagerDlg.obj
 0001:0000d350       ?OnLocalReport@CFileManagerDlg@@IAEXXZ 0040e350 f   FileManagerDlg.obj
 0001:0000d370       ?OnLocalSmallicon@CFileManagerDlg@@IAEXXZ 0040e370 f   FileManagerDlg.obj
 0001:0000d390       ?OnRemoteList@CFileManagerDlg@@IAEXXZ 0040e390 f   FileManagerDlg.obj
 0001:0000d3b0       ?OnRemoteReport@CFileManagerDlg@@IAEXXZ 0040e3b0 f   FileManagerDlg.obj
 0001:0000d3d0       ?OnRemoteSmallicon@CFileManagerDlg@@IAEXXZ 0040e3d0 f   FileManagerDlg.obj
 0001:0000d3f0       ?OnRemoteView@CFileManagerDlg@@IAEXXZ 0040e3f0 f   FileManagerDlg.obj
 0001:0000d3f0       ?OnRemoteBigicon@CFileManagerDlg@@IAEXXZ 0040e3f0 f   FileManagerDlg.obj
 0001:0000d410       ?OnUpdateLocalNewfolder@CFileManagerDlg@@IAEXPAVCCmdUI@@@Z 0040e410 f   FileManagerDlg.obj
 0001:0000d410       ?OnUpdateLocalPrev@CFileManagerDlg@@IAEXPAVCCmdUI@@@Z 0040e410 f   FileManagerDlg.obj
 0001:0000d450       ?OnUpdateLocalDelete@CFileManagerDlg@@IAEXPAVCCmdUI@@@Z 0040e450 f   FileManagerDlg.obj
 0001:0000d4b0       ?OnUpdateLocalCopy@CFileManagerDlg@@IAEXPAVCCmdUI@@@Z 0040e4b0 f   FileManagerDlg.obj
 0001:0000d530       ?OnUpdateLocalStop@CFileManagerDlg@@IAEXPAVCCmdUI@@@Z 0040e530 f   FileManagerDlg.obj
 0001:0000d570       ?OnUpdateRemoteCopy@CFileManagerDlg@@IAEXPAVCCmdUI@@@Z 0040e570 f   FileManagerDlg.obj
 0001:0000d5f0       ?OnUpdateRemoteDelete@CFileManagerDlg@@IAEXPAVCCmdUI@@@Z 0040e5f0 f   FileManagerDlg.obj
 0001:0000d650       ?OnUpdateRemotePrev@CFileManagerDlg@@IAEXPAVCCmdUI@@@Z 0040e650 f   FileManagerDlg.obj
 0001:0000d650       ?OnUpdateRemoteNewfolder@CFileManagerDlg@@IAEXPAVCCmdUI@@@Z 0040e650 f   FileManagerDlg.obj
 0001:0000d690       ?OnUpdateRemoteStop@CFileManagerDlg@@IAEXPAVCCmdUI@@@Z 0040e690 f   FileManagerDlg.obj
 0001:0000d6d0       ?FixedUploadDirectory@CFileManagerDlg@@QAE_NPBD@Z 0040e6d0 f   FileManagerDlg.obj
 0001:0000d8d0       ?EnableControl@CFileManagerDlg@@AAEXH@Z 0040e8d0 f   FileManagerDlg.obj
 0001:0000d910       ?OnLocalCopy@CFileManagerDlg@@IAEXXZ 0040e910 f   FileManagerDlg.obj
 0001:0000db90       ?OnRemoteCopy@CFileManagerDlg@@IAEXXZ 0040eb90 f   FileManagerDlg.obj
 0001:0000ddc0       ?SendDownloadJob@CFileManagerDlg@@QAEHXZ 0040edc0 f   FileManagerDlg.obj
 0001:0000dec0       ?SendUploadJob@CFileManagerDlg@@QAEHXZ 0040eec0 f   FileManagerDlg.obj
 0001:0000e150       ?SendDeleteJob@CFileManagerDlg@@QAEHXZ 0040f150 f   FileManagerDlg.obj
 0001:0000e280       ?CreateLocalRecvFile@CFileManagerDlg@@QAEXXZ 0040f280 f   FileManagerDlg.obj
 0001:0000e6b0       ??1CFileTransferModeDlg@@UAE@XZ 0040f6b0 f i FileManagerDlg.obj
 0001:0000e700       ?WriteLocalRecvFile@CFileManagerDlg@@QAEXXZ 0040f700 f   FileManagerDlg.obj
 0001:0000e880       ?EndLocalRecvFile@CFileManagerDlg@@QAEXXZ 0040f880 f   FileManagerDlg.obj
 0001:0000e950       ?EndLocalUploadFile@CFileManagerDlg@@AAEXXZ 0040f950 f   FileManagerDlg.obj
 0001:0000ea20       ?EndRemoteDeleteFile@CFileManagerDlg@@QAEXXZ 0040fa20 f   FileManagerDlg.obj
 0001:0000ea90       ?SendException@CFileManagerDlg@@QAEXXZ 0040fa90 f   FileManagerDlg.obj
 0001:0000eac0       ?SendStop@CFileManagerDlg@@QAEXXZ 0040fac0 f   FileManagerDlg.obj
 0001:0000eaf0       ?ShowProgress@CFileManagerDlg@@QAEXXZ 0040faf0 f   FileManagerDlg.obj
 0001:0000ebe0       ?OnLocalDelete@CFileManagerDlg@@IAEXXZ 0040fbe0 f   FileManagerDlg.obj
 0001:0000ee00       ?OnRemoteDelete@CFileManagerDlg@@IAEXXZ 0040fe00 f   FileManagerDlg.obj
 0001:0000f0d0       ?OnLocalStop@CFileManagerDlg@@IAEXXZ 004100d0 f   FileManagerDlg.obj
 0001:0000f0d0       ?OnRemoteStop@CFileManagerDlg@@IAEXXZ 004100d0 f   FileManagerDlg.obj
 0001:0000f0e0       ?SendTransferMode@CFileManagerDlg@@AAEXXZ 004100e0 f   FileManagerDlg.obj
 0001:0000f200       ?SendFileData@CFileManagerDlg@@AAEXXZ 00410200 f   FileManagerDlg.obj
 0001:0000f330       ?DeleteDirectory@CFileManagerDlg@@AAE_NPBD@Z 00410330 f   FileManagerDlg.obj
 0001:0000f410       ?OnLocalNewfolder@CFileManagerDlg@@IAEXXZ 00410410 f   FileManagerDlg.obj
 0001:0000f5a0       ??1CInputDialog@@UAE@XZ    004105a0 f i FileManagerDlg.obj
 0001:0000f600       ?DoDataExchange@CInputDialog@@MAEXPAVCDataExchange@@@Z 00410600 f i FileManagerDlg.obj
 0001:0000f620       ??_GCInputDialog@@UAEPAXI@Z 00410620 f i FileManagerDlg.obj
 0001:0000f620       ??_ECInputDialog@@UAEPAXI@Z 00410620 f i FileManagerDlg.obj
 0001:0000f640       ?OnRemoteNewfolder@CFileManagerDlg@@IAEXXZ 00410640 f   FileManagerDlg.obj
 0001:0000f810       ?OnTransfer@CFileManagerDlg@@IAEXXZ 00410810 f   FileManagerDlg.obj
 0001:0000f850       ?OnRename@CFileManagerDlg@@IAEXXZ 00410850 f   FileManagerDlg.obj
 0001:0000f8e0       ?OnEndlabeleditListLocal@CFileManagerDlg@@IAEXPAUtagNMHDR@@PAJ@Z 004108e0 f   FileManagerDlg.obj
 0001:0000fa30       ?OnEndlabeleditListRemote@CFileManagerDlg@@IAEXPAUtagNMHDR@@PAJ@Z 00410a30 f   FileManagerDlg.obj
 0001:0000fc30       ?OnDelete@CFileManagerDlg@@IAEXXZ 00410c30 f   FileManagerDlg.obj
 0001:0000fc70       ?OnNewfolder@CFileManagerDlg@@IAEXXZ 00410c70 f   FileManagerDlg.obj
 0001:0000fcb0       ?OnRefresh@CFileManagerDlg@@IAEXXZ 00410cb0 f   FileManagerDlg.obj
 0001:0000fd20       ?OnLocalOpen@CFileManagerDlg@@IAEXXZ 00410d20 f   FileManagerDlg.obj
 0001:0000fdf0       ?OnRemoteOpenShow@CFileManagerDlg@@IAEXXZ 00410df0 f   FileManagerDlg.obj
 0001:0000ff10       ?OnRemoteOpenHide@CFileManagerDlg@@IAEXXZ 00410f10 f   FileManagerDlg.obj
 0001:00010030       ?OnRclickListLocal@CFileManagerDlg@@IAEXPAUtagNMHDR@@PAJ@Z 00411030 f   FileManagerDlg.obj
 0001:000101e0       ?OnRclickListRemote@CFileManagerDlg@@IAEXPAUtagNMHDR@@PAJ@Z 004111e0 f   FileManagerDlg.obj
 0001:00010390       ?MakeSureDirectoryPathExists@CFileManagerDlg@@AAE_NPBD@Z 00411390 f   FileManagerDlg.obj
 0001:00010510       ?RemoveHead@?$CList@VCString@@AAV1@@@QAE?AVCString@@XZ 00411510 f i FileManagerDlg.obj
 0001:000105f0       ??1?$CList@VCString@@AAV1@@@UAE@XZ 004115f0 f i FileManagerDlg.obj
 0001:00010660       ?Serialize@?$CList@VCString@@AAV1@@@UAEXAAVCArchive@@@Z 00411660 f i FileManagerDlg.obj
 0001:000107b0       ??_E?$CList@VCString@@AAV1@@@UAEPAXI@Z 004117b0 f i FileManagerDlg.obj
 0001:000107b0       ??_G?$CList@VCString@@AAV1@@@UAEPAXI@Z 004117b0 f i FileManagerDlg.obj
 0001:000107d0       ??_GCMenu@@UAEPAXI@Z       004117d0 f i FileManagerDlg.obj
 0001:000107d0       ??_ECMenu@@UAEPAXI@Z       004117d0 f i FileManagerDlg.obj
 0001:000107f0       ??1CMenu@@UAE@XZ           004117f0 f i FileManagerDlg.obj
 0001:00010830       ??_GCListCtrl@@UAEPAXI@Z   00411830 f i FileManagerDlg.obj
 0001:00010830       ??_ECListCtrl@@UAEPAXI@Z   00411830 f i FileManagerDlg.obj
 0001:00010850       ??_ECProgressCtrl@@UAEPAXI@Z 00411850 f i FileManagerDlg.obj
 0001:00010850       ??_GCProgressCtrl@@UAEPAXI@Z 00411850 f i FileManagerDlg.obj
 0001:00010870       ??0CFileTransferModeDlg@@QAE@PAVCWnd@@@Z 00411870 f   FileTransferModeDlg.obj
 0001:000108a0       ??_GCFileTransferModeDlg@@UAEPAXI@Z 004118a0 f i FileTransferModeDlg.obj
 0001:000108a0       ??_ECFileTransferModeDlg@@UAEPAXI@Z 004118a0 f i FileTransferModeDlg.obj
 0001:000108c0       ?GetMessageMap@CFileTransferModeDlg@@MBEPBUAFX_MSGMAP@@XZ 004118c0 f   FileTransferModeDlg.obj
 0001:000108d0       ?OnEndDialog@CFileTransferModeDlg@@IAEXI@Z 004118d0 f   FileTransferModeDlg.obj
 0001:000108e0       ?OnInitDialog@CFileTransferModeDlg@@MAEHXZ 004118e0 f   FileTransferModeDlg.obj
 0001:00010980       ?dbg_dump@@YAXPAU_EXCEPTION_POINTERS@@@Z 00411980 f   gh0st.obj
 0001:00010a20       ?bad_exception@@YGJPAU_EXCEPTION_POINTERS@@@Z 00411a20 f   gh0st.obj
 0001:00010a40       ?GetMessageMap@CGh0stApp@@MBEPBUAFX_MSGMAP@@XZ 00411a40 f   gh0st.obj
 0001:00010a50       ??0CGh0stApp@@QAE@XZ       00411a50 f   gh0st.obj
 0001:00010b50       ??_GCGh0stApp@@UAEPAXI@Z   00411b50 f i gh0st.obj
 0001:00010b50       ??_ECGh0stApp@@UAEPAXI@Z   00411b50 f i gh0st.obj
 0001:00010b70       ??1CGh0stApp@@UAE@XZ       00411b70 f i gh0st.obj
 0001:00010c00       ?InitInstance@CGh0stApp@@UAEHXZ 00411c00 f   gh0st.obj
 0001:00010de0       ??0CAboutDlg@@QAE@XZ       00411de0 f   gh0st.obj
 0001:00010e00       ??_GCAboutDlg@@UAEPAXI@Z   00411e00 f i gh0st.obj
 0001:00010e00       ??_ECAboutDlg@@UAEPAXI@Z   00411e00 f i gh0st.obj
 0001:00010e20       ?GetMessageMap@CAboutDlg@@MBEPBUAFX_MSGMAP@@XZ 00411e20 f   gh0st.obj
 0001:00010e30       ?OnAppAbout@CGh0stApp@@QAEXXZ 00411e30 f   gh0st.obj
 0001:00010e90       ?CreateObject@CGh0stDoc@@SGPAVCObject@@XZ 00411e90 f   gh0stDoc.obj
 0001:00010ef0       ?GetRuntimeClass@CGh0stDoc@@UBEPAUCRuntimeClass@@XZ 00411ef0 f   gh0stDoc.obj
 0001:00010f00       ?GetMessageMap@CGh0stDoc@@MBEPBUAFX_MSGMAP@@XZ 00411f00 f   gh0stDoc.obj
 0001:00010f10       ??0CGh0stDoc@@IAE@XZ       00411f10 f   gh0stDoc.obj
 0001:00010f30       ??_ECGh0stDoc@@UAEPAXI@Z   00411f30 f i gh0stDoc.obj
 0001:00010f30       ??_GCGh0stDoc@@UAEPAXI@Z   00411f30 f i gh0stDoc.obj
 0001:00010f50       ??1CGh0stDoc@@UAE@XZ       00411f50 f   gh0stDoc.obj
 0001:00010f60       ?DoDataExchange@CWebCamDlg@@MAEXPAVCDataExchange@@@Z 00411f60 f   gh0stDoc.obj
 0001:00010f60       ?OnDraw@CGh0stView@@UAEXPAVCDC@@@Z 00411f60 f   gh0stDoc.obj
 0001:00010f60       ?DoDataExchange@CFileTransferModeDlg@@MAEXPAVCDataExchange@@@Z 00411f60 f   gh0stDoc.obj
 0001:00010f60       ?Serialize@CGh0stDoc@@UAEXAAVCArchive@@@Z 00411f60 f   gh0stDoc.obj
 0001:00010f60       ?DoDataExchange@CScreenSpyDlg@@MAEXPAVCDataExchange@@@Z 00411f60 f   gh0stDoc.obj
 0001:00010f60       ?DoDataExchange@CAboutDlg@@MAEXPAVCDataExchange@@@Z 00411f60 f   gh0stDoc.obj
 0001:00010f70       ?DeleteContents@CGh0stDoc@@UAEXXZ 00411f70 f   gh0stDoc.obj
 0001:00010fa0       ?IsModified@CDocument@@UAEHXZ 00411fa0 f i gh0stDoc.obj
 0001:00010fb0       ?SetModifiedFlag@CDocument@@UAEXH@Z 00411fb0 f i gh0stDoc.obj
 0001:00011000       ?CreateObject@CGh0stView@@SGPAVCObject@@XZ 00412000 f   gh0stView.obj
 0001:00011060       ?GetRuntimeClass@CGh0stView@@UBEPAUCRuntimeClass@@XZ 00412060 f   gh0stView.obj
 0001:00011070       ?GetMessageMap@CGh0stView@@MBEPBUAFX_MSGMAP@@XZ 00412070 f   gh0stView.obj
 0001:00011080       ??0CGh0stView@@IAE@XZ      00412080 f   gh0stView.obj
 0001:00011140       ??_GCGh0stView@@UAEPAXI@Z  00412140 f i gh0stView.obj
 0001:00011140       ??_ECGh0stView@@UAEPAXI@Z  00412140 f i gh0stView.obj
 0001:00011160       ??1CGh0stView@@UAE@XZ      00412160 f   gh0stView.obj
 0001:00011170       ?PreCreateWindow@CGh0stView@@UAEHAAUtagCREATESTRUCTA@@@Z 00412170 f   gh0stView.obj
 0001:00011190       ?OnInitialUpdate@CGh0stView@@MAEXXZ 00412190 f   gh0stView.obj
 0001:000112e0       ?OnMyInitialUpdate@CGh0stView@@AAEJIJ@Z 004122e0 f   gh0stView.obj
 0001:000114b0       ?OnOpenManagerDialog@CGh0stView@@AAEJIJ@Z 004124b0 f   gh0stView.obj
 0001:00011550       ?OnOpenScreenSpyDialog@CGh0stView@@AAEJIJ@Z 00412550 f   gh0stView.obj
 0001:000115f0       ?OnOpenWebCamDialog@CGh0stView@@AAEJIJ@Z 004125f0 f   gh0stView.obj
 0001:00011690       ?OnOpenAudioDialog@CGh0stView@@AAEJIJ@Z 00412690 f   gh0stView.obj
 0001:00011730       ?OnOpenKeyBoardDialog@CGh0stView@@AAEJIJ@Z 00412730 f   gh0stView.obj
 0001:000117d0       ?OnOpenSystemDialog@CGh0stView@@AAEJIJ@Z 004127d0 f   gh0stView.obj
 0001:00011870       ?OnOpenShellDialog@CGh0stView@@AAEJIJ@Z 00412870 f   gh0stView.obj
 0001:00011910       ?OnSize@CGh0stView@@IAEXIHH@Z 00412910 f   gh0stView.obj
 0001:00011990       ?OnRButtonDown@CGh0stView@@IAEXIVCPoint@@@Z 00412990 f   gh0stView.obj
 0001:00011af0       ?OnAddToList@CGh0stView@@AAEJIJ@Z 00412af0 f   gh0stView.obj
 0001:00011ed0       ?OnRemoveFromList@CGh0stView@@AAEJIJ@Z 00412ed0 f   gh0stView.obj
 0001:00011fb0       ?SendSelectCommand@CGh0stView@@AAEXPAEI@Z 00412fb0 f   gh0stView.obj
 0001:00012020       ?OnFilemanager@CGh0stView@@IAEXXZ 00413020 f   gh0stView.obj
 0001:00012040       ?OnScreenspy@CGh0stView@@IAEXXZ 00413040 f   gh0stView.obj
 0001:00012060       ?OnWebcam@CGh0stView@@IAEXXZ 00413060 f   gh0stView.obj
 0001:00012080       ?OnAudioListen@CGh0stView@@IAEXXZ 00413080 f   gh0stView.obj
 0001:000120a0       ?OnDownexec@CGh0stView@@IAEXXZ 004130a0 f   gh0stView.obj
 0001:000122b0       ?OnRemove@CGh0stView@@IAEXXZ 004132b0 f   gh0stView.obj
 0001:000122e0       ?OnKeyboard@CGh0stView@@IAEXXZ 004132e0 f   gh0stView.obj
 0001:00012300       ?OnSystem@CGh0stView@@IAEXXZ 00413300 f   gh0stView.obj
 0001:00012320       ?OnRemoteshell@CGh0stView@@IAEXXZ 00413320 f   gh0stView.obj
 0001:00012340       ?OnLogoff@CGh0stView@@IAEXXZ 00413340 f   gh0stView.obj
 0001:00012360       ?OnReboot@CGh0stView@@IAEXXZ 00413360 f   gh0stView.obj
 0001:00012380       ?OnShutdown@CGh0stView@@IAEXXZ 00413380 f   gh0stView.obj
 0001:000123a0       ?OnSelectAll@CGh0stView@@IAEXXZ 004133a0 f   gh0stView.obj
 0001:00012400       ?OnUnselectAll@CGh0stView@@IAEXXZ 00413400 f   gh0stView.obj
 0001:00012460       ?OnOpenUrlHide@CGh0stView@@IAEXXZ 00413460 f   gh0stView.obj
 0001:00012670       ?OnOpenUrlShow@CGh0stView@@IAEXXZ 00413670 f   gh0stView.obj
 0001:00012880       ?OnCleanevent@CGh0stView@@IAEXXZ 00413880 f   gh0stView.obj
 0001:000128a0       ?OnRenameRemark@CGh0stView@@IAEXXZ 004138a0 f   gh0stView.obj
 0001:00012b40       ?OnUpdateServer@CGh0stView@@IAEXXZ 00413b40 f   gh0stView.obj
 0001:00012d50       ?OnDisconnect@CGh0stView@@IAEXXZ 00413d50 f   gh0stView.obj
 0001:00012db0       ??0CHoverEdit@@QAE@XZ      00413db0 f   HoverEdit.obj
 0001:00012dd0       ??_GCHoverEdit@@UAEPAXI@Z  00413dd0 f i HoverEdit.obj
 0001:00012dd0       ??_ECHoverEdit@@UAEPAXI@Z  00413dd0 f i HoverEdit.obj
 0001:00012df0       ??1CHoverEdit@@UAE@XZ      00413df0 f   HoverEdit.obj
 0001:00012e00       ?GetMessageMap@CHoverEdit@@MBEPBUAFX_MSGMAP@@XZ 00413e00 f   HoverEdit.obj
 0001:00012e10       ?OnHoverEnter@CHoverEdit@@UAEXXZ 00413e10 f   HoverEdit.obj
 0001:00012e10       ?OnHoverLeave@CHoverEdit@@UAEXXZ 00413e10 f   HoverEdit.obj
 0001:00012e30       ?OnNcPaint@CHoverEdit@@IAEXXZ 00413e30 f   HoverEdit.obj
 0001:00012ee0       ?WindowProc@?$CTrackControl@VCEdit@@@@MAEJIIJ@Z 00413ee0 f i HoverEdit.obj
 0001:00012fa0       ??_E?$CTrackControl@VCEdit@@@@UAEPAXI@Z 00413fa0 f i HoverEdit.obj
 0001:00012fa0       ??_G?$CTrackControl@VCEdit@@@@UAEPAXI@Z 00413fa0 f i HoverEdit.obj
 0001:00012fc0       ??1?$CTrackControl@VCEdit@@@@UAE@XZ 00413fc0 f i HoverEdit.obj
 0001:00012fd0       ??0CIniFile@@QAE@XZ        00413fd0 f   IniFile.obj
 0001:000130b0       ??_ECIniFile@@UAEPAXI@Z    004140b0 f i IniFile.obj
 0001:000130b0       ??_GCIniFile@@UAEPAXI@Z    004140b0 f i IniFile.obj
 0001:000130d0       ??1CIniFile@@UAE@XZ        004140d0 f   IniFile.obj
 0001:000130e0       ?GetString@CIniFile@@QAE?AVCString@@V2@00@Z 004140e0 f   IniFile.obj
 0001:000131b0       ?GetInt@CIniFile@@QAEHVCString@@0H@Z 004141b0 f   IniFile.obj
 0001:00013220       ?SetString@CIniFile@@QAEHVCString@@00@Z 00414220 f   IniFile.obj
 0001:000132a0       ?SetInt@CIniFile@@QAEHVCString@@0H@Z 004142a0 f   IniFile.obj
 0001:00013350       ??0CDlgTemplateBuilder@@QAE@I@Z 00414350 f   InputDlg.obj
 0001:00013380       ??1CDlgTemplateBuilder@@QAE@XZ 00414380 f   InputDlg.obj
 0001:00013390       ?Begin@CDlgTemplateBuilder@@QAEPAUDLGTEMPLATE@@KABVCRect@@PBDK@Z 00414390 f   InputDlg.obj
 0001:00013410       ?AddItemTemplate@CDlgTemplateBuilder@@IAEXGKABVCRect@@GK@Z 00414410 f   InputDlg.obj
 0001:00013490       ?AddItem@CDlgTemplateBuilder@@QAEXGKABVCRect@@PBDGK@Z 00414490 f   InputDlg.obj
 0001:000134e0       ?AddItem@CDlgTemplateBuilder@@QAEXGKABVCRect@@GGK@Z 004144e0 f   InputDlg.obj
 0001:00013540       ?AddText@CDlgTemplateBuilder@@QAEPAGPAGPBD@Z 00414540 f   InputDlg.obj
 0001:000135b0       ?Init@CInputDialog@@QAEHPBD0PAVCWnd@@G@Z 004145b0 f   InputDlg.obj
 0001:00013780       ?OnInitDialog@CInputDialog@@MAEHXZ 00414780 f   InputDlg.obj
 0001:000137b0       ?OnOK@CInputDialog@@MAEXXZ 004147b0 f   InputDlg.obj
 0001:000137e0       ??0CIOCPServer@@QAE@XZ     004147e0 f   IOCPServer.obj
 0001:000138f0       ??_GCIOCPServer@@UAEPAXI@Z 004148f0 f i IOCPServer.obj
 0001:000138f0       ??_ECIOCPServer@@UAEPAXI@Z 004148f0 f i IOCPServer.obj
 0001:00013910       ??1CIOCPServer@@UAE@XZ     00414910 f   IOCPServer.obj
 0001:000139f0       ?Initialize@CIOCPServer@@QAE_NP6GXPAXPAUClientContext@@I@ZPAVCMainFrame@@HH@Z 004149f0 f   IOCPServer.obj
 0001:00013b10       ?ListenThreadProc@CIOCPServer@@SGIPAX@Z 00414b10 f   IOCPServer.obj
 0001:00013b90       ?OnAccept@CIOCPServer@@IAEXXZ 00414b90 f   IOCPServer.obj
 0001:00013e00       ?InitializeIOCP@CIOCPServer@@IAE_NXZ 00414e00 f   IOCPServer.obj
 0001:00013ef0       ?ThreadPoolFunc@CIOCPServer@@SGIPAX@Z 00414ef0 f   IOCPServer.obj
 0001:000140c0       ?Stop@CIOCPServer@@IAEXXZ  004150c0 f   IOCPServer.obj
 0001:000140f0       ?PostRecv@CIOCPServer@@QAEXPAUClientContext@@@Z 004150f0 f   IOCPServer.obj
 0001:00014170       ?Send@CIOCPServer@@QAEXPAUClientContext@@PAEI@Z 00415170 f   IOCPServer.obj
 0001:00014330       ?OnClientInitializing@CIOCPServer@@QAE_NPAUClientContext@@K@Z 00415330 f   IOCPServer.obj
 0001:00014340       ?OnClientReading@CIOCPServer@@QAE_NPAUClientContext@@K@Z 00415340 f   IOCPServer.obj
 0001:000146c0       ?OnClientWriting@CIOCPServer@@QAE_NPAUClientContext@@K@Z 004156c0 f   IOCPServer.obj
 0001:00014840       ?CloseCompletionPort@CIOCPServer@@IAEXXZ 00415840 f   IOCPServer.obj
 0001:000148c0       ?AssociateSocketWithCompletionPort@CIOCPServer@@IAEHIPAXK@Z 004158c0 f   IOCPServer.obj
 0001:000148f0       ?RemoveStaleClient@CIOCPServer@@IAEXPAUClientContext@@H@Z 004158f0 f   IOCPServer.obj
 0001:00014a10       ?Shutdown@CIOCPServer@@QAEXXZ 00415a10 f   IOCPServer.obj
 0001:00014ac0       ??1ClientContext@@QAE@XZ   00415ac0 f i IOCPServer.obj
 0001:00014b30       ?MoveToFreePool@CIOCPServer@@IAEXPAUClientContext@@@Z 00415b30 f   IOCPServer.obj
 0001:00014cd0       ?AllocateContext@CIOCPServer@@IAEPAUClientContext@@XZ 00415cd0 f   IOCPServer.obj
 0001:00014e30       ?RemoveAll@?$CList@PAUClientContext@@PAU1@@@QAEXXZ 00415e30 f i IOCPServer.obj
 0001:00014e60       ??1?$CList@PAUClientContext@@PAU1@@@UAE@XZ 00415e60 f i IOCPServer.obj
 0001:00014ec0       ?Serialize@?$CList@PAUClientContext@@PAU1@@@UAEXAAVCArchive@@@Z 00415ec0 f i IOCPServer.obj
 0001:00014fe0       ??_E?$CList@PAUClientContext@@PAU1@@@UAEPAXI@Z 00415fe0 f i IOCPServer.obj
 0001:00014fe0       ??_G?$CList@PAUClientContext@@PAU1@@@UAEPAXI@Z 00415fe0 f i IOCPServer.obj
 0001:00015000       ?NewNode@?$CList@PAUClientContext@@PAU1@@@IAEPAUCNode@1@PAU21@0@Z 00416000 f i IOCPServer.obj
 0001:00015070       ?ConstructElements@@YGXPAPAUClientContext@@H@Z 00416070 f i IOCPServer.obj
 0001:00015090       ??1CLock@@QAE@XZ           00416090 f i IOCPServer.obj
 0001:000150e0       ??0CKeyBoardDlg@@QAE@PAVCWnd@@PAVCIOCPServer@@PAUClientContext@@@Z 004160e0 f   KeyBoardDlg.obj
 0001:00015210       ??_ECKeyBoardDlg@@UAEPAXI@Z 00416210 f i KeyBoardDlg.obj
 0001:00015210       ??_GCKeyBoardDlg@@UAEPAXI@Z 00416210 f i KeyBoardDlg.obj
 0001:00015230       ??1CKeyBoardDlg@@UAE@XZ    00416230 f i KeyBoardDlg.obj
 0001:00015290       ?GetMessageMap@CKeyBoardDlg@@MBEPBUAFX_MSGMAP@@XZ 00416290 f   KeyBoardDlg.obj
 0001:000152a0       ?OnInitDialog@CKeyBoardDlg@@MAEHXZ 004162a0 f   KeyBoardDlg.obj
 0001:00015390       ?OnSysCommand@CKeyBoardDlg@@IAEXIJ@Z 00416390 f   KeyBoardDlg.obj
 0001:00015470       ?OnReceiveComplete@CKeyBoardDlg@@QAEXXZ 00416470 f   KeyBoardDlg.obj
 0001:000154a0       ?SendException@CKeyBoardDlg@@AAEXXZ 004164a0 f   KeyBoardDlg.obj
 0001:000154d0       ?AddKeyBoardData@CKeyBoardDlg@@AAEXXZ 004164d0 f   KeyBoardDlg.obj
 0001:00015540       ?OnSize@CKeyBoardDlg@@IAEXIHH@Z 00416540 f   KeyBoardDlg.obj
 0001:00015540       ?OnSize@CShellDlg@@IAEXIHH@Z 00416540 f   KeyBoardDlg.obj
 0001:00015560       ?ResizeEdit@CKeyBoardDlg@@AAEXXZ 00416560 f   KeyBoardDlg.obj
 0001:00015560       ?ResizeEdit@CShellDlg@@AAEXXZ 00416560 f   KeyBoardDlg.obj
 0001:000155a0       ?SaveRecord@CKeyBoardDlg@@AAE_NXZ 004165a0 f   KeyBoardDlg.obj
 0001:000157c0       ?UpdateTitle@CKeyBoardDlg@@AAEXXZ 004167c0 f   KeyBoardDlg.obj
 0001:00015890       ?CreateObject@CMainFrame@@SGPAVCObject@@XZ 00416890 f   MainFrm.obj
 0001:000158f0       ?GetRuntimeClass@CMainFrame@@UBEPAUCRuntimeClass@@XZ 004168f0 f   MainFrm.obj
 0001:00015900       ?GetMessageMap@CMainFrame@@MBEPBUAFX_MSGMAP@@XZ 00416900 f   MainFrm.obj
 0001:00015910       ??0CMainFrame@@IAE@XZ      00416910 f   MainFrm.obj
 0001:00015980       ??_GCMainFrame@@UAEPAXI@Z  00416980 f i MainFrm.obj
 0001:00015980       ??_ECMainFrame@@UAEPAXI@Z  00416980 f i MainFrm.obj
 0001:000159a0       ??1CMainFrame@@UAE@XZ      004169a0 f   MainFrm.obj
 0001:00015a10       ?OnCreate@CMainFrame@@IAEHPAUtagCREATESTRUCTA@@@Z 00416a10 f   MainFrm.obj
 0001:00015bc0       ?PreCreateWindow@CMainFrame@@UAEHAAUtagCREATESTRUCTA@@@Z 00416bc0 f   MainFrm.obj
 0001:00015c10       ?NotifyProc@CMainFrame@@SGXPAXPAUClientContext@@I@Z 00416c10 f   MainFrm.obj
 0001:00015d50       ?Activate@CMainFrame@@QAEXII@Z 00416d50 f   MainFrm.obj
 0001:00015f40       ?ProcessReceiveComplete@CMainFrame@@SAXPAUClientContext@@@Z 00416f40 f   MainFrm.obj
 0001:00016190       ?ProcessReceive@CMainFrame@@SAXPAUClientContext@@@Z 00417190 f   MainFrm.obj
 0001:000161c0       ?OnClose@CMainFrame@@IAEXXZ 004171c0 f   MainFrm.obj
 0001:00016200       ?OnTrayNotification@CMainFrame@@IAEJIJ@Z 00417200 f   MainFrm.obj
 0001:00016240       ?OnSysCommand@CMainFrame@@IAEXIJ@Z 00417240 f   MainFrm.obj
 0001:000162b0       ?OnUpdateStatusBar@CMainFrame@@IAEXPAVCCmdUI@@@Z 004172b0 f   MainFrm.obj
 0001:000162c0       ?ShowConnectionsNumber@CMainFrame@@QAEXXZ 004172c0 f   MainFrm.obj
 0001:00016350       ?OnShow@CMainFrame@@IAEXXZ 00417350 f   MainFrm.obj
 0001:00016370       ?OnHide@CMainFrame@@IAEXXZ 00417370 f   MainFrm.obj
 0001:00016380       ?OnExit@CMainFrame@@IAEXXZ 00417380 f   MainFrm.obj
 0001:00016390       ?ShowToolTips@CMainFrame@@QAEXPBD@Z 00417390 f   MainFrm.obj
 0001:000163b0       ?OnOnlineServer@CMainFrame@@IAEXXZ 004173b0 f   MainFrm.obj
 0001:000163d0       ?OnSetting@CMainFrame@@IAEXXZ 004173d0 f   MainFrm.obj
 0001:000163f0       ?OnBuildServer@CMainFrame@@IAEXXZ 004173f0 f   MainFrm.obj
 0001:00016410       ??0CScreenSpyDlg@@QAE@PAVCWnd@@PAVCIOCPServer@@PAUClientContext@@@Z 00417410 f   ScreenSpyDlg.obj
 0001:000166a0       ??1CCursorInfo@@UAE@XZ     004176a0 f i ScreenSpyDlg.obj
 0001:000166d0       ??_GCCursorInfo@@UAEPAXI@Z 004176d0 f i ScreenSpyDlg.obj
 0001:000166d0       ??_ECCursorInfo@@UAEPAXI@Z 004176d0 f i ScreenSpyDlg.obj
 0001:00016710       ??_ECScreenSpyDlg@@UAEPAXI@Z 00417710 f i ScreenSpyDlg.obj
 0001:00016710       ??_GCScreenSpyDlg@@UAEPAXI@Z 00417710 f i ScreenSpyDlg.obj
 0001:00016730       ??1CScreenSpyDlg@@UAE@XZ   00417730 f i ScreenSpyDlg.obj
 0001:000167b0       ?OnClose@CScreenSpyDlg@@IAEXXZ 004177b0 f   ScreenSpyDlg.obj
 0001:00016840       ?GetMessageMap@CScreenSpyDlg@@MBEPBUAFX_MSGMAP@@XZ 00417840 f   ScreenSpyDlg.obj
 0001:00016850       ?OnReceiveComplete@CScreenSpyDlg@@QAEXXZ 00417850 f   ScreenSpyDlg.obj
 0001:00016900       ?SaveSnapshot@CScreenSpyDlg@@AAE_NXZ 00417900 f   ScreenSpyDlg.obj
 0001:00016b50       ?OnReceive@CScreenSpyDlg@@QAEXXZ 00417b50 f   ScreenSpyDlg.obj
 0001:00016bf0       ?SendResetScreen@CScreenSpyDlg@@AAEXH@Z 00417bf0 f   ScreenSpyDlg.obj
 0001:00016c30       ?SendResetAlgorithm@CScreenSpyDlg@@AAEXI@Z 00417c30 f   ScreenSpyDlg.obj
 0001:00016c60       ?OnInitDialog@CScreenSpyDlg@@MAEHXZ 00417c60 f   ScreenSpyDlg.obj
 0001:00016f90       ?ResetScreen@CScreenSpyDlg@@AAEXXZ 00417f90 f   ScreenSpyDlg.obj
 0001:00017140       ?DrawFirstScreen@CScreenSpyDlg@@AAEXXZ 00418140 f   ScreenSpyDlg.obj
 0001:00017190       ?DrawNextScreenDiff@CScreenSpyDlg@@AAEXXZ 00418190 f   ScreenSpyDlg.obj
 0001:000172d0       ?DrawNextScreenRect@CScreenSpyDlg@@AAEXXZ 004182d0 f   ScreenSpyDlg.obj
 0001:00017560       ?OnPaint@CScreenSpyDlg@@IAEXXZ 00418560 f   ScreenSpyDlg.obj
 0001:00017690       ?OnSize@CScreenSpyDlg@@IAEXIHH@Z 00418690 f   ScreenSpyDlg.obj
 0001:000177f0       ?OnSysCommand@CScreenSpyDlg@@IAEXIJ@Z 004187f0 f   ScreenSpyDlg.obj
 0001:00017bf0       ?OnGetMiniMaxInfo@CScreenSpyDlg@@AAEJIJ@Z 00418bf0 f   ScreenSpyDlg.obj
 0001:00017c20       ?DrawTipString@CScreenSpyDlg@@AAEXVCString@@@Z 00418c20 f   ScreenSpyDlg.obj
 0001:00017cd0       ?InitMMI@CScreenSpyDlg@@AAEXXZ 00418cd0 f   ScreenSpyDlg.obj
 0001:00017d80       ?PreTranslateMessage@CScreenSpyDlg@@UAEHPAUtagMSG@@@Z 00418d80 f   ScreenSpyDlg.obj
 0001:00017ed0       ?SendCommand@CScreenSpyDlg@@AAEXPAUtagMSG@@@Z 00418ed0 f   ScreenSpyDlg.obj
 0001:00017f30       ?OnHScroll@CScreenSpyDlg@@IAEXIIPAVCScrollBar@@@Z 00418f30 f   ScreenSpyDlg.obj
 0001:00018020       ?OnVScroll@CScreenSpyDlg@@IAEXIIPAVCScrollBar@@@Z 00419020 f   ScreenSpyDlg.obj
 0001:00018110       ?UpdateLocalClipboard@CScreenSpyDlg@@AAEXPADH@Z 00419110 f   ScreenSpyDlg.obj
 0001:00018180       ?SendLocalClipboard@CScreenSpyDlg@@AAEXXZ 00419180 f   ScreenSpyDlg.obj
 0001:00018230       ?SendNext@CScreenSpyDlg@@AAEXXZ 00419230 f   ScreenSpyDlg.obj
 0001:00018260       ?base64_encode@@YAHPBXHPAPAD@Z 00419260 f   SettingsView.obj
 0001:00018340       ?MyEncode@@YAPADPAD@Z      00419340 f   SettingsView.obj
 0001:000183b0       ?CreateObject@CSettingsView@@SGPAVCObject@@XZ 004193b0 f   SettingsView.obj
 0001:00018410       ?GetRuntimeClass@CSettingsView@@UBEPAUCRuntimeClass@@XZ 00419410 f   SettingsView.obj
 0001:00018420       ??0CSettingsView@@QAE@XZ   00419420 f   SettingsView.obj
 0001:00018990       ??_GCSettingsView@@UAEPAXI@Z 00419990 f i SettingsView.obj
 0001:00018990       ??_ECSettingsView@@UAEPAXI@Z 00419990 f i SettingsView.obj
 0001:000189b0       ??1CSettingsView@@UAE@XZ   004199b0 f   SettingsView.obj
 0001:00018aa0       ?DoDataExchange@CSettingsView@@MAEXPAVCDataExchange@@@Z 00419aa0 f   SettingsView.obj
 0001:00018bd0       ?GetMessageMap@CSettingsView@@MBEPBUAFX_MSGMAP@@XZ 00419bd0 f   SettingsView.obj
 0001:00018be0       ?OnChangeConfig@CSettingsView@@IAEXI@Z 00419be0 f   SettingsView.obj
 0001:00019100       ?OnActivateView@CSettingsView@@MAEXHPAVCView@@0@Z 0041a100 f   SettingsView.obj
 0001:000192a0       ?OnResetport@CSettingsView@@IAEXXZ 0041a2a0 f   SettingsView.obj
 0001:00019410       ?OnConnectAuto@CSettingsView@@IAEXXZ 0041a410 f   SettingsView.obj
 0001:00019440       ?OnCheckProxy@CSettingsView@@IAEXXZ 0041a440 f   SettingsView.obj
 0001:00019440       ?OnCheckAuth@CSettingsView@@IAEXXZ 0041a440 f   SettingsView.obj
 0001:00019450       ?OnTestMaster@CSettingsView@@IAEXXZ 0041a450 f   SettingsView.obj
 0001:000194a0       ?OnTestProxy@CSettingsView@@IAEXXZ 0041a4a0 f   SettingsView.obj
 0001:00019500       ?UpdateProxyControl@CSettingsView@@AAEXXZ 0041a500 f   SettingsView.obj
 0001:000195e0       ?TestProxy@CSettingsView@@CGKPAX@Z 0041a5e0 f   SettingsView.obj
 0001:00019960       ?TestMaster@CSettingsView@@CGKPAX@Z 0041a960 f   SettingsView.obj
 0001:00019af0       ?OnDisablePoptips@CSettingsView@@IAEXXZ 0041aaf0 f   SettingsView.obj
 0001:00019b90       ?OnSaveasDefault@CSettingsView@@IAEXXZ 0041ab90 f   SettingsView.obj
 0001:00019ba0       ??0SEU_QQwry@@QAE@XZ       0041aba0 f   SEU_QQwry.obj
 0001:00019bf0       ??_GSEU_QQwry@@UAEPAXI@Z   0041abf0 f i SEU_QQwry.obj
 0001:00019bf0       ??_ESEU_QQwry@@UAEPAXI@Z   0041abf0 f i SEU_QQwry.obj
 0001:00019c10       ??1SEU_QQwry@@UAE@XZ       0041ac10 f   SEU_QQwry.obj
 0001:00019c70       ?OpenQQwry@SEU_QQwry@@QAE_NVCString@@@Z 0041ac70 f   SEU_QQwry.obj
 0001:00019cf0       ?CloseQQwry@SEU_QQwry@@QAEXXZ 0041acf0 f   SEU_QQwry.obj
 0001:00019d10       ?GetBE@SEU_QQwry@@QAE_NXZ  0041ad10 f   SEU_QQwry.obj
 0001:00019d50       ?GetStartIPInfo@SEU_QQwry@@QAEHH@Z 0041ad50 f   SEU_QQwry.obj
 0001:00019fc0       ?GetRecordCount@SEU_QQwry@@QAEHXZ 0041afc0 f   SEU_QQwry.obj
 0001:0001a000       ?GetStr@SEU_QQwry@@QAE?AVCString@@H@Z 0041b000 f   SEU_QQwry.obj
 0001:0001a0d0       ?GetCountryLocal@SEU_QQwry@@QAE?AVCString@@H@Z 0041b0d0 f   SEU_QQwry.obj
 0001:0001a130       ?GetCountryLocal@SEU_QQwry@@QAE?AVCString@@EH@Z 0041b130 f   SEU_QQwry.obj
 0001:0001a500       ?GetStr@SEU_QQwry@@QAE?AVCString@@XZ 0041b500 f   SEU_QQwry.obj
 0001:0001a5a0       ?IPtoAdd@SEU_QQwry@@QAE?AVCString@@V2@@Z 0041b5a0 f   SEU_QQwry.obj
 0001:0001a670       ?GetIndex@SEU_QQwry@@QAEHVCString@@@Z 0041b670 f   SEU_QQwry.obj
 0001:0001a760       ?GetSIP@SEU_QQwry@@QAEKH@Z 0041b760 f   SEU_QQwry.obj
 0001:0001a830       ?IPtoDWORD@SEU_QQwry@@QAEKVCString@@@Z 0041b830 f   SEU_QQwry.obj
 0001:0001a940       ?SetPath@SEU_QQwry@@QAEXVCString@@@Z 0041b940 f   SEU_QQwry.obj
 0001:0001a9b0       ??0CShellDlg@@QAE@PAVCWnd@@PAVCIOCPServer@@PAUClientContext@@@Z 0041b9b0 f   ShellDlg.obj
 0001:0001aa50       ??_ECShellDlg@@UAEPAXI@Z   0041ba50 f i ShellDlg.obj
 0001:0001aa50       ??_GCShellDlg@@UAEPAXI@Z   0041ba50 f i ShellDlg.obj
 0001:0001aa70       ??1CShellDlg@@UAE@XZ       0041ba70 f i ShellDlg.obj
 0001:0001aac0       ?DoDataExchange@CShellDlg@@MAEXPAVCDataExchange@@@Z 0041bac0 f   ShellDlg.obj
 0001:0001aac0       ?DoDataExchange@CKeyBoardDlg@@MAEXPAVCDataExchange@@@Z 0041bac0 f   ShellDlg.obj
 0001:0001aae0       ?GetMessageMap@CShellDlg@@MBEPBUAFX_MSGMAP@@XZ 0041bae0 f   ShellDlg.obj
 0001:0001aaf0       ?PreTranslateMessage@CShellDlg@@UAEHPAUtagMSG@@@Z 0041baf0 f   ShellDlg.obj
 0001:0001ac80       ?OnInitDialog@CShellDlg@@MAEHXZ 0041bc80 f   ShellDlg.obj
 0001:0001adb0       ?OnReceiveComplete@CShellDlg@@QAEXXZ 0041bdb0 f   ShellDlg.obj
 0001:0001add0       ?AddKeyBoardData@CShellDlg@@AAEXXZ 0041bdd0 f   ShellDlg.obj
 0001:0001aeb0       ?OnClose@CKeyBoardDlg@@IAEXXZ 0041beb0 f   ShellDlg.obj
 0001:0001aeb0       ?OnClose@CShellDlg@@IAEXXZ 0041beb0 f   ShellDlg.obj
 0001:0001aee0       ?OnChangeEdit@CShellDlg@@IAEXXZ 0041bee0 f   ShellDlg.obj
 0001:0001af00       ?OnCtlColor@CShellDlg@@IAEPAUHBRUSH__@@PAVCDC@@PAVCWnd@@I@Z 0041bf00 f   ShellDlg.obj
 0001:0001af60       ??0CSystemDlg@@QAE@PAVCWnd@@PAVCIOCPServer@@PAUClientContext@@@Z 0041bf60 f   SystemDlg.obj
 0001:0001b030       ??_GCSystemDlg@@UAEPAXI@Z  0041c030 f i SystemDlg.obj
 0001:0001b030       ??_ECSystemDlg@@UAEPAXI@Z  0041c030 f i SystemDlg.obj
 0001:0001b050       ??1CSystemDlg@@UAE@XZ      0041c050 f i SystemDlg.obj
 0001:0001b0d0       ?DoDataExchange@CSystemDlg@@MAEXPAVCDataExchange@@@Z 0041c0d0 f   SystemDlg.obj
 0001:0001b130       ?OnReceiveComplete@CSystemDlg@@QAEXXZ 0041c130 f   SystemDlg.obj
 0001:0001b170       ?GetMessageMap@CSystemDlg@@MBEPBUAFX_MSGMAP@@XZ 0041c170 f   SystemDlg.obj
 0001:0001b180       ?ShowProcessList@CSystemDlg@@AAEXXZ 0041c180 f   SystemDlg.obj
 0001:0001b330       ?ShowWindowsList@CSystemDlg@@AAEXXZ 0041c330 f   SystemDlg.obj
 0001:0001b4a0       ?ShowDialupassList@CSystemDlg@@AAEXXZ 0041c4a0 f   SystemDlg.obj
 0001:0001b560       ?OnInitDialog@CSystemDlg@@EAEHXZ 0041c560 f   SystemDlg.obj
 0001:0001b7b0       ?PreTranslateMessage@CKeyBoardDlg@@UAEHPAUtagMSG@@@Z 0041c7b0 f   SystemDlg.obj
 0001:0001b7b0       ?PreTranslateMessage@CWebCamDlg@@UAEHPAUtagMSG@@@Z 0041c7b0 f   SystemDlg.obj
 0001:0001b7b0       ?PreTranslateMessage@CSystemDlg@@UAEHPAUtagMSG@@@Z 0041c7b0 f   SystemDlg.obj
 0001:0001b7e0       ?OnClose@CSystemDlg@@AAEXXZ 0041c7e0 f   SystemDlg.obj
 0001:0001b810       ?OnSize@CSystemDlg@@AAEXIHH@Z 0041c810 f   SystemDlg.obj
 0001:0001b830       ?AdjustList@CSystemDlg@@AAEXXZ 0041c830 f   SystemDlg.obj
 0001:0001b890       ?ShowSelectWindow@CSystemDlg@@AAEXXZ 0041c890 f   SystemDlg.obj
 0001:0001b990       ?OnRclickList@CSystemDlg@@AAEXPAUtagNMHDR@@PAJ@Z 0041c990 f   SystemDlg.obj
 0001:0001ba60       ?OnKillprocess@CSystemDlg@@AAEXXZ 0041ca60 f   SystemDlg.obj
 0001:0001bc00       ?OnRefreshPsList@CSystemDlg@@AAEXXZ 0041cc00 f   SystemDlg.obj
 0001:0001bc40       ?GetProcessList@CSystemDlg@@AAEXXZ 0041cc40 f   SystemDlg.obj
 0001:0001bc70       ?GetWindowsList@CSystemDlg@@AAEXXZ 0041cc70 f   SystemDlg.obj
 0001:0001bca0       ?GetDialupassList@CSystemDlg@@AAEXXZ 0041cca0 f   SystemDlg.obj
 0001:0001bcd0       ?OnSelchangeTab@CSystemDlg@@AAEXPAUtagNMHDR@@PAJ@Z 0041ccd0 f   SystemDlg.obj
 0001:0001bcf0       ??_GCTabCtrl@@UAEPAXI@Z    0041ccf0 f i SystemDlg.obj
 0001:0001bcf0       ??_ECTabCtrl@@UAEPAXI@Z    0041ccf0 f i SystemDlg.obj
 0001:0001bd10       ?CreateObject@CTabSDIFrameWnd@@SGPAVCObject@@XZ 0041cd10 f   TabSDIFrameWnd.obj
 0001:0001bd70       ?GetRuntimeClass@CTabSDIFrameWnd@@UBEPAUCRuntimeClass@@XZ 0041cd70 f   TabSDIFrameWnd.obj
 0001:0001bd80       ??0CTabSDIFrameWnd@@IAE@XZ 0041cd80 f   TabSDIFrameWnd.obj
 0001:0001bdd0       ??_ECTabSDIFrameWnd@@MAEPAXI@Z 0041cdd0 f i TabSDIFrameWnd.obj
 0001:0001bdd0       ??_GCTabSDIFrameWnd@@MAEPAXI@Z 0041cdd0 f i TabSDIFrameWnd.obj
 0001:0001bdf0       ??1CTabSDIFrameWnd@@MAE@XZ 0041cdf0 f   TabSDIFrameWnd.obj
 0001:0001be50       ?GetMessageMap@CTabSDIFrameWnd@@MBEPBUAFX_MSGMAP@@XZ 0041ce50 f   TabSDIFrameWnd.obj
 0001:0001be60       ?OnSelchangeTabctrl@CTabSDIFrameWnd@@IAEXPAUtagNMHDR@@PAJ@Z 0041ce60 f   TabSDIFrameWnd.obj
 0001:0001be80       ?OnClickTabctrl@CTabSDIFrameWnd@@IAEXPAUtagNMHDR@@PAJ@Z 0041ce80 f   TabSDIFrameWnd.obj
 0001:0001beb0       ?AddView@CTabSDIFrameWnd@@QAEHVCString@@PAVCView@@0@Z 0041ceb0 f   TabSDIFrameWnd.obj
 0001:0001c020       ?GetItemCount@CCustomTabCtrl@@QAEHXZ 0041d020 f i TabSDIFrameWnd.obj
 0001:0001c030       ?DeleteActiveView@CTabSDIFrameWnd@@QAEHXZ 0041d030 f   TabSDIFrameWnd.obj
 0001:0001c180       ?DeleteContents@CTabSDIFrameWnd@@QAEXXZ 0041d180 f   TabSDIFrameWnd.obj
 0001:0001c1e0       ?SetCurView@CTabSDIFrameWnd@@QAEHH@Z 0041d1e0 f   TabSDIFrameWnd.obj
 0001:0001c320       ??0CThemeUtil@@QAE@XZ      0041d320 f   ThemeUtil.obj
 0001:0001c370       ??_GCThemeUtil@@UAEPAXI@Z  0041d370 f i ThemeUtil.obj
 0001:0001c370       ??_ECThemeUtil@@UAEPAXI@Z  0041d370 f i ThemeUtil.obj
 0001:0001c390       ??1CThemeUtil@@UAE@XZ      0041d390 f   ThemeUtil.obj
 0001:0001c3a0       ?FreeLibrary@CThemeUtil@@AAEXXZ 0041d3a0 f   ThemeUtil.obj
 0001:0001c3c0       ?IsWinXP@CThemeUtil@@AAEHXZ 0041d3c0 f   ThemeUtil.obj
 0001:0001c420       ?OpenThemeData@CThemeUtil@@QAEHPAUHWND__@@PBG@Z 0041d420 f   ThemeUtil.obj
 0001:0001c520       ?CloseThemeData@CThemeUtil@@QAEXXZ 0041d520 f   ThemeUtil.obj
 0001:0001c570       ?GetThemeColor@CThemeUtil@@QAEHHHHPBK@Z 0041d570 f   ThemeUtil.obj
 0001:0001c5c0       ?GetThemeEnumValue@CThemeUtil@@QAEHHHHPBH@Z 0041d5c0 f   ThemeUtil.obj
 0001:0001c610       ?GetThemeInt@CThemeUtil@@QAEHHHHPBH@Z 0041d610 f   ThemeUtil.obj
 0001:0001c660       ?GetThemeMargins@CThemeUtil@@QAEHHHHPBU_MY_MARGINS@@@Z 0041d660 f   ThemeUtil.obj
 0001:0001c6b0       ?GetThemeFilename@CThemeUtil@@QAEHHHHPAGH@Z 0041d6b0 f   ThemeUtil.obj
 0001:0001c700       ?GetCurrentThemeName@CThemeUtil@@QAEHPAGH0H0H@Z 0041d700 f   ThemeUtil.obj
 0001:0001c750       ?LoadBitmapA@CThemeUtil@@QAEPAUHBITMAP__@@PAG@Z 0041d750 f   ThemeUtil.obj
 0001:0001c800       ?GetRuntimeClass@CTrayIcon@@UBEPAUCRuntimeClass@@XZ 0041d800 f   TrayIcon.obj
 0001:0001c810       ??0CTrayIcon@@QAE@XZ       0041d810 f   TrayIcon.obj
 0001:0001c830       ??_ECTrayIcon@@UAEPAXI@Z   0041d830 f i TrayIcon.obj
 0001:0001c830       ??_GCTrayIcon@@UAEPAXI@Z   0041d830 f i TrayIcon.obj
 0001:0001c850       ?Create@CTrayIcon@@QAEHPAVCWnd@@IPBDPAUHICON__@@IH@Z 0041d850 f   TrayIcon.obj
 0001:0001c9d0       ??1CTrayIcon@@UAE@XZ       0041d9d0 f   TrayIcon.obj
 0001:0001ca10       ?RemoveIcon@CTrayIcon@@QAEXXZ 0041da10 f   TrayIcon.obj
 0001:0001ca40       ?SetTooltipText@CTrayIcon@@QAEHPBD@Z 0041da40 f   TrayIcon.obj
 0001:0001cae0       ?OnTrayNotification@CTrayIcon@@UAEJIJ@Z 0041dae0 f   TrayIcon.obj
 0001:0001cd20       ??0CTrueColorToolBar@@QAE@XZ 0041dd20 f   TrueColorToolBar.obj
 0001:0001cd60       ??_ECTrueColorToolBar@@UAEPAXI@Z 0041dd60 f i TrueColorToolBar.obj
 0001:0001cd60       ??_GCTrueColorToolBar@@UAEPAXI@Z 0041dd60 f i TrueColorToolBar.obj
 0001:0001cd80       ??1CTrueColorToolBar@@UAE@XZ 0041dd80 f   TrueColorToolBar.obj
 0001:0001ce00       ?GetMessageMap@CTrueColorToolBar@@MBEPBUAFX_MSGMAP@@XZ 0041de00 f   TrueColorToolBar.obj
 0001:0001ce10       ?LoadTrueColorToolBar@CTrueColorToolBar@@QAEHHIII@Z 0041de10 f   TrueColorToolBar.obj
 0001:0001ce80       ?SetTrueColorToolBar@CTrueColorToolBar@@AAEHIIH@Z 0041de80 f   TrueColorToolBar.obj
 0001:0001d040       ?AddDropDownButton@CTrueColorToolBar@@QAEXPAVCWnd@@II@Z 0041e040 f   TrueColorToolBar.obj
 0001:0001d240       ?OnToolbarDropDown@CTrueColorToolBar@@IAEXPAUtagNMTOOLBARA@@PAJ@Z 0041e240 f   TrueColorToolBar.obj
 0001:0001d350       ?Serialize@?$CArray@UstDropDownInfo@CTrueColorToolBar@@AAU12@@@UAEXAAVCArchive@@@Z 0041e350 f i TrueColorToolBar.obj
 0001:0001d510       ??_E?$CArray@UstDropDownInfo@CTrueColorToolBar@@AAU12@@@UAEPAXI@Z 0041e510 f i TrueColorToolBar.obj
 0001:0001d510       ??_G?$CArray@UstDropDownInfo@CTrueColorToolBar@@AAU12@@@UAEPAXI@Z 0041e510 f i TrueColorToolBar.obj
 0001:0001d530       ??1?$CArray@UstDropDownInfo@CTrueColorToolBar@@AAU12@@@UAE@XZ 0041e530 f i TrueColorToolBar.obj
 0001:0001d580       ??0CWebCamDlg@@QAE@PAVCWnd@@PAVCIOCPServer@@PAUClientContext@@@Z 0041e580 f   WebCamDlg.obj
 0001:0001d6a0       ??_ECWebCamDlg@@UAEPAXI@Z  0041e6a0 f i WebCamDlg.obj
 0001:0001d6a0       ??_GCWebCamDlg@@UAEPAXI@Z  0041e6a0 f i WebCamDlg.obj
 0001:0001d6c0       ??1CWebCamDlg@@UAE@XZ      0041e6c0 f i WebCamDlg.obj
 0001:0001d730       ?GetMessageMap@CWebCamDlg@@MBEPBUAFX_MSGMAP@@XZ 0041e730 f   WebCamDlg.obj
 0001:0001d740       ?OnReceive@CWebCamDlg@@QAEXXZ 0041e740 f   WebCamDlg.obj
 0001:0001d7d0       ?OnReceiveComplete@CWebCamDlg@@QAEXXZ 0041e7d0 f   WebCamDlg.obj
 0001:0001d820       ?SaveSnapshot@CWebCamDlg@@AAE_NXZ 0041e820 f   WebCamDlg.obj
 0001:0001da70       ?SaveAvi@CWebCamDlg@@AAEXXZ 0041ea70 f   WebCamDlg.obj
 0001:0001dc90       ?SendException@CWebCamDlg@@AAEXXZ 0041ec90 f   WebCamDlg.obj
 0001:0001dcc0       ?OnGetMiniMaxInfo@CWebCamDlg@@AAEJIJ@Z 0041ecc0 f   WebCamDlg.obj
 0001:0001dcf0       ?InitMMI@CWebCamDlg@@AAEXXZ 0041ecf0 f   WebCamDlg.obj
 0001:0001ddd0       ?OnClose@CWebCamDlg@@IAEXXZ 0041edd0 f   WebCamDlg.obj
 0001:0001de70       ?OnInitDialog@CWebCamDlg@@MAEHXZ 0041ee70 f   WebCamDlg.obj
 0001:0001e040       ?OnSysCommand@CWebCamDlg@@IAEXIJ@Z 0041f040 f   WebCamDlg.obj
 0001:0001e160       ?DrawDIB@CWebCamDlg@@AAEXXZ 0041f160 f   WebCamDlg.obj
 0001:0001e270       ?InitCodec@CWebCamDlg@@AAEXK@Z 0041f270 f   WebCamDlg.obj
 0001:0001e3d0       ??_ECVideoCodec@@UAEPAXI@Z 0041f3d0 f i WebCamDlg.obj
 0001:0001e3d0       ??_GCVideoCodec@@UAEPAXI@Z 0041f3d0 f i WebCamDlg.obj
 0001:0001e420       ?SendResetScreen@CWebCamDlg@@AAE_NHH@Z 0041f420 f   WebCamDlg.obj
 0001:0001e4a0       ?ResetScreen@CWebCamDlg@@AAEXXZ 0041f4a0 f   WebCamDlg.obj
 0001:0001e5b0       ?OnPaint@CWebCamDlg@@IAEXXZ 0041f5b0 f   WebCamDlg.obj
 0001:0001e6b0       ?OnShowWindow@CWebCamDlg@@IAEXHI@Z 0041f6b0 f   WebCamDlg.obj
 0001:0001e6c0       ?OnSize@CWebCamDlg@@IAEXIHH@Z 0041f6c0 f   WebCamDlg.obj
 0001:0001e7b0       ?PostNcDestroy@CFileManagerDlg@@MAEXXZ 0041f7b0 f   WebCamDlg.obj
 0001:0001e7b0       ?PostNcDestroy@CWebCamDlg@@MAEXXZ 0041f7b0 f   WebCamDlg.obj
 0001:0001e7b0       ?PostNcDestroy@CKeyBoardDlg@@MAEXXZ 0041f7b0 f   WebCamDlg.obj
 0001:0001e7b0       ?PostNcDestroy@CScreenSpyDlg@@MAEXXZ 0041f7b0 f   WebCamDlg.obj
 0001:0001e7d0       ??0CWinXPButtonST@@QAE@XZ  0041f7d0 f   WinXPButtonST.obj
 0001:0001e7f0       ??_ECWinXPButtonST@@UAEPAXI@Z 0041f7f0 f i WinXPButtonST.obj
 0001:0001e7f0       ??_GCWinXPButtonST@@UAEPAXI@Z 0041f7f0 f i WinXPButtonST.obj
 0001:0001e810       ??1CWinXPButtonST@@UAE@XZ  0041f810 f   WinXPButtonST.obj
 0001:0001e820       ?OnDrawBorder@CWinXPButtonST@@MAEKPAVCDC@@PAVCRect@@@Z 0041f820 f   WinXPButtonST.obj
 0001:0001e830       ?OnDrawBackground@CWinXPButtonST@@MAEKPAVCDC@@PAVCRect@@@Z 0041f830 f   WinXPButtonST.obj
 0001:0001e970       ??_GCPen@@UAEPAXI@Z        0041f970 f i WinXPButtonST.obj
 0001:0001e970       ??_ECPen@@UAEPAXI@Z        0041f970 f i WinXPButtonST.obj
 0001:0001e990       _compress2                 0041f990 f   zlib:compress.obj
 0001:0001ea40       _compress                  0041fa40 f   zlib:compress.obj
 0001:0001ea60       _uncompress                0041fa60 f   zlib:uncompr.obj
 0001:0001eb00       _deflateInit_              0041fb00 f   zlib:deflate.obj
 0001:0001eb30       _deflateInit2_             0041fb30 f   zlib:deflate.obj
 0001:0001ed30       _deflateReset              0041fd30 f   zlib:deflate.obj
 0001:0001edb0       _deflate                   0041fdb0 f   zlib:deflate.obj
 0001:0001f110       _deflateEnd                00420110 f   zlib:deflate.obj
 0001:0001fe40       _inflateReset              00420e40 f   zlib:inflate.obj
 0001:0001fe90       _inflateEnd                00420e90 f   zlib:inflate.obj
 0001:0001fee0       _inflateInit2_             00420ee0 f   zlib:inflate.obj
 0001:0001fff0       _inflateInit_              00420ff0 f   zlib:inflate.obj
 0001:00020010       _inflate                   00421010 f   zlib:inflate.obj
 0001:00020440       _zcalloc                   00421440 f   zlib:zutil.obj
 0001:00020460       _zcfree                    00421460 f   zlib:zutil.obj
 0001:00020470       _adler32                   00421470 f   zlib:adler32.obj
 0001:000205a0       __tr_init                  004215a0 f   zlib:trees.obj
 0001:00020690       __tr_stored_block          00421690 f   zlib:trees.obj
 0001:00020730       __tr_align                 00421730 f   zlib:trees.obj
 0001:00020990       __tr_flush_block           00421990 f   zlib:trees.obj
 0001:00022130       _inflate_blocks_reset      00423130 f   zlib:infblock.obj
 0001:000221b0       _inflate_blocks_new        004231b0 f   zlib:infblock.obj
 0001:00022250       _inflate_blocks            00423250 f   zlib:infblock.obj
 0001:00022f60       _inflate_blocks_free       00423f60 f   zlib:infblock.obj
 0001:00022fa0       _inflate_codes_new         00423fa0 f   zlib:infcodes.obj
 0001:00022fe0       _inflate_codes             00423fe0 f   zlib:infcodes.obj
 0001:00023790       _inflate_codes_free        00424790 f   zlib:infcodes.obj
 0001:000237b0       _inflate_trees_bits        004247b0 f   zlib:inftrees.obj
 0001:00023d20       _inflate_trees_dynamic     00424d20 f   zlib:inftrees.obj
 0001:00023eb0       _inflate_trees_fixed       00424eb0 f   zlib:inftrees.obj
 0001:00023ee0       _inflate_flush             00424ee0 f   zlib:infutil.obj
 0001:00024020       _inflate_fast              00425020 f   zlib:inffast.obj
 0001:000243f0       ?AfxGetMainWnd@@YGPAVCWnd@@XZ 004253f0 f i nafxcw:dlgcore.obj
 0001:00024404       ??_9@$BME@AE               00425404 f i nafxcw:dlgcore.obj
 0001:0002440c       ??_9@$BMI@AE               0042540c f i nafxcw:dlgcore.obj
 0001:00024414       _InitMultipleMonitorStubs  00425414 f   nafxcw:wincore.obj
 0001:000244ec       _xMonitorFromRect@8        004254ec f   nafxcw:wincore.obj
 0001:00024542       _xMonitorFromWindow@8      00425542 f   nafxcw:wincore.obj
 0001:000245ad       _xGetMonitorInfo@8         004255ad f   nafxcw:wincore.obj
 0001:00024640       ?GetOwner@CWnd@@QBEPAV1@XZ 00425640 f i nafxcw:wincore.obj
 0001:00024657       ??1CWaitCursor@@QAE@XZ     00425657 f i nafxcw:wincore.obj
 0001:00024664       ??0CResourceException@@QAE@HI@Z 00425664 f i nafxcw:wingdi.obj
 0001:0002468e       ??_ECResourceException@@UAEPAXI@Z 0042568e f i nafxcw:wingdi.obj
 0001:0002468e       ??_GCResourceException@@UAEPAXI@Z 0042568e f i nafxcw:wingdi.obj
 0001:000246aa       ??1CResourceException@@UAE@XZ 004256aa f i nafxcw:wingdi.obj
 0001:000246b1       ??0CUserException@@QAE@HI@Z 004256b1 f i nafxcw:wingdi.obj
 0001:000246db       ??_ECUserException@@UAEPAXI@Z 004256db f i nafxcw:wingdi.obj
 0001:000246db       ??_GCUserException@@UAEPAXI@Z 004256db f i nafxcw:wingdi.obj
 0001:000246f7       ??1CUserException@@UAE@XZ  004256f7 f i nafxcw:wingdi.obj
 0001:000246fe       ??_ECBrush@@UAEPAXI@Z      004256fe f i nafxcw:wingdi.obj
 0001:000246fe       ??_GCBrush@@UAEPAXI@Z      004256fe f i nafxcw:wingdi.obj
 0001:0002471a       ?PtVisible@CDC@@UBEHHH@Z   0042571a f i nafxcw:wingdi.obj
 0001:0002472e       ?RectVisible@CDC@@UBEHPBUtagRECT@@@Z 0042572e f i nafxcw:wingdi.obj
 0001:0002473e       ?TextOutA@CDC@@UAEHHHPBDH@Z 0042573e f i nafxcw:wingdi.obj
 0001:0002475a       ?ExtTextOutA@CDC@@UAEHHHIPBUtagRECT@@PBDIPAH@Z 0042575a f i nafxcw:wingdi.obj
 0001:0002477f       ?TabbedTextOutA@CDC@@UAE?AVCSize@@HHPBDHHPAHH@Z 0042577f f i nafxcw:wingdi.obj
 0001:000247b7       ?DrawTextA@CDC@@UAEHPBDHPAUtagRECT@@I@Z 004257b7 f i nafxcw:wingdi.obj
 0001:000247d3       ?GrayStringA@CDC@@UAEHPAVCBrush@@P6GHPAUHDC__@@JH@ZJHHHHH@Z 004257d3 f i nafxcw:wingdi.obj
 0001:00024803       ?Escape@CDC@@UAEHHHPBDPAX@Z 00425803 f i nafxcw:wingdi.obj
 0001:0002481f       ??1CException@@UAE@XZ      0042581f f i nafxcw:filecore.obj
 0001:0002481f       ??1CNoTrackObject@@UAE@XZ  0042581f f i nafxcw:filecore.obj
 0001:0002481f       ??1COccManager@@UAE@XZ     0042581f f i nafxcw:filecore.obj
 0001:00024820       ??_GCFileException@@UAEPAXI@Z 00425820 f i nafxcw:filecore.obj
 0001:00024820       ??_ECFileException@@UAEPAXI@Z 00425820 f i nafxcw:filecore.obj
 0001:0002483c       ??1CFileException@@UAE@XZ  0042583c f i nafxcw:filecore.obj
 0001:00024868       ?SetFilePath@CFile@@UAEXPBD@Z 00425868 f i nafxcw:filecore.obj
 0001:00024877       ??_9@$BOA@AE               00425877 f i nafxcw:viewcore.obj
 0001:0002487f       ??1CPushRoutingView@@QAE@XZ 0042587f f i nafxcw:viewcore.obj
 0001:0002488b       ??0CMemoryException@@QAE@HI@Z 0042588b f i nafxcw:except.obj
 0001:000248b5       ??_GCMemoryException@@UAEPAXI@Z 004258b5 f i nafxcw:except.obj
 0001:000248b5       ??_ECMemoryException@@UAEPAXI@Z 004258b5 f i nafxcw:except.obj
 0001:000248d1       ??1CMemoryException@@UAE@XZ 004258d1 f i nafxcw:except.obj
 0001:000248d8       ??0CNotSupportedException@@QAE@HI@Z 004258d8 f i nafxcw:except.obj
 0001:00024902       ??_ECNotSupportedException@@UAEPAXI@Z 00425902 f i nafxcw:except.obj
 0001:00024902       ??_GCNotSupportedException@@UAEPAXI@Z 00425902 f i nafxcw:except.obj
 0001:0002491e       ??1CNotSupportedException@@UAE@XZ 0042591e f i nafxcw:except.obj
 0001:00024925       ??6CArchive@@QAEAAV0@E@Z   00425925 f i nafxcw:arccore.obj
 0001:00024948       ??6CArchive@@QAEAAV0@G@Z   00425948 f i nafxcw:arccore.obj
 0001:0002496f       ??6CArchive@@QAEAAV0@K@Z   0042596f f i nafxcw:arccore.obj
 0001:00024995       ??5CArchive@@QAEAAV0@AAE@Z 00425995 f i nafxcw:arccore.obj
 0001:000249c4       ??5CArchive@@QAEAAV0@AAG@Z 004259c4 f i nafxcw:arccore.obj
 0001:000249f7       ??5CArchive@@QAEAAV0@AAK@Z 004259f7 f i nafxcw:arccore.obj
 0001:00024a29       ??_GCHeaderCtrl@@UAEPAXI@Z 00425a29 f i nafxcw:winctrl2.obj
 0001:00024a29       ??_ECHeaderCtrl@@UAEPAXI@Z 00425a29 f i nafxcw:winctrl2.obj
 0001:00024a45       ??0CFileFind@@QAE@XZ       00425a45 f   nafxcw:filefind.obj
 0001:00024a66       ??_ECFileFind@@UAEPAXI@Z   00425a66 f i nafxcw:filefind.obj
 0001:00024a66       ??_GCFileFind@@UAEPAXI@Z   00425a66 f i nafxcw:filefind.obj
 0001:00024a82       ??1CFileFind@@UAE@XZ       00425a82 f   nafxcw:filefind.obj
 0001:00024abe       ?Close@CFileFind@@QAEXXZ   00425abe f   nafxcw:filefind.obj
 0001:00024afe       ?CloseContext@CFileFind@@MAEXXZ 00425afe f   nafxcw:filefind.obj
 0001:00024b08       ?FindFile@CFileFind@@UAEHPBDK@Z 00425b08 f   nafxcw:filefind.obj
 0001:00024be8       ?MatchesMask@CFileFind@@UBEHK@Z 00425be8 f   nafxcw:filefind.obj
 0001:00024c02       ?GetLastAccessTime@CFileFind@@UBEHPAU_FILETIME@@@Z 00425c02 f   nafxcw:filefind.obj
 0001:00024c26       ?GetLastWriteTime@CFileFind@@UBEHPAU_FILETIME@@@Z 00425c26 f   nafxcw:filefind.obj
 0001:00024c4a       ?GetCreationTime@CFileFind@@UBEHPAU_FILETIME@@@Z 00425c4a f   nafxcw:filefind.obj
 0001:00024c6e       ?GetLastAccessTime@CFileFind@@UBEHAAVCTime@@@Z 00425c6e f   nafxcw:filefind.obj
 0001:00024c99       ?GetLastWriteTime@CFileFind@@UBEHAAVCTime@@@Z 00425c99 f   nafxcw:filefind.obj
 0001:00024cc4       ?GetCreationTime@CFileFind@@UBEHAAVCTime@@@Z 00425cc4 f   nafxcw:filefind.obj
 0001:00024cef       ?IsDots@CFileFind@@UBEHXZ  00425cef f   nafxcw:filefind.obj
 0001:00024d28       ?FindNextFileA@CFileFind@@UAEHXZ 00425d28 f   nafxcw:filefind.obj
 0001:00024d63       ?GetFileURL@CFileFind@@UBE?AVCString@@XZ 00425d63 f   nafxcw:filefind.obj
 0001:00024ddc       ?GetRoot@CFileFind@@UBE?AVCString@@XZ 00425ddc f   nafxcw:filefind.obj
 0001:00024df7       ?GetFilePath@CFileFind@@UBE?AVCString@@XZ 00425df7 f   nafxcw:filefind.obj
 0001:00024e8f       ?GetFileTitle@CFileFind@@UBE?AVCString@@XZ 00425e8f f   nafxcw:filefind.obj
 0001:00024f20       ?GetFileName@CFileFind@@UBE?AVCString@@XZ 00425f20 f   nafxcw:filefind.obj
 0001:00024f7f       ?GetLength@CFileFind@@QBEKXZ 00425f7f f   nafxcw:filefind.obj
 0001:00024fae       ??1?$CProcessLocal@VCOccManager@@@@QAE@XZ 00425fae f i nafxcw:occmgr.obj
 0001:00024fb3       ?AfxEnableControlContainer@@YAXPAVCOccManager@@@Z 00425fb3 f   nafxcw:occmgr.obj
 0001:00024fda       ?_AfxFindFirstDlgItem@@YGPAUDLGITEMTEMPLATE@@PBUDLGTEMPLATE@@@Z 00425fda f   nafxcw:occmgr.obj
 0001:00025060       ?_AfxFindNextDlgItem@@YGPAUDLGITEMTEMPLATE@@PAU1@H@Z 00426060 f   nafxcw:occmgr.obj
 0001:000250b4       ?OnEvent@COccManager@@UAEHPAVCCmdTarget@@IPAUAFX_EVENT@@PAUAFX_CMDHANDLERINFO@@@Z 004260b4 f   nafxcw:occmgr.obj
 0001:000250cc       ?CreateContainer@COccManager@@UAEPAVCOleControlContainer@@PAVCWnd@@@Z 004260cc f   nafxcw:occmgr.obj
 0001:00025103       ?CreateSite@COccManager@@UAEPAVCOleControlSite@@PAVCOleControlContainer@@@Z 00426103 f   nafxcw:occmgr.obj
 0001:0002513d       ?PreCreateDialog@COccManager@@UAEPBUDLGTEMPLATE@@PAU_AFX_OCC_DIALOG_INFO@@PBU2@@Z 0042613d f   nafxcw:occmgr.obj
 0001:00025187       ?PostCreateDialog@COccManager@@UAEXPAU_AFX_OCC_DIALOG_INFO@@@Z 00426187 f   nafxcw:occmgr.obj
 0001:000251ab       ?SplitDialogTemplate@COccManager@@UAEPAUDLGTEMPLATE@@PBU2@PAPAUDLGITEMTEMPLATE@@@Z 004261ab f   nafxcw:occmgr.obj
 0001:000252ea       ?CreateDlgControls@COccManager@@UAEHPAVCWnd@@PBDPAU_AFX_OCC_DIALOG_INFO@@@Z 004262ea f   nafxcw:occmgr.obj
 0001:00025345       ?CreateDlgControls@COccManager@@UAEHPAVCWnd@@PAXPAU_AFX_OCC_DIALOG_INFO@@@Z 00426345 f   nafxcw:occmgr.obj
 0001:000254a0       ?BindControls@COccManager@@IAEXPAVCWnd@@@Z 004264a0 f   nafxcw:occmgr.obj
 0001:000255bb       ?CreateDlgControl@COccManager@@IAEPAUHWND__@@PAVCWnd@@PAU2@HPAUDLGITEMTEMPLATE@@GPAEK@Z 004265bb f   nafxcw:occmgr.obj
 0001:00025886       ?CreateObject@?$CProcessLocal@VCOccManager@@@@SGPAVCNoTrackObject@@XZ 00426886 f i nafxcw:occmgr.obj
 0001:0002589b       ??_ECOccManager@@UAEPAXI@Z 0042689b f i nafxcw:occmgr.obj
 0001:0002589b       ??_GCOccManager@@UAEPAXI@Z 0042689b f i nafxcw:occmgr.obj
 0001:000258b6       ??_GCListView@@UAEPAXI@Z   004268b6 f i nafxcw:viewcmn.obj
 0001:000258b6       ??_ECListView@@UAEPAXI@Z   004268b6 f i nafxcw:viewcmn.obj
 0001:000258d2       ??1CListView@@UAE@XZ       004268d2 f i nafxcw:viewcmn.obj
 0001:00025907       ??1CPushRoutingFrame@@QAE@XZ 00426907 f i nafxcw:winfrm.obj
 0001:00025913       ??0CPoint@@QAE@K@Z         00426913 f i nafxcw:barcore.obj
 0001:0002592a       ?OnCancelMode@CWnd@@IAEXXZ 0042692a f i nafxcw:barcore.obj
 0001:0002592f       ?OnEraseBkgnd@CWnd@@IAEHPAVCDC@@@Z 0042692f f i nafxcw:barcore.obj
 0001:00025937       ?OnShowWindow@CWnd@@IAEXHI@Z 00426937 f i nafxcw:barcore.obj
 0001:0002593f       ??_GCHandleMap@@UAEPAXI@Z  0042693f f i nafxcw:winhand.obj
 0001:0002593f       ??_ECHandleMap@@UAEPAXI@Z  0042693f f i nafxcw:winhand.obj
 0001:0002595b       ??1CHandleMap@@UAE@XZ      0042695b f i nafxcw:winhand.obj
 0001:000259a3       ??0CFixedAlloc@@QAE@II@Z   004269a3 f   nafxcw:fixalloc.obj
 0001:000259cb       ??1CFixedAlloc@@QAE@XZ     004269cb f   nafxcw:fixalloc.obj
 0001:000259df       ?FreeAll@CFixedAlloc@@QAEXXZ 004269df f   nafxcw:fixalloc.obj
 0001:00025a07       ?Alloc@CFixedAlloc@@QAEPAXXZ 00426a07 f   nafxcw:fixalloc.obj
 0001:00025a96       ?Free@CFixedAlloc@@QAEXPAX@Z 00426a96 f   nafxcw:fixalloc.obj
 0001:00025ac2       ??_ECArchiveException@@UAEPAXI@Z 00426ac2 f i nafxcw:arcex.obj
 0001:00025ac2       ??_GCArchiveException@@UAEPAXI@Z 00426ac2 f i nafxcw:arcex.obj
 0001:00025ade       ??1CArchiveException@@UAE@XZ 00426ade f i nafxcw:arcex.obj
 0001:00025b0a       ?OnEvent@CCmdTarget@@QAEHIPAUAFX_EVENT@@PAUAFX_CMDHANDLERINFO@@@Z 00426b0a f   nafxcw:occevent.obj
 0001:00025d1c       ?GetEventSinkEntry@CCmdTarget@@IAGPBUAFX_EVENTSINKMAP_ENTRY@@IPAUAFX_EVENT@@@Z 00426d1c f   nafxcw:occevent.obj
 0001:00025d91       ?InitControlContainer@CWnd@@IAEHXZ 00426d91 f   nafxcw:occcont.obj
 0001:00025e3a       ?GetInterfaceMap@COleControlContainer@@MBEPBUAFX_INTERFACEMAP@@XZ 00426e3a f   nafxcw:occcont.obj
 0001:00025e40       ?GetDispatchMap@COleControlContainer@@MBEPBUAFX_DISPMAP@@XZ 00426e40 f   nafxcw:occcont.obj
 0001:00025e46       ??0COleControlContainer@@QAE@PAVCWnd@@@Z 00426e46 f   nafxcw:occcont.obj
 0001:00025ea5       ??_GCOleControlContainer@@UAEPAXI@Z 00426ea5 f i nafxcw:occcont.obj
 0001:00025ea5       ??_ECOleControlContainer@@UAEPAXI@Z 00426ea5 f i nafxcw:occcont.obj
 0001:00025ec1       ??1COleControlContainer@@UAE@XZ 00426ec1 f   nafxcw:occcont.obj
 0001:00025f9f       ?CreateControl@COleControlContainer@@QAEHPAVCWnd@@ABU_GUID@@PBDKABUtagRECT@@IPAVCFile@@HPAGPAPAVCOleControlSite@@@Z 00426f9f f   nafxcw:occcont.obj
 0001:00026000       ?CreateControl@COleControlContainer@@QAEHPAVCWnd@@ABU_GUID@@PBDKPBUtagPOINT@@PBUtagSIZE@@IPAVCFile@@HPAGPAPAVCOleControlSite@@@Z 00427000 f   nafxcw:occcont.obj
 0001:000260bb       ?FindItem@COleControlContainer@@UBEPAVCOleControlSite@@I@Z 004270bb f   nafxcw:occcont.obj
 0001:00026105       ?GetAmbientProp@COleControlContainer@@UAEHPAVCOleControlSite@@JPAUtagVARIANT@@@Z 00427105 f   nafxcw:occcont.obj
 0001:0002630d       ?CreateOleFont@COleControlContainer@@QAEXPAVCFont@@@Z 0042730d f   nafxcw:occcont.obj
 0001:00026486       ?FreezeAllEvents@COleControlContainer@@QAEXH@Z 00427486 f   nafxcw:occcont.obj
 0001:000264c7       ?ScrollChildren@COleControlContainer@@UAEXHH@Z 004274c7 f   nafxcw:occcont.obj
 0001:00026521       ?OnUIActivate@COleControlContainer@@UAEXPAVCOleControlSite@@@Z 00427521 f   nafxcw:occcont.obj
 0001:0002653f       ?OnUIDeactivate@COleControlContainer@@UAEXPAVCOleControlSite@@@Z 0042753f f   nafxcw:occcont.obj
 0001:0002654f       ?CheckDlgButton@COleControlContainer@@UAEXHI@Z 0042754f f   nafxcw:occcont.obj
 0001:0002658c       ?CheckRadioButton@COleControlContainer@@UAEXHHH@Z 0042758c f   nafxcw:occcont.obj
 0001:000265b4       ?GetDlgItem@COleControlContainer@@UBEPAVCWnd@@H@Z 004275b4 f   nafxcw:occcont.obj
 0001:000265cf       ?GetDlgItem@COleControlContainer@@UBEXHPAPAUHWND__@@@Z 004275cf f   nafxcw:occcont.obj
 0001:0002660b       ?GetDlgItemInt@COleControlContainer@@UBEIHPAHH@Z 0042760b f   nafxcw:occcont.obj
 0001:000266b9       ?GetDlgItemTextA@COleControlContainer@@UBEHHPADH@Z 004276b9 f   nafxcw:occcont.obj
 0001:000266d8       ?SendDlgItemMessageA@COleControlContainer@@UAEJHIIJ@Z 004276d8 f   nafxcw:occcont.obj
 0001:000266fd       ?SetDlgItemInt@COleControlContainer@@UAEXHIH@Z 004276fd f   nafxcw:occcont.obj
 0001:0002673a       ?SetDlgItemTextA@COleControlContainer@@UAEXHPBD@Z 0042773a f   nafxcw:occcont.obj
 0001:00026755       ?IsDlgButtonChecked@COleControlContainer@@UBEIH@Z 00427755 f   nafxcw:occcont.obj
 0001:000267d1       ?QueryInterface@XOleIPFrame@COleControlContainer@@UAGJABU_GUID@@PAPAX@Z 004277d1 f   nafxcw:occcont.obj
 0001:000267e8       ?AddRef@XOleIPFrame@COleControlContainer@@UAGKXZ 004277e8 f   nafxcw:occcont.obj
 0001:000267f9       ?Release@XOleIPFrame@COleControlContainer@@UAGKXZ 004277f9 f   nafxcw:occcont.obj
 0001:00026808       ?GetWindow@XOleIPFrame@COleControlContainer@@UAGJPAPAUHWND__@@@Z 00427808 f   nafxcw:occcont.obj
 0001:0002681d       ?RequestBorderSpace@XOleIPFrame@COleControlContainer@@UAGJPBUtagRECT@@@Z 0042781d f   nafxcw:occcont.obj
 0001:0002681d       ?GetTypeInfoCount@XAmbientProps@COleControlSite@@UAGJPAI@Z 0042781d f   nafxcw:occcont.obj
 0001:0002681d       ?RemoveMenus@XOleIPFrame@COleControlContainer@@UAGJPAUHMENU__@@@Z 0042781d f   nafxcw:occcont.obj
 0001:0002681d       ?SetBorderSpace@XOleIPFrame@COleControlContainer@@UAGJPBUtagRECT@@@Z 0042781d f   nafxcw:occcont.obj
 0001:0002681d       ?ContextSensitiveHelp@XOleIPSite@COleControlSite@@UAGJH@Z 0042781d f   nafxcw:occcont.obj
 0001:0002681d       ?ContextSensitiveHelp@XOleIPFrame@COleControlContainer@@UAGJH@Z 0042781d f   nafxcw:occcont.obj
 0001:0002681d       ?LockInPlaceActive@XOleControlSite@COleControlSite@@UAGJH@Z 0042781d f   nafxcw:occcont.obj
 0001:0002681d       ?GetExtendedControl@XOleControlSite@COleControlSite@@UAGJPAPAUIDispatch@@@Z 0042781d f   nafxcw:occcont.obj
 0001:0002681d       ?GetTypeInfoCount@XEventSink@COleControlSite@@UAGJPAI@Z 0042781d f   nafxcw:occcont.obj
 0001:0002681d       ?GetBorder@XOleIPFrame@COleControlContainer@@UAGJPAUtagRECT@@@Z 0042781d f   nafxcw:occcont.obj
 0001:0002681d       ?LockContainer@XOleContainer@COleControlContainer@@UAGJH@Z 0042781d f   nafxcw:occcont.obj
 0001:0002681d       ?SetStatusText@XOleIPFrame@COleControlContainer@@UAGJPBG@Z 0042781d f   nafxcw:occcont.obj
 0001:00026825       ?SetActiveObject@XOleIPFrame@COleControlContainer@@UAGJPAUIOleInPlaceActiveObject@@PBG@Z 00427825 f   nafxcw:occcont.obj
 0001:0002685c       ?TranslateAcceleratorA@XOleIPFrame@COleControlContainer@@UAGJPAUtagMSG@@G@Z 0042785c f   nafxcw:occcont.obj
 0001:0002685c       ?TranslateAcceleratorA@XOleControlSite@COleControlSite@@UAGJPAUtagMSG@@K@Z 0042785c f   nafxcw:occcont.obj
 0001:0002685c       ?InsertMenus@XOleIPFrame@COleControlContainer@@UAGJPAUHMENU__@@PAUtagOleMenuGroupWidths@@@Z 0042785c f   nafxcw:occcont.obj
 0001:00026864       ?GetInterfaceMap@CEnumUnknown@@MBEPBUAFX_INTERFACEMAP@@XZ 00427864 f   nafxcw:occcont.obj
 0001:0002686a       ??1CEnumUnknown@@UAE@XZ    0042786a f   nafxcw:occcont.obj
 0001:000268c0       ??_GCEnumUnknown@@UAEPAXI@Z 004278c0 f i nafxcw:occcont.obj
 0001:000268c0       ??_ECEnumUnknown@@UAEPAXI@Z 004278c0 f i nafxcw:occcont.obj
 0001:000268dc       ?OnNext@CEnumUnknown@@MAEHPAX@Z 004278dc f   nafxcw:occcont.obj
 0001:000268fa       ?QueryInterface@XOleContainer@COleControlContainer@@UAGJABU_GUID@@PAPAX@Z 004278fa f   nafxcw:occcont.obj
 0001:00026911       ?Release@XOleContainer@COleControlContainer@@UAGKXZ 00427911 f   nafxcw:occcont.obj
 0001:00026920       ?AddRef@XOleContainer@COleControlContainer@@UAGKXZ 00427920 f   nafxcw:occcont.obj
 0001:00026931       ?ParseDisplayName@XOleContainer@COleControlContainer@@UAGJPAUIBindCtx@@PAGPAKPAPAUIMoniker@@@Z 00427931 f   nafxcw:occcont.obj
 0001:00026939       ?EnumObjects@XOleContainer@COleControlContainer@@UAGJKPAPAUIEnumUnknown@@@Z 00427939 f   nafxcw:occcont.obj
 0001:00026a47       ?GetFont@CWnd@@QBEPAVCFont@@XZ 00427a47 f i nafxcw:occcont.obj
 0001:00026a5d       ?GetInterfaceMap@COleControlSite@@MBEPBUAFX_INTERFACEMAP@@XZ 00427a5d f   nafxcw:occsite.obj
 0001:00026a63       ??0COleControlSite@@QAE@PAVCOleControlContainer@@@Z 00427a63 f   nafxcw:occsite.obj
 0001:00026b6a       ??_GCOleControlSite@@UAEPAXI@Z 00427b6a f i nafxcw:occsite.obj
 0001:00026b6a       ??_ECOleControlSite@@UAEPAXI@Z 00427b6a f i nafxcw:occsite.obj
 0001:00026b86       ??1COleControlSite@@UAE@XZ 00427b86 f   nafxcw:occsite.obj
 0001:00026cb2       ?SetExtent@COleControlSite@@IAEHXZ 00427cb2 f   nafxcw:occsite.obj
 0001:00026d5a       ?CreateControl@COleControlSite@@QAEJPAVCWnd@@ABU_GUID@@PBDKPBUtagPOINT@@PBUtagSIZE@@IPAVCFile@@HPAG@Z 00427d5a f   nafxcw:occsite.obj
 0001:00026ff7       ?DestroyControl@COleControlSite@@UAEHXZ 00427ff7 f   nafxcw:occsite.obj
 0001:00027026       ?_AfxCoCreateInstanceLic@@YGJABU_GUID@@PAUIUnknown@@K0PAPAXPAG@Z 00428026 f   nafxcw:occsite.obj
 0001:000270b3       ?QuickActivate@COleControlSite@@UAEHXZ 004280b3 f   nafxcw:occsite.obj
 0001:00027254       ?CreateOrLoad@COleControlSite@@IAEJABU_GUID@@PAVCFile@@HPAG@Z 00428254 f   nafxcw:occsite.obj
 0001:0002755e       ?GetDlgCtrlID@COleControlSite@@UBEHXZ 0042855e f   nafxcw:occsite.obj
 0001:0002755e       ?GetID@COleControlSite@@QAEIXZ 0042855e f   nafxcw:occsite.obj
 0001:00027562       ?DoVerb@COleControlSite@@UAEJJPAUtagMSG@@@Z 00428562 f   nafxcw:occsite.obj
 0001:0002758e       ?IsDefaultButton@COleControlSite@@QAEHXZ 0042858e f   nafxcw:occsite.obj
 0001:0002759f       ?GetDefBtnCode@COleControlSite@@QAEKXZ 0042859f f   nafxcw:occsite.obj
 0001:000275b7       ?SetDefaultButton@COleControlSite@@QAEXH@Z 004285b7 f   nafxcw:occsite.obj
 0001:00027607       ?ConnectSink@COleControlSite@@IAEKABU_GUID@@PAUIUnknown@@@Z 00428607 f   nafxcw:occsite.obj
 0001:0002766f       ?DisconnectSink@COleControlSite@@IAEXABU_GUID@@K@Z 0042866f f   nafxcw:occsite.obj
 0001:000276cd       ?GetEventIID@COleControlSite@@QAEHPAU_GUID@@@Z 004286cd f   nafxcw:occsite.obj
 0001:00027847       ?GetControlInfo@COleControlSite@@QAEXXZ 00428847 f   nafxcw:occsite.obj
 0001:00027895       ?IsMatchingMnemonic@COleControlSite@@QAEHPAUtagMSG@@@Z 00428895 f   nafxcw:occsite.obj
 0001:00027938       ?SendMnemonic@COleControlSite@@QAEXPAUtagMSG@@@Z 00428938 f   nafxcw:occsite.obj
 0001:00027980       ?FreezeEvents@COleControlSite@@QAEXH@Z 00428980 f   nafxcw:occsite.obj
 0001:000279b6       ?AttachWindow@COleControlSite@@IAEXXZ 004289b6 f   nafxcw:occsite.obj
 0001:000279f3       ?DetachWindow@COleControlSite@@IAEXXZ 004289f3 f   nafxcw:occsite.obj
 0001:00027a41       ?OnEvent@COleControlSite@@IAEHPAUAFX_EVENT@@@Z 00428a41 f   nafxcw:occsite.obj
 0001:00027a7e       ?InvokeHelperV@COleControlSite@@UAEXJGGPAXPBEPAD@Z 00428a7e f   nafxcw:occsite.obj
 0001:00027ad4       ?SetPropertyV@COleControlSite@@UAEXJGPAD@Z 00428ad4 f   nafxcw:occsite.obj
 0001:00027b2f       ?InvokeHelper@COleControlSite@@UAAXJGGPAXPBEZZ 00428b2f f   nafxcw:occsite.obj
 0001:00027b4f       ?GetProperty@COleControlSite@@UBEXJGPAX@Z 00428b4f f   nafxcw:occsite.obj
 0001:00027b6b       ?SetProperty@COleControlSite@@UAAXJGZZ 00428b6b f   nafxcw:occsite.obj
 0001:00027b82       ?SafeSetProperty@COleControlSite@@UAAHJGZZ 00428b82 f   nafxcw:occsite.obj
 0001:00027bd5       ?GetStyle@COleControlSite@@UBEKXZ 00428bd5 f   nafxcw:occsite.obj
 0001:00027c8b       ?GetExStyle@COleControlSite@@UBEKXZ 00428c8b f   nafxcw:occsite.obj
 0001:00027cf3       ?ModifyStyle@COleControlSite@@UAEHKKI@Z 00428cf3 f   nafxcw:occsite.obj
 0001:00027d83       ?ModifyStyleEx@COleControlSite@@UAEHKKI@Z 00428d83 f   nafxcw:occsite.obj
 0001:00027dd3       ?SetWindowTextA@COleControlSite@@UAEXPBD@Z 00428dd3 f   nafxcw:occsite.obj
 0001:00027e06       ?GetWindowTextA@COleControlSite@@UBEXAAVCString@@@Z 00428e06 f   nafxcw:occsite.obj
 0001:00027e75       ?GetWindowTextA@COleControlSite@@UBEHPADH@Z 00428e75 f   nafxcw:occsite.obj
 0001:00027ed0       ?GetWindowTextLengthA@COleControlSite@@UBEHXZ 00428ed0 f   nafxcw:occsite.obj
 0001:00027f15       ?SetDlgCtrlID@COleControlSite@@UAEHH@Z 00428f15 f   nafxcw:occsite.obj
 0001:00027f22       ?MoveWindow@COleControlSite@@UAEXHHHHH@Z 00428f22 f   nafxcw:occsite.obj
 0001:00027f9c       ?SetWindowPos@COleControlSite@@UAEHPBVCWnd@@HHHHI@Z 00428f9c f   nafxcw:occsite.obj
 0001:00028051       ?ShowWindow@COleControlSite@@UAEHH@Z 00429051 f   nafxcw:occsite.obj
 0001:00028090       ?IsWindowEnabled@COleControlSite@@UBEHXZ 00429090 f   nafxcw:occsite.obj
 0001:000280de       ?EnableWindow@COleControlSite@@UAEHH@Z 004290de f   nafxcw:occsite.obj
 0001:00028147       ?SetFocus@COleControlSite@@UAEPAVCWnd@@XZ 00429147 f   nafxcw:occsite.obj
 0001:00028180       ?EnableDSC@COleControlSite@@UAEXXZ 00429180 f   nafxcw:occsite.obj
 0001:000281d4       ?BindDefaultProperty@COleControlSite@@UAEXJGPBDPAVCWnd@@@Z 004291d4 f   nafxcw:occsite.obj
 0001:00028276       ?BindProperty@COleControlSite@@UAEXJPAVCWnd@@@Z 00429276 f   nafxcw:occsite.obj
 0001:0002838c       ?AddRef@XOleClientSite@COleControlSite@@UAGKXZ 0042938c f   nafxcw:occsite.obj
 0001:0002839f       ?Release@XOleClientSite@COleControlSite@@UAGKXZ 0042939f f   nafxcw:occsite.obj
 0001:000283b1       ?QueryInterface@XOleClientSite@COleControlSite@@UAGJABU_GUID@@PAPAX@Z 004293b1 f   nafxcw:occsite.obj
 0001:000283cb       ?GetTypeInfo@XAmbientProps@COleControlSite@@UAGJIKPAPAUITypeInfo@@@Z 004293cb f   nafxcw:occsite.obj
 0001:000283cb       ?GetTypeInfo@XEventSink@COleControlSite@@UAGJIKPAPAUITypeInfo@@@Z 004293cb f   nafxcw:occsite.obj
 0001:000283cb       ?GetMoniker@XOleClientSite@COleControlSite@@UAGJKKPAPAUIMoniker@@@Z 004293cb f   nafxcw:occsite.obj
 0001:000283cb       ?SetMenu@XOleIPFrame@COleControlContainer@@UAGJPAUHMENU__@@PAXPAUHWND__@@@Z 004293cb f   nafxcw:occsite.obj
 0001:000283d3       ?GetContainer@XOleClientSite@COleControlSite@@UAGJPAPAUIOleContainer@@@Z 004293d3 f   nafxcw:occsite.obj
 0001:000283ee       ?ShowObject@XOleClientSite@COleControlSite@@UAGJXZ 004293ee f   nafxcw:occsite.obj
 0001:00028402       ?SaveObject@XOleClientSite@COleControlSite@@UAGJXZ 00429402 f   nafxcw:occsite.obj
 0001:00028402       ?ShowPropertyFrame@XOleControlSite@COleControlSite@@UAGJXZ 00429402 f   nafxcw:occsite.obj
 0001:00028402       ?RequestNewObjectLayout@XOleClientSite@COleControlSite@@UAGJXZ 00429402 f   nafxcw:occsite.obj
 0001:0002840a       ?AddRef@XOleIPSite@COleControlSite@@UAGKXZ 0042940a f   nafxcw:occsite.obj
 0001:0002841d       ?Release@XOleIPSite@COleControlSite@@UAGKXZ 0042941d f   nafxcw:occsite.obj
 0001:0002842f       ?QueryInterface@XOleIPSite@COleControlSite@@UAGJABU_GUID@@PAPAX@Z 0042942f f   nafxcw:occsite.obj
 0001:00028449       ?GetWindow@XOleIPSite@COleControlSite@@UAGJPAPAUHWND__@@@Z 00429449 f   nafxcw:occsite.obj
 0001:00028474       ?OnUIActivate@XOleIPSite@COleControlSite@@UAGJXZ 00429474 f   nafxcw:occsite.obj
 0001:0002848b       ?GetWindowContext@XOleIPSite@COleControlSite@@UAGJPAPAUIOleInPlaceFrame@@PAPAUIOleInPlaceUIWindow@@PAUtagRECT@@2PAUtagOIFI@@@Z 0042948b f   nafxcw:occsite.obj
 0001:00028503       ?Scroll@XOleIPSite@COleControlSite@@UAGJUtagSIZE@@@Z 00429503 f   nafxcw:occsite.obj
 0001:00028509       ?OnUIDeactivate@XOleIPSite@COleControlSite@@UAGJH@Z 00429509 f   nafxcw:occsite.obj
 0001:00028520       ?OnInPlaceDeactivate@XOleIPSite@COleControlSite@@UAGJXZ 00429520 f   nafxcw:occsite.obj
 0001:00028534       ?DeactivateAndUndo@XOleIPSite@COleControlSite@@UAGJXZ 00429534 f   nafxcw:occsite.obj
 0001:00028546       ?OnPosRectChange@XOleIPSite@COleControlSite@@UAGJPBUtagRECT@@@Z 00429546 f   nafxcw:occsite.obj
 0001:00028599       ?AddRef@XOleControlSite@COleControlSite@@UAGKXZ 00429599 f   nafxcw:occsite.obj
 0001:000285ac       ?Release@XOleControlSite@COleControlSite@@UAGKXZ 004295ac f   nafxcw:occsite.obj
 0001:000285be       ?QueryInterface@XOleControlSite@COleControlSite@@UAGJABU_GUID@@PAPAX@Z 004295be f   nafxcw:occsite.obj
 0001:000285d8       ?OnControlInfoChanged@XOleControlSite@COleControlSite@@UAGJXZ 004295d8 f   nafxcw:occsite.obj
 0001:000285ec       ?TransformCoords@XOleControlSite@COleControlSite@@UAGJPAU_POINTL@@PAUtagPOINTF@@K@Z 004295ec f   nafxcw:occsite.obj
 0001:000286ee       ?EnableModeless@XOleIPFrame@COleControlContainer@@UAGJH@Z 004296ee f   nafxcw:occsite.obj
 0001:000286ee       ?OnFocus@XOleControlSite@COleControlSite@@UAGJH@Z 004296ee f   nafxcw:occsite.obj
 0001:000286ee       ?OnShowWindow@XOleClientSite@COleControlSite@@UAGJH@Z 004296ee f   nafxcw:occsite.obj
 0001:000286f3       ?AddRef@XAmbientProps@COleControlSite@@UAGKXZ 004296f3 f   nafxcw:occsite.obj
 0001:00028706       ?Release@XAmbientProps@COleControlSite@@UAGKXZ 00429706 f   nafxcw:occsite.obj
 0001:00028718       ?QueryInterface@XAmbientProps@COleControlSite@@UAGJABU_GUID@@PAPAX@Z 00429718 f   nafxcw:occsite.obj
 0001:00028732       ?Invoke@XAmbientProps@COleControlSite@@UAGJJABU_GUID@@KGPAUtagDISPPARAMS@@PAUtagVARIANT@@PAUtagEXCEPINFO@@PAI@Z 00429732 f   nafxcw:occsite.obj
 0001:00028763       ?QueryInterface@XPropertyNotifySink@COleControlSite@@UAGJABU_GUID@@PAPAX@Z 00429763 f   nafxcw:occsite.obj
 0001:000287ad       ?CanInPlaceActivate@XOleIPSite@COleControlSite@@UAGJXZ 004297ad f   nafxcw:occsite.obj
 0001:000287ad       ?Release@XNotifyDBEvents@COleControlSite@@UAGKXZ 004297ad f   nafxcw:occsite.obj
 0001:000287ad       ?DiscardUndoState@XOleIPSite@COleControlSite@@UAGJXZ 004297ad f   nafxcw:occsite.obj
 0001:000287ad       ?Release@XRowsetNotify@COleControlSite@@UAGKXZ 004297ad f   nafxcw:occsite.obj
 0001:000287ad       ?Release@XEventSink@COleControlSite@@UAGKXZ 004297ad f   nafxcw:occsite.obj
 0001:000287ad       ?Release@XPropertyNotifySink@COleControlSite@@UAGKXZ 004297ad f   nafxcw:occsite.obj
 0001:000287ad       ?OnInPlaceActivate@XOleIPSite@COleControlSite@@UAGJXZ 004297ad f   nafxcw:occsite.obj
 0001:000287b2       ?OnChanged@XPropertyNotifySink@COleControlSite@@UAGJJ@Z 004297b2 f   nafxcw:occsite.obj
 0001:000288c8       ?OnRequestEdit@XPropertyNotifySink@COleControlSite@@UAGJJ@Z 004298c8 f   nafxcw:occsite.obj
 0001:0002891d       ?QueryInterface@XEventSink@COleControlSite@@UAGJABU_GUID@@PAPAX@Z 0042991d f   nafxcw:occsite.obj
 0001:00028981       ?GetIDsOfNames@XEventSink@COleControlSite@@UAGJABU_GUID@@PAPAGIKPAJ@Z 00429981 f   nafxcw:occsite.obj
 0001:00028981       ?GetIDsOfNames@XAmbientProps@COleControlSite@@UAGJABU_GUID@@PAPAGIKPAJ@Z 00429981 f   nafxcw:occsite.obj
 0001:00028989       ?Invoke@XEventSink@COleControlSite@@UAGJJABU_GUID@@KGPAUtagDISPPARAMS@@PAUtagVARIANT@@PAUtagEXCEPINFO@@PAI@Z 00429989 f   nafxcw:occsite.obj
 0001:000289de       ??0CDataSourceControl@@QAE@PAVCOleControlSite@@@Z 004299de f   nafxcw:occsite.obj
 0001:00028a2c       ??1CDataSourceControl@@QAE@XZ 00429a2c f   nafxcw:occsite.obj
 0001:00028c0c       ?ReleaseAccessors@CAccessorBase@ATL@@QAEJPAUIUnknown@@@Z 00429c0c f i nafxcw:occsite.obj
 0001:00028c93       ??1CRowset@ATL@@QAE@XZ     00429c93 f i nafxcw:occsite.obj
 0001:00028cde       ?Close@CRowset@ATL@@QAEXXZ 00429cde f i nafxcw:occsite.obj
 0001:00028d0d       ?ReleaseRows@CRowset@ATL@@QAEJXZ 00429d0d f i nafxcw:occsite.obj
 0001:00028d2d       ?Close@CDynamicAccessor@ATL@@QAEXXZ 00429d2d f i nafxcw:occsite.obj
 0001:00028d67       ?Initialize@CDataSourceControl@@QAEJXZ 00429d67 f   nafxcw:occsite.obj
 0001:00028f09       ?GetCursor@CDataSourceControl@@UAEPAUIUnknown@@XZ 00429f09 f   nafxcw:occsite.obj
 0001:00028f72       ?GetMetaData@CDataSourceControl@@QAEJXZ 00429f72 f   nafxcw:occsite.obj
 0001:00029292       ??0CRowset@ATL@@QAE@PAUIRowset@@@Z 0042a292 f i nafxcw:occsite.obj
 0001:000292e3       ?MoveFirst@CRowset@ATL@@QAEJXZ 0042a2e3 f i nafxcw:occsite.obj
 0001:00029306       ?MoveNext@CRowset@ATL@@QAEJJ_N@Z 0042a306 f i nafxcw:occsite.obj
 0001:0002935f       ?GetData@CRowset@ATL@@QAEJXZ 0042a35f f i nafxcw:occsite.obj
 0001:00029393       ?GetData@CRowset@ATL@@QAEJH@Z 0042a393 f i nafxcw:occsite.obj
 0001:000293b6       ?SetupOptionalRowsetInterfaces@CRowset@ATL@@QAEXXZ 0042a3b6 f i nafxcw:occsite.obj
 0001:000293cb       ?BindColumns@CDynamicAccessor@ATL@@QAEJPAUIUnknown@@@Z 0042a3cb f i nafxcw:occsite.obj
 0001:0002967c       ?AllocateAccessorMemory@CAccessorBase@ATL@@QAEJH@Z 0042a67c f i nafxcw:occsite.obj
 0001:000296d8       ?BindEntries@CAccessorBase@ATL@@SAJPAUtagDBBINDING@@HPAKKPAUIAccessor@@@Z 0042a6d8 f i nafxcw:occsite.obj
 0001:00029722       ?Bind@CAccessorBase@ATL@@SAXPAUtagDBBINDING@@KGKEEKKKKPAUtagDBOBJECT@@@Z 0042a722 f i nafxcw:occsite.obj
 0001:000297a1       ?CopyColumnID@CDataSourceControl@@QAEHPAUtagDBCOLUMNID@@PBU2@@Z 0042a7a1 f   nafxcw:occsite.obj
 0001:0002980d       ?BindProp@CDataSourceControl@@UAEXPAVCOleControlSite@@H@Z 0042a80d f   nafxcw:occsite.obj
 0001:00029949       ?TranslateColumnNo@CDynamicAccessor@ATL@@QBE_NAAK@Z 0042a949 f i nafxcw:occsite.obj
 0001:0002999c       ?BindProp@CDataSourceControl@@UAEXPAVCDataBoundProperty@@H@Z 0042a99c f   nafxcw:occsite.obj
 0001:000299e4       ?BindColumns@CDataSourceControl@@UAEXXZ 0042a9e4 f   nafxcw:occsite.obj
 0001:00029b8e       ?GetBoundClientRow@CDataSourceControl@@QAEJXZ 0042ab8e f   nafxcw:occsite.obj
 0001:00029beb       ?ToVariant@CDataSourceControl@@QAE?AVCOleVariant@@H@Z 0042abeb f   nafxcw:occsite.obj
 0001:0002a367       ?GetStatus@CDynamicAccessor@ATL@@QBE_NKPAK@Z 0042b367 f i nafxcw:occsite.obj
 0001:0002a3ab       ?_GetDataPtr@CDynamicAccessor@ATL@@QBEPAXK@Z 0042b3ab f i nafxcw:occsite.obj
 0001:0002a3c2       ?UpdateControls@CDataSourceControl@@UAEJXZ 0042b3c2 f   nafxcw:occsite.obj
 0001:0002a557       ?UpdateCursor@CDataSourceControl@@UAEJXZ 0042b557 f   nafxcw:occsite.obj
 0001:0002ae9a       ?SetData@CRowset@ATL@@QBEJXZ 0042be9a f i nafxcw:occsite.obj
 0001:0002aec2       ?SetData@CRowset@ATL@@QBEJH@Z 0042bec2 f i nafxcw:occsite.obj
 0001:0002aef1       ??1CManualAccessor@ATL@@QAE@XZ 0042bef1 f i nafxcw:occsite.obj
 0001:0002af08       ?CreateAccessor@CManualAccessor@ATL@@QAEJHPAXK@Z 0042bf08 f i nafxcw:occsite.obj
 0001:0002af7f       ?AddBindEntry@CManualAccessor@ATL@@QAEXKGKPAX00@Z 0042bf7f f i nafxcw:occsite.obj
 0001:0002afd3       ?BindColumns@CManualAccessor@ATL@@QAEJPAUIUnknown@@@Z 0042bfd3 f i nafxcw:occsite.obj
 0001:0002b06b       ??0CDataBoundProperty@@QAE@PAV0@JG@Z 0042c06b f   nafxcw:occsite.obj
 0001:0002b091       ?SetClientSite@CDataBoundProperty@@QAEXPAVCOleControlSite@@@Z 0042c091 f   nafxcw:occsite.obj
 0001:0002b09a       ?SetDSCSite@CDataBoundProperty@@QAEXPAVCOleControlSite@@@Z 0042c09a f   nafxcw:occsite.obj
 0001:0002b0ae       ?GetNext@CDataBoundProperty@@QAEPAV1@XZ 0042c0ae f   nafxcw:occsite.obj
 0001:0002b0b2       ?Notify@CDataBoundProperty@@QAEXXZ 0042c0b2 f   nafxcw:occsite.obj
 0001:0002b135       ?GetCursor@CDataBoundProperty@@QAEPAUIUnknown@@XZ 0042c135 f   nafxcw:occsite.obj
 0001:0002b16b       ?GetCursor@COleControlSite@@IAEJJPAPAUIUnknown@@PAPAX@Z 0042c16b f   nafxcw:occsite.obj
 0001:0002b1a2       ?AddRef@XBoundObjectSite@COleControlSite@@UAGKXZ 0042c1a2 f   nafxcw:occsite.obj
 0001:0002b1b4       ?Release@XBoundObjectSite@COleControlSite@@UAGKXZ 0042c1b4 f   nafxcw:occsite.obj
 0001:0002b1c6       ?QueryInterface@XBoundObjectSite@COleControlSite@@UAGJABU_GUID@@PAPAX@Z 0042c1c6 f   nafxcw:occsite.obj
 0001:0002b1e0       ?GetCursor@XBoundObjectSite@COleControlSite@@UAGJJPAPAUICursor@@PAPAX@Z 0042c1e0 f   nafxcw:occsite.obj
 0001:0002b1fe       ?QueryInterface@XNotifyDBEvents@COleControlSite@@UAGJABU_GUID@@PAPAX@Z 0042c1fe f   nafxcw:occsite.obj
 0001:0002b248       ?OKToDo@XNotifyDBEvents@COleControlSite@@UAGJKKQAUtagDBNOTIFYREASON@@@Z 0042c248 f   nafxcw:occsite.obj
 0001:0002b2a4       ?Cancelled@XNotifyDBEvents@COleControlSite@@UAGJKKQAUtagDBNOTIFYREASON@@@Z 0042c2a4 f   nafxcw:occsite.obj
 0001:0002b2c4       ?SyncBefore@XNotifyDBEvents@COleControlSite@@UAGJKKQAUtagDBNOTIFYREASON@@@Z 0042c2c4 f   nafxcw:occsite.obj
 0001:0002b30e       ?AboutToDo@XNotifyDBEvents@COleControlSite@@UAGJKKQAUtagDBNOTIFYREASON@@@Z 0042c30e f   nafxcw:occsite.obj
 0001:0002b32e       ?FailedToDo@XNotifyDBEvents@COleControlSite@@UAGJKKQAUtagDBNOTIFYREASON@@@Z 0042c32e f   nafxcw:occsite.obj
 0001:0002b34e       ?SyncAfter@XNotifyDBEvents@COleControlSite@@UAGJKKQAUtagDBNOTIFYREASON@@@Z 0042c34e f   nafxcw:occsite.obj
 0001:0002b3b7       ?DidEvent@XNotifyDBEvents@COleControlSite@@UAGJKKQAUtagDBNOTIFYREASON@@@Z 0042c3b7 f   nafxcw:occsite.obj
 0001:0002b405       ?FireEvent@XNotifyDBEvents@COleControlSite@@QAEJKKQAUtagDBNOTIFYREASON@@W4DSCSTATE@@@Z 0042c405 f   nafxcw:occsite.obj
 0001:0002b4c9       ?AddRef@XEventSink@COleControlSite@@UAGKXZ 0042c4c9 f   nafxcw:occsite.obj
 0001:0002b4c9       ?AddRef@XRowsetNotify@COleControlSite@@UAGKXZ 0042c4c9 f   nafxcw:occsite.obj
 0001:0002b4c9       ?AddRef@XPropertyNotifySink@COleControlSite@@UAGKXZ 0042c4c9 f   nafxcw:occsite.obj
 0001:0002b4c9       ?AddRef@XNotifyDBEvents@COleControlSite@@UAGKXZ 0042c4c9 f   nafxcw:occsite.obj
 0001:0002b4cf       ?QueryInterface@XRowsetNotify@COleControlSite@@UAGJABU_GUID@@PAPAX@Z 0042c4cf f   nafxcw:occsite.obj
 0001:0002b519       ?OnFieldChange@XRowsetNotify@COleControlSite@@UAGJPAUIRowset@@KKQAKKKH@Z 0042c519 f   nafxcw:occsite.obj
 0001:0002b5aa       ?OnRowChange@XRowsetNotify@COleControlSite@@UAGJPAUIRowset@@KQBKKKH@Z 0042c5aa f   nafxcw:occsite.obj
 0001:0002b6bf       ?OnRowsetChange@XRowsetNotify@COleControlSite@@UAGJPAUIRowset@@KKH@Z 0042c6bf f   nafxcw:occsite.obj
 0001:0002b739       ??1?$CComPtr@UIAccessor@@@ATL@@QAE@XZ 0042c739 f i nafxcw:occsite.obj
 0001:0002b739       ??1?$CComPtr@UIColumnsInfo@@@ATL@@QAE@XZ 0042c739 f i nafxcw:occsite.obj
 0001:0002b739       ??1?$CComPtr@UIRowsetChange@@@ATL@@QAE@XZ 0042c739 f i nafxcw:occsite.obj
 0001:0002b739       ??1?$CComPtr@UIRowset@@@ATL@@QAE@XZ 0042c739 f i nafxcw:occsite.obj
 0001:0002b746       ?AtlComPtrAssign@ATL@@YGPAUIUnknown@@PAPAU2@PAU2@@Z 0042c746 f i nafxcw:occsite.obj
 0001:0002b76f       ??1COleDispatchDriver@@QAE@XZ 0042c76f f i nafxcw:occsite.obj
 0001:0002b774       ??1COleVariant@@QAE@XZ     0042c774 f i nafxcw:occsite.obj
 0001:0002b77c       ??0AFX_EVENT@@QAE@H@Z      0042c77c f i nafxcw:occsite.obj
 0001:0002b79f       ?_AfxGetDlgCode@@YGKPAVCWnd@@PAUtagMSG@@@Z 0042c79f f   nafxcw:occdlg.obj
 0001:0002b7cd       ?_AfxDlgSetFocus@@YGXPAVCWnd@@@Z 0042c7cd f   nafxcw:occdlg.obj
 0001:0002b7fb       ?_AfxGetChildControl@@YGPAVCWnd@@PAV1@0@Z 0042c7fb f   nafxcw:occdlg.obj
 0001:0002b854       ?_AfxNextControl@@YGPAVCWnd@@PAV1@0I@Z 0042c854 f   nafxcw:occdlg.obj
 0001:0002b930       ?IsMatchingMnemonic@COccManager@@SAHPAVCWnd@@PAUtagMSG@@@Z 0042c930 f   nafxcw:occdlg.obj
 0001:0002b94f       ?_AfxFindNextMnem@@YGPAVCWnd@@PAV1@0PAUtagMSG@@@Z 0042c94f f   nafxcw:occdlg.obj
 0001:0002b9d4       ?IsLabelControl@COccManager@@SAHPAVCWnd@@@Z 0042c9d4 f   nafxcw:occdlg.obj
 0001:0002b9fa       ?_AfxGetNextMnem@@YGPAVCWnd@@PAV1@0PAUtagMSG@@@Z 0042c9fa f   nafxcw:occdlg.obj
 0001:0002ba6f       ?UIActivateControl@COccManager@@KAXPAVCWnd@@@Z 0042ca6f f   nafxcw:occdlg.obj
 0001:0002bacc       ?UIDeactivateIfNecessary@COccManager@@KAXPAVCWnd@@0@Z 0042cacc f   nafxcw:occdlg.obj
 0001:0002bb3f       ?_AfxFindDlgItem@@YGPAVCWnd@@PAV1@K@Z 0042cb3f f   nafxcw:occdlg.obj
 0001:0002bb96       ?SetDefaultButton@COccManager@@SAXPAVCWnd@@H@Z 0042cb96 f   nafxcw:occdlg.obj
 0001:0002bbe3       ?GetDefBtnCode@COccManager@@SAKPAVCWnd@@@Z 0042cbe3 f   nafxcw:occdlg.obj
 0001:0002bc04       ?_AfxRemoveDefaultButton@@YGXPAVCWnd@@0@Z 0042cc04 f   nafxcw:occdlg.obj
 0001:0002bc66       ?_AfxOriginalDefButton@@YGHPAVCWnd@@@Z 0042cc66 f   nafxcw:occdlg.obj
 0001:0002bc93       ?_AfxCheckDefPushButton@@YGXPAVCWnd@@00@Z 0042cc93 f   nafxcw:occdlg.obj
 0001:0002bd80       ?IsDialogMessageA@COccManager@@UAEHPAVCWnd@@PAUtagMSG@@@Z 0042cd80 f   nafxcw:occdlg.obj
 0001:0002c16b       ?AfxCheckError@@YGXJ@Z     0042d16b f   nafxcw:olevar.obj
 0001:0002c18a       ??0COleVariant@@QAE@ABUtagVARIANT@@@Z 0042d18a f   nafxcw:olevar.obj
 0001:0002c18a       ??0COleVariant@@QAE@PBUtagVARIANT@@@Z 0042d18a f   nafxcw:olevar.obj
 0001:0002c18a       ??0COleVariant@@QAE@ABV0@@Z 0042d18a f   nafxcw:olevar.obj
 0001:0002c1aa       ??0COleVariant@@QAE@PBDG@Z 0042d1aa f   nafxcw:olevar.obj
 0001:0002c225       ??0COleVariant@@QAE@FG@Z   0042d225 f   nafxcw:olevar.obj
 0001:0002c25b       ??0COleVariant@@QAE@JG@Z   0042d25b f   nafxcw:olevar.obj
 0001:0002c29d       ?ChangeType@COleVariant@@QAEXGPAUtagVARIANT@@@Z 0042d29d f   nafxcw:olevar.obj
 0001:0002c2c8       ??4COleVariant@@QAEABV0@ABUtagVARIANT@@@Z 0042d2c8 f   nafxcw:olevar.obj
 0001:0002c2c8       ??4COleVariant@@QAEABV0@ABV0@@Z 0042d2c8 f   nafxcw:olevar.obj
 0001:0002c2e2       ?AfxVariantInit@@YGXPAUtagVARIANT@@@Z 0042d2e2 f   nafxcw:olevar.obj
 0001:0002c2f5       ?_AfxOleDateFromTm@@YGHGGGGGGAAN@Z 0042d2f5 f   nafxcw:olevar.obj
 0001:0002c432       ?SetDateTime@COleDateTime@@QAEHHHHHHH@Z 0042d432 f   nafxcw:olevar.obj
 0001:0002c45d       ??_GCOleException@@UAEPAXI@Z 0042d45d f i nafxcw:olemisc.obj
 0001:0002c45d       ??_ECOleException@@UAEPAXI@Z 0042d45d f i nafxcw:olemisc.obj
 0001:0002c479       ??1COleException@@UAE@XZ   0042d479 f i nafxcw:olemisc.obj
 0001:0002c480       ?AfxOleUnlockAllControls@@YGXXZ 0042d480 f   nafxcw:occlock.obj
 0001:0002c4bc       _ReuseDDElParam@20         0042d4bc f   user32:USER32.dll
 0001:0002c4c2       _UnpackDDElParam@16        0042d4c2 f   user32:USER32.dll
 0001:0002c4c8       _GetFileTitleA@12          0042d4c8 f   comdlg32:comdlg32.dll
 0001:0002c4ce       _GetSaveFileNameA@4        0042d4ce f   comdlg32:comdlg32.dll
 0001:0002c4d4       _GetOpenFileNameA@4        0042d4d4 f   comdlg32:comdlg32.dll
 0001:0002c4da       _ClosePrinter@4            0042d4da f   winspool:WINSPOOL.DRV
 0001:0002c4e0       _DocumentPropertiesA@24    0042d4e0 f   winspool:WINSPOOL.DRV
 0001:0002c4e6       _OpenPrinterA@12           0042d4e6 f   winspool:WINSPOOL.DRV
 0001:0002c4ec       _OleUIBusyA@4              0042d4ec f   oledlg:oledlg.dll
 0001:0002c500       ??0CCJListView@@QAE@XZ     0042d500 f   CJ60StaticLib:CJListView.obj
 0001:0002c5b0       ??_ECCJListView@@UAEPAXI@Z 0042d5b0 f i CJ60StaticLib:CJListView.obj
 0001:0002c5b0       ??_GCCJListView@@UAEPAXI@Z 0042d5b0 f i CJ60StaticLib:CJListView.obj
 0001:0002c5d0       ??1CCJListView@@UAE@XZ     0042d5d0 f   CJ60StaticLib:CJListView.obj
 0001:0002c660       ?CreateObject@CCJListView@@SGPAVCObject@@XZ 0042d660 f   CJ60StaticLib:CJListView.obj
 0001:0002c6c0       ?GetRuntimeClass@CCJListView@@UBEPAUCRuntimeClass@@XZ 0042d6c0 f   CJ60StaticLib:CJListView.obj
 0001:0002c6d0       ?GetMessageMap@CCJListView@@MBEPBUAFX_MSGMAP@@XZ 0042d6d0 f   CJ60StaticLib:CJListView.obj
 0001:0002c6e0       ?OnItemclick@CCJListView@@IAEXPAUtagNMHDR@@PAJ@Z 0042d6e0 f   CJ60StaticLib:CJListView.obj
 0001:0002c770       ?SortTextItems@CCJListView@@QAEHHHHH@Z 0042d770 f   CJ60StaticLib:CJListView.obj
 0001:0002cc50       ?SortIntItems@CCJListView@@QAEHHHHH@Z 0042dc50 f   CJ60StaticLib:CJListView.obj
 0001:0002d180       ?SaveColumnWidths@CCJListView@@QAEXXZ 0042e180 f   CJ60StaticLib:CJListView.obj
 0001:0002d270       ?IsColumnNumeric@CCJListView@@QBE?B_NH@Z 0042e270 f   CJ60StaticLib:CJListView.obj
 0001:0002d2a0       ?SetColumnNumeric@CCJListView@@QAEXH@Z 0042e2a0 f   CJ60StaticLib:CJListView.obj
 0001:0002d2c0       ?OnDestroy@CCJListView@@IAEXXZ 0042e2c0 f   CJ60StaticLib:CJListView.obj
 0001:0002d2e0       ?SaveColumnState@CCJListView@@QAEXVCString@@0@Z 0042e2e0 f   CJ60StaticLib:CJListView.obj
 0001:0002d360       ?OnInitialUpdate@CCJListView@@UAEXXZ 0042e360 f   CJ60StaticLib:CJListView.obj
 0001:0002d380       ?InitializeFlatHeader@CCJListView@@QAEHXZ 0042e380 f   CJ60StaticLib:CJListView.obj
 0001:0002d430       ??0CCJListCtrl@@QAE@XZ     0042e430 f   CJ60StaticLib:CJListCtrl.obj
 0001:0002d4e0       ??_ECCJListCtrl@@UAEPAXI@Z 0042e4e0 f i CJ60StaticLib:CJListCtrl.obj
 0001:0002d4e0       ??_GCCJListCtrl@@UAEPAXI@Z 0042e4e0 f i CJ60StaticLib:CJListCtrl.obj
 0001:0002d500       ??1CCJListCtrl@@UAE@XZ     0042e500 f   CJ60StaticLib:CJListCtrl.obj
 0001:0002d580       ?GetMessageMap@CCJListCtrl@@MBEPBUAFX_MSGMAP@@XZ 0042e580 f   CJ60StaticLib:CJListCtrl.obj
 0001:0002d590       ?OnItemclick@CCJListCtrl@@IAEXPAUtagNMHDR@@PAJ@Z 0042e590 f   CJ60StaticLib:CJListCtrl.obj
 0001:0002d620       ?SortTextItems@CCJListCtrl@@QAEHHHHH@Z 0042e620 f   CJ60StaticLib:CJListCtrl.obj
 0001:0002db00       ?SortIntItems@CCJListCtrl@@QAEHHHHH@Z 0042eb00 f   CJ60StaticLib:CJListCtrl.obj
 0001:0002e030       ?SaveColumnWidths@CCJListCtrl@@QAEXXZ 0042f030 f   CJ60StaticLib:CJListCtrl.obj
 0001:0002e120       ?IsColumnNumeric@CCJListCtrl@@QBE?B_NH@Z 0042f120 f   CJ60StaticLib:CJListCtrl.obj
 0001:0002e150       ?OnDestroy@CCJListCtrl@@IAEXXZ 0042f150 f   CJ60StaticLib:CJListCtrl.obj
 0001:0002e170       ?SaveColumnState@CCJListCtrl@@QAEXVCString@@0@Z 0042f170 f   CJ60StaticLib:CJListCtrl.obj
 0001:0002e1f0       ?SetExtendedStyle@CCJListCtrl@@QAEXK@Z 0042f1f0 f   CJ60StaticLib:CJListCtrl.obj
 0001:0002e230       ?OnCreate@CCJListCtrl@@IAEHPAUtagCREATESTRUCTA@@@Z 0042f230 f   CJ60StaticLib:CJListCtrl.obj
 0001:0002e250       ?PreSubclassWindow@CCJListCtrl@@MAEXXZ 0042f250 f   CJ60StaticLib:CJListCtrl.obj
 0001:0002e270       ?InitializeFlatHeader@CCJListCtrl@@QAEHXZ 0042f270 f   CJ60StaticLib:CJListCtrl.obj
 0001:0002e320       ??0CCJFlatHeaderCtrl@@QAE@XZ 0042f320 f   CJ60StaticLib:CJFlatHeaderCtrl.obj
 0001:0002e360       ??_GCCJFlatHeaderCtrl@@UAEPAXI@Z 0042f360 f i CJ60StaticLib:CJFlatHeaderCtrl.obj
 0001:0002e360       ??_ECCJFlatHeaderCtrl@@UAEPAXI@Z 0042f360 f i CJ60StaticLib:CJFlatHeaderCtrl.obj
 0001:0002e380       ??1CCJFlatHeaderCtrl@@UAE@XZ 0042f380 f   CJ60StaticLib:CJFlatHeaderCtrl.obj
 0001:0002e3f0       ?GetMessageMap@CCJFlatHeaderCtrl@@MBEPBUAFX_MSGMAP@@XZ 0042f3f0 f   CJ60StaticLib:CJFlatHeaderCtrl.obj
 0001:0002e400       ?FlatHeader@CCJFlatHeaderCtrl@@QAEXH@Z 0042f400 f   CJ60StaticLib:CJFlatHeaderCtrl.obj
 0001:0002e4a0       ?SetSortImage@CCJFlatHeaderCtrl@@QAEHHH@Z 0042f4a0 f   CJ60StaticLib:CJFlatHeaderCtrl.obj
 0001:0002e520       ?DrawItem@CCJFlatHeaderCtrl@@UAEXPAUtagDRAWITEMSTRUCT@@@Z 0042f520 f   CJ60StaticLib:CJFlatHeaderCtrl.obj
 0001:0002e970       ?OnPaint@CCJFlatHeaderCtrl@@IAEXXZ 0042f970 f   CJ60StaticLib:CJFlatHeaderCtrl.obj
 0001:0002e990       ?DrawFlatBorder@CCJFlatHeaderCtrl@@QAEXXZ 0042f990 f   CJ60StaticLib:CJFlatHeaderCtrl.obj
 0001:0002ec90       ?OnWindowPosChanging@CCJFlatHeaderCtrl@@IAEXPAUtagWINDOWPOS@@@Z 0042fc90 f   CJ60StaticLib:CJFlatHeaderCtrl.obj
 0001:0002ecb0       _PdhCloseQuery@4           0042fcb0 f   PDH:pdh.dll
 0001:0002ecb6       _PdhAddCounterA@16         0042fcb6 f   PDH:pdh.dll
 0001:0002ecbc       _PdhOpenQueryA@12          0042fcbc f   PDH:pdh.dll
 0001:0002ecc2       _PdhGetFormattedCounterValue@16 0042fcc2 f   PDH:pdh.dll
 0001:0002ecc8       _PdhCollectQueryData@4     0042fcc8 f   PDH:pdh.dll
 0001:0002ecce       _AVIFileInit@0             0042fcce f   vfw32:AVIFIL32.dll
 0001:0002ecd4       _AVIFileExit@0             0042fcd4 f   vfw32:AVIFIL32.dll
 0001:0002ecda       _AVIStreamSetFormat@16     0042fcda f   vfw32:AVIFIL32.dll
 0001:0002ece0       _AVIFileCreateStreamA@12   0042fce0 f   vfw32:AVIFIL32.dll
 0001:0002ece6       _AVIFileOpenA@16           0042fce6 f   vfw32:AVIFIL32.dll
 0001:0002ecec       _AVIStreamWrite@32         0042fcec f   vfw32:AVIFIL32.dll
 0001:0002ecf2       _AVIFileRelease@4          0042fcf2 f   vfw32:AVIFIL32.dll
 0001:0002ecf8       _AVIStreamRelease@4        0042fcf8 f   vfw32:AVIFIL32.dll
 0001:0002ecfe       _DrawDibClose@4            0042fcfe f   vfw32:MSVFW32.dll
 0001:0002ed04       _DrawDibOpen@0             0042fd04 f   vfw32:MSVFW32.dll
 0001:0002ed0a       _ICDecompress              0042fd0a f   vfw32:MSVFW32.dll
 0001:0002ed10       _ICSeqCompressFrameStart@8 0042fd10 f   vfw32:MSVFW32.dll
 0001:0002ed16       _ICSendMessage@16          0042fd16 f   vfw32:MSVFW32.dll
 0001:0002ed1c       _ICOpen@12                 0042fd1c f   vfw32:MSVFW32.dll
 0001:0002ed22       _ICClose@4                 0042fd22 f   vfw32:MSVFW32.dll
 0001:0002ed28       _ICCompressorFree@4        0042fd28 f   vfw32:MSVFW32.dll
 0001:0002ed2e       _ICSeqCompressFrameEnd@4   0042fd2e f   vfw32:MSVFW32.dll
 0001:0002ed34       _DrawDibDraw@52            0042fd34 f   vfw32:MSVFW32.dll
 0001:0002ed3a       ?_JumpToContinuation@@YGXPAXPAUEHRegistrationNode@@@Z 0042fd3a f   LIBCMT:trnsctrl.obj
 0001:0002ed6e       ?_CallMemberFunction1@@YGXPAX00@Z 0042fd6e f   LIBCMT:trnsctrl.obj
 0001:0002ed6e       ?_CallMemberFunction0@@YGXPAX0@Z 0042fd6e f   LIBCMT:trnsctrl.obj
 0001:0002ed75       ?_CallMemberFunction2@@YGXPAX00H@Z 0042fd75 f   LIBCMT:trnsctrl.obj
 0001:0002ed7c       ?_UnwindNestedFrames@@YGXPAUEHRegistrationNode@@PAUEHExceptionRecord@@@Z 0042fd7c f   LIBCMT:trnsctrl.obj
 0001:0002edcb       ___CxxFrameHandler         0042fdcb f   LIBCMT:trnsctrl.obj
 0001:0002ee01       ?_CallCatchBlock2@@YAPAXPAUEHRegistrationNode@@PBU_s_FuncInfo@@PAXHK@Z 0042fe01 f   LIBCMT:trnsctrl.obj
 0001:0002ee7a       ?_CallSETranslator@@YAHPAUEHExceptionRecord@@PAUEHRegistrationNode@@PAX2PBU_s_FuncInfo@@H1@Z 0042fe7a f   LIBCMT:trnsctrl.obj
 0001:0002efa5       ?_GetRangeOfTrysToCheck@@YAPBU_s_TryBlockMapEntry@@PBU_s_FuncInfo@@HHPAI1@Z 0042ffa5 f   LIBCMT:trnsctrl.obj
 0001:0002f020       __global_unwind2           00430020 f   LIBCMT:exsup.obj
 0001:0002f062       __local_unwind2            00430062 f   LIBCMT:exsup.obj
 0001:0002f0ba       __NLG_Return2              004300ba f   LIBCMT:exsup.obj
 0001:0002f0ca       __abnormal_termination     004300ca f   LIBCMT:exsup.obj
 0001:0002f0ed       __NLG_Notify1              004300ed f   LIBCMT:exsup.obj
 0001:0002f0f6       __NLG_Notify               004300f6 f   LIBCMT:exsup.obj
 0001:0002f109       __NLG_Dispatch             00430109 f   LIBCMT:exsup.obj
 0001:0002f10e       __fpmath                   0043010e f   LIBCMT:fpinit.obj
 0001:0002f125       __fpclear                  00430125 f   LIBCMT:fpinit.obj
 0001:0002f126       __cfltcvt_init             00430126 f   LIBCMT:fpinit.obj
 0001:0002f160       __ftol                     00430160 f   LIBCMT:ftol.obj
 0001:0002f187       ??_M@YGXPAXIHP6EX0@Z@Z     00430187 f   LIBCMT:ehvecdtr.obj
 0001:0002f207       ?__ArrayUnwind@@YGXPAXIHP6EX0@Z@Z 00430207 f   LIBCMT:ehvecdtr.obj
 0001:0002f265       ??_L@YGXPAXIHP6EX0@Z1@Z    00430265 f   LIBCMT:ehvecctr.obj
 0001:0002f2e7       ??1type_info@@UAE@XZ       004302e7 f   LIBCMT:typinfo.obj
 0001:0002f310       ??_Etype_info@@UAEPAXI@Z   00430310 f i LIBCMT:typinfo.obj
 0001:0002f310       ??_Gtype_info@@UAEPAXI@Z   00430310 f i LIBCMT:typinfo.obj
 0001:0002f330       __aullshr                  00430330 f   LIBCMT:ullshr.obj
 0001:0002f350       __alldiv                   00430350 f   LIBCMT:lldiv.obj
 0001:0002f400       __allmul                   00430400 f   LIBCMT:llmul.obj
 0001:0002f43c       __except_handler3          0043043c f   LIBCMT:exsup3.obj
 0001:0002f4f9       __seh_longjmp_unwind@4     004304f9 f   LIBCMT:exsup3.obj
 0001:0002f514       __onexit                   00430514 f   LIBCMT:onexit.obj
 0001:0002f592       _atexit                    00430592 f   LIBCMT:onexit.obj
 0001:0002f5a4       ___onexitinit              004305a4 f   LIBCMT:onexit.obj
 0001:0002f5d3       __purecall                 004305d3 f   LIBCMT:purevirt.obj
 0001:0002f5e0       __chkstk                   004305e0 f   LIBCMT:chkstk.obj
 0001:0002f5e0       __alloca_probe             004305e0 f   LIBCMT:chkstk.obj
 0001:0002f60f       __CxxThrowException@8      0043060f f   LIBCMT:throw.obj
 0001:0002f649       _WinMainCRTStartup         00430649 f   LIBCMT:wincrt0.obj
 0001:0002f751       __amsg_exit                00430751 f   LIBCMT:wincrt0.obj
 0001:0002f79a       _calloc                    0043079a f   LIBCMT:calloc.obj
 0001:0002f8d7       _free                      004308d7 f   LIBCMT:free.obj
 0001:0002f9c0       _malloc                    004309c0 f   LIBCMT:malloc.obj
 0001:0002f9d2       __nh_malloc                004309d2 f   LIBCMT:malloc.obj
 0001:0002f9fe       __heap_alloc               004309fe f   LIBCMT:malloc.obj
 0001:0002fb00       _memset                    00430b00 f   LIBCMT:memset.obj
 0001:0002fb58       __EH_prolog                00430b58 f   LIBCMT:ehprolog.obj
 0001:0002fb77       __mbscmp                   00430b77 f   LIBCMT:mbscmp.obj
 0001:0002fc30       _memcmp                    00430c30 f   LIBCMT:memcmp.obj
 0001:0002fce0       _memcpy                    00430ce0 f   LIBCMT:memcpy.obj
 0001:00030015       _wcslen                    00431015 f   LIBCMT:wcslen.obj
 0001:00030032       __mbschr                   00431032 f   LIBCMT:mbschr.obj
 0001:000300c9       __mbspbrk                  004310c9 f   LIBCMT:mbspbrk.obj
 0001:0003015e       __mbslwr                   0043115e f   LIBCMT:mbslwr.obj
 0001:000301e8       _strtol                    004311e8 f   LIBCMT:strtol.obj
 0001:00030404       _strtoul                   00431404 f   LIBCMT:strtol.obj
 0001:0003041b       __mbsinc                   0043141b f   LIBCMT:mbsinc.obj
 0001:00030440       _memmove                   00431440 f   LIBCMT:memmove.obj
 0001:00030775       __mbsstr                   00431775 f   LIBCMT:mbsstr.obj
 0001:000307eb       __mbsrchr                  004317eb f   LIBCMT:mbsrchr.obj
 0001:0003085d       _vsprintf                  0043185d f   LIBCMT:vsprintf.obj
 0001:000308ae       __mbclen                   004318ae f   LIBCMT:mbclen.obj
 0001:000308d0       _strlen                    004318d0 f   LIBCMT:strlen.obj
 0001:0003094b       _sprintf                   0043194b f   LIBCMT:sprintf.obj
 0001:0003099d       __mbsnbcmp                 0043199d f   LIBCMT:mbsnbcmp.obj
 0001:00030a8c       __ismbcdigit               00431a8c f   LIBCMT:ismbdgt.obj
 0001:00030b1b       _atol                      00431b1b f   LIBCMT:atox.obj
 0001:00030ba6       _atoi                      00431ba6 f   LIBCMT:atox.obj
 0001:00030bb1       __ismbcspace               00431bb1 f   LIBCMT:ismbspc.obj
 0001:00030c40       _abs                       00431c40 f   LIBCMT:abs.obj
 0001:00030c4b       __fullpath                 00431c4b f   LIBCMT:fullpath.obj
 0001:00030cf0       __splitpath                00431cf0 f   LIBCMT:splitpat.obj
 0001:00030e37       _mktime                    00431e37 f   LIBCMT:mktime.obj
 0001:00031029       _time                      00432029 f   LIBCMT:time.obj
 0001:00031105       _gmtime                    00432105 f   LIBCMT:gmtime.obj
 0001:0003120f       _localtime                 0043220f f   LIBCMT:localtim.obj
 0001:0003136f       __setmbcp                  0043236f f   LIBCMT:mbctype.obj
 0001:00031747       ___initmbctable            00432747 f   LIBCMT:mbctype.obj
 0001:00031763       _strftime                  00432763 f   LIBCMT:strftime.obj
 0001:0003177e       __Strftime                 0043277e f   LIBCMT:strftime.obj
 0001:00032054       __strdup                   00433054 f   LIBCMT:strdup.obj
 0001:0003207f       __cinit                    0043307f f   LIBCMT:crt0dat.obj
 0001:000320ac       _exit                      004330ac f   LIBCMT:crt0dat.obj
 0001:000320bd       __exit                     004330bd f   LIBCMT:crt0dat.obj
 0001:00032173       __lockexit                 00433173 f   LIBCMT:crt0dat.obj
 0001:0003217c       __unlockexit               0043317c f   LIBCMT:crt0dat.obj
 0001:0003219f       __beginthreadex            0043319f f   LIBCMT:threadex.obj
 0001:000322d0       __endthreadex              004332d0 f   LIBCMT:threadex.obj
 0001:00032302       __expand                   00433302 f   LIBCMT:expand.obj
 0001:00032466       __msize                    00433466 f   LIBCMT:msize.obj
 0001:00032554       __dosmaperr                00433554 f   LIBCMT:dosmap.obj
 0001:000325c7       __errno                    004335c7 f   LIBCMT:dosmap.obj
 0001:000325d0       ___doserrno                004335d0 f   LIBCMT:dosmap.obj
 0001:000325d9       __mbsdec                   004335d9 f   LIBCMT:mbsdec.obj
 0001:000326a2       __ltoa                     004336a2 f   LIBCMT:xtoa.obj
 0001:000326cc       __ultoa                    004336cc f   LIBCMT:xtoa.obj
 0001:000326e7       _wcscpy                    004336e7 f   LIBCMT:wcscat.obj
 0001:0003270c       _wcsncpy                   0043370c f   LIBCMT:wcsncpy.obj
 0001:00032749       _realloc                   00433749 f   LIBCMT:realloc.obj
 0001:00032a78       _ceil                      00433a78 f   LIBCMT:ceil.obj
 0001:00032b47       ___InternalCxxFrameHandler 00433b47 f   LIBCMT:frame.obj
 0001:00032e9c       ___FrameUnwindToState      00433e9c f   LIBCMT:frame.obj
 0001:000332d4       ?_DestructExceptionObject@@YAXPAUEHExceptionRecord@@E@Z 004342d4 f   LIBCMT:frame.obj
 0001:00033360       __CallSettingFrame@12      00434360 f   LIBCMT:lowhelpr.obj
 0001:00033387       __NLG_Return               00434387 f   LIBCMT:lowhelpr.obj
 0001:000333ac       __mtinit                   004343ac f   LIBCMT:tidtable.obj
 0001:00033400       __initptd                  00434400 f   LIBCMT:tidtable.obj
 0001:00033413       __getptd                   00434413 f   LIBCMT:tidtable.obj
 0001:0003347a       __freeptd                  0043447a f   LIBCMT:tidtable.obj
 0001:0003351a       ?terminate@@YAXXZ          0043451a f   LIBCMT:hooks.obj
 0001:0003357b       ?_inconsistency@@YAXXZ     0043457b f   LIBCMT:hooks.obj
 0001:000335d1       __setdefaultprecision      004345d1 f   LIBCMT:fp8.obj
 0001:000335e3       __ms_p5_test_fdiv          004345e3 f   LIBCMT:testfdiv.obj
 0001:00033621       __ms_p5_mp_test_fdiv       00434621 f   LIBCMT:testfdiv.obj
 0001:0003364a       __forcdecpt                0043464a f   LIBCMT:cvt.obj
 0001:000336a4       __cropzeros                004346a4 f   LIBCMT:cvt.obj
 0001:000336f2       __positive                 004346f2 f   LIBCMT:cvt.obj
 0001:0003370a       __fassign                  0043470a f   LIBCMT:cvt.obj
 0001:00033748       __cftoe                    00434748 f   LIBCMT:cvt.obj
 0001:0003386b       __cftof                    0043486b f   LIBCMT:cvt.obj
 0001:00033967       __cftog                    00434967 f   LIBCMT:cvt.obj
 0001:000339fa       __cfltcvt                  004349fa f   LIBCMT:cvt.obj
 0001:00033a70       __mtinitlocks              00434a70 f   LIBCMT:mlock.obj
 0001:00033a99       __lock                     00434a99 f   LIBCMT:mlock.obj
 0001:00033afa       __unlock                   00434afa f   LIBCMT:mlock.obj
 0001:00033b10       _strcmp                    00434b10 f   LIBCMT:strcmp.obj
 0001:00033b94       ?__CxxUnhandledExceptionFilter@@YGJPAU_EXCEPTION_POINTERS@@@Z 00434b94 f   LIBCMT:unhandld.obj
 0001:00033bda       ?__CxxSetUnhandledExceptionFilter@@YAXXZ 00434bda f   LIBCMT:unhandld.obj
 0001:00033beb       ?__CxxRestoreUnhandledExceptionFilter@@YAXXZ 00434beb f   LIBCMT:unhandld.obj
 0001:00033bf8       __XcptFilter               00434bf8 f   LIBCMT:winxfltr.obj
 0001:00033d70       __wincmdln                 00434d70 f   LIBCMT:wincmdln.obj
 0001:00033dc8       __setenvp                  00434dc8 f   LIBCMT:stdenvp.obj
 0001:00033e81       __setargv                  00434e81 f   LIBCMT:stdargv.obj
 0001:000340ce       ___crtGetEnvironmentStringsA 004350ce f   LIBCMT:a_env.obj
 0001:00034200       __ioinit                   00435200 f   LIBCMT:ioinit.obj
 0001:000343bc       __GetLinkerVersion         004353bc f   LIBCMT:heapinit.obj
 0001:000343e9       ___heap_select             004353e9 f   LIBCMT:heapinit.obj
 0001:00034531       __heap_init                00435531 f   LIBCMT:heapinit.obj
 0001:0003458e       __FF_MSGBANNER             0043558e f   LIBCMT:crt0msg.obj
 0001:000345c7       __NMSG_WRITE               004355c7 f   LIBCMT:crt0msg.obj
 0001:0003471a       __callnewh                 0043571a f   LIBCMT:handler.obj
 0001:00034735       ___sbh_heap_init           00435735 f   LIBCMT:sbheap.obj
 0001:0003477d       ___sbh_find_block          0043577d f   LIBCMT:sbheap.obj
 0001:000347a8       ___sbh_free_block          004357a8 f   LIBCMT:sbheap.obj
 0001:00034ad1       ___sbh_alloc_block         00435ad1 f   LIBCMT:sbheap.obj
 0001:00034dda       ___sbh_alloc_new_region    00435dda f   LIBCMT:sbheap.obj
 0001:00034e8b       ___sbh_alloc_new_group     00435e8b f   LIBCMT:sbheap.obj
 0001:00034f86       ___sbh_resize_block        00435f86 f   LIBCMT:sbheap.obj
 0001:0003527c       ___old_sbh_new_region      0043627c f   LIBCMT:sbheap.obj
 0001:000353c0       ___old_sbh_release_region  004363c0 f   LIBCMT:sbheap.obj
 0001:00035416       ___old_sbh_decommit_pages  00436416 f   LIBCMT:sbheap.obj
 0001:000354d8       ___old_sbh_find_block      004364d8 f   LIBCMT:sbheap.obj
 0001:0003552f       ___old_sbh_free_block      0043652f f   LIBCMT:sbheap.obj
 0001:00035574       ___old_sbh_alloc_block     00436574 f   LIBCMT:sbheap.obj
 0001:0003577c       ___old_sbh_alloc_block_from_page 0043677c f   LIBCMT:sbheap.obj
 0001:000358a0       ___old_sbh_resize_block    004368a0 f   LIBCMT:sbheap.obj
 0001:00035960       _strchr                    00436960 f   LIBCMT:strchr.obj
 0001:00035966       ___from_strstr_to_strchr   00436966 f   LIBCMT:strchr.obj
 0001:00035a20       _strpbrk                   00436a20 f   LIBCMT:strpbrk.obj
 0001:00035a5a       ___crtLCMapStringA         00436a5a f   LIBCMT:a_map.obj
 0001:00035c80       __strrev                   00436c80 f   LIBCMT:strrev.obj
 0001:00035cb0       _toupper                   00436cb0 f   LIBCMT:toupper.obj
 0001:00035d1f       __toupper_lk               00436d1f f   LIBCMT:toupper.obj
 0001:00035deb       __isctype                  00436deb f   LIBCMT:isctype.obj
 0001:00035e60       _strstr                    00436e60 f   LIBCMT:strstr.obj
 0001:00035ee0       _strspn                    00436ee0 f   LIBCMT:strspn.obj
 0001:00035f20       _strcspn                   00436f20 f   LIBCMT:strcspn.obj
 0001:00035f60       _strrchr                   00436f60 f   LIBCMT:strrchr.obj
 0001:00035f87       __flsbuf                   00436f87 f   LIBCMT:_flsbuf.obj
 0001:0003609f       __output                   0043709f f   LIBCMT:output.obj
 0001:00036910       _strncmp                   00437910 f   LIBCMT:strncmp.obj
 0001:00036948       ___crtGetStringTypeA       00437948 f   LIBCMT:a_str.obj
 0001:00036a91       __getcwd                   00437a91 f   LIBCMT:getcwd.obj
 0001:00036ab8       __getdcwd_lk               00437ab8 f   LIBCMT:getcwd.obj
 0001:00036b8d       __validdrive               00437b8d f   LIBCMT:getcwd.obj
 0001:00036bc4       __mbsnbcpy                 00437bc4 f   LIBCMT:mbsnbcpy.obj
 0001:00036c5e       ___tzset                   00437c5e f   LIBCMT:tzset.obj
 0001:00036f13       __isindst                  00437f13 f   LIBCMT:tzset.obj
 0001:00037220       ___loctotime_t             00438220 f   LIBCMT:dtoxtime.obj
 0001:000372f0       _strcpy                    004382f0 f   LIBCMT:strcat.obj
 0001:00037300       _strcat                    00438300 f   LIBCMT:strcat.obj
 0001:000373e0       __strcmpi                  004383e0 f   LIBCMT:stricmp.obj
 0001:000373e0       __stricmp                  004383e0 f   LIBCMT:stricmp.obj
 0001:000374b0       __aulldiv                  004384b0 f   LIBCMT:ulldiv.obj
 0001:00037520       __aullrem                  00438520 f   LIBCMT:ullrem.obj
 0001:00037595       __handle_qnan1             00438595 f   LIBCMT:fpexcept.obj
 0001:000375e9       __except1                  004385e9 f   LIBCMT:fpexcept.obj
 0001:00037681       __raise_exc                00438681 f   LIBCMT:fpexcept.obj
 0001:00037934       __handle_exc               00438934 f   LIBCMT:fpexcept.obj
 0001:00037b4b       __umatherr                 00438b4b f   LIBCMT:fpexcept.obj
 0001:00037bd3       __set_errno                00438bd3 f   LIBCMT:fpexcept.obj
 0001:00037c20       __errcode                  00438c20 f   LIBCMT:fpexcept.obj
 0001:00037c4d       __frnd                     00438c4d f   LIBCMT:frnd.obj
 0001:00037c5f       __set_exp                  00438c5f f   LIBCMT:util.obj
 0001:00037c88       __sptype                   00438c88 f   LIBCMT:util.obj
 0001:00037ce2       __decomp                   00438ce2 f   LIBCMT:util.obj
 0001:00037da3       __statfp                   00438da3 f   LIBCMT:fpctrl.obj
 0001:00037db1       __clrfp                    00438db1 f   LIBCMT:fpctrl.obj
 0001:00037dc0       __ctrlfp                   00438dc0 f   LIBCMT:fpctrl.obj
 0001:00037de3       __set_statfp               00438de3 f   LIBCMT:fpctrl.obj
 0001:00037e39       ?_ValidateRead@@YAHPBXI@Z  00438e39 f   LIBCMT:validate.obj
 0001:00037e55       ?_ValidateWrite@@YAHPAXI@Z 00438e55 f   LIBCMT:validate.obj
 0001:00037e71       ?_ValidateExecute@@YAHP6GHXZ@Z 00438e71 f   LIBCMT:validate.obj
 0001:00037e89       _abort                     00438e89 f   LIBCMT:abort.obj
 0001:00037ea0       __control87                00438ea0 f   LIBCMT:ieee87.obj
 0001:00037ed5       __controlfp                00438ed5 f   LIBCMT:ieee87.obj
 0001:00038006       _tolower                   00439006 f   LIBCMT:tolower.obj
 0001:00038075       __tolower_lk               00439075 f   LIBCMT:tolower.obj
 0001:00038140       __ZeroTail                 00439140 f   LIBCMT:intrncvt.obj
 0001:00038189       __IncMan                   00439189 f   LIBCMT:intrncvt.obj
 0001:000381df       __RoundMan                 004391df f   LIBCMT:intrncvt.obj
 0001:0003826b       __CopyMan                  0043926b f   LIBCMT:intrncvt.obj
 0001:00038286       __FillZeroMan              00439286 f   LIBCMT:intrncvt.obj
 0001:00038292       __IsZeroMan                00439292 f   LIBCMT:intrncvt.obj
 0001:000382ad       __ShrMan                   004392ad f   LIBCMT:intrncvt.obj
 0001:0003833a       __ld12cvt                  0043933a f   LIBCMT:intrncvt.obj
 0001:000384a6       __ld12tod                  004394a6 f   LIBCMT:intrncvt.obj
 0001:000384bc       __ld12tof                  004394bc f   LIBCMT:intrncvt.obj
 0001:000384d2       __atodbl                   004394d2 f   LIBCMT:intrncvt.obj
 0001:000384ff       __atoflt                   004394ff f   LIBCMT:intrncvt.obj
 0001:0003852c       __fptostr                  0043952c f   LIBCMT:_fptostr.obj
 0001:000385a3       __fltout2                  004395a3 f   LIBCMT:cfout.obj
 0001:000385ff       ___dtold                   004395ff f   LIBCMT:cfout.obj
 0001:000386b5       __fptrap                   004396b5 f   LIBCMT:crt0fp.obj
 0001:000386be       __ismbblead                004396be f   LIBCMT:ismbbyte.obj
 0001:00038700       ___crtMessageBoxA          00439700 f   LIBCMT:crtmbox.obj
 0001:00038790       _strncpy                   00439790 f   LIBCMT:strncpy.obj
 0001:0003888e       __lseek                    0043988e f   LIBCMT:lseek.obj
 0001:000388f3       __lseek_lk                 004398f3 f   LIBCMT:lseek.obj
 0001:00038966       __write                    00439966 f   LIBCMT:write.obj
 0001:000389cb       __write_lk                 004399cb f   LIBCMT:write.obj
 0001:00038b56       __getbuf                   00439b56 f   LIBCMT:_getbuf.obj
 0001:00038b9a       __isatty                   00439b9a f   LIBCMT:isatty.obj
 0001:00038bc3       ___initstdio               00439bc3 f   LIBCMT:_file.obj
 0001:00038c6b       ___endstdio                00439c6b f   LIBCMT:_file.obj
 0001:00038c7f       __lock_file                00439c7f f   LIBCMT:_file.obj
 0001:00038cae       __lock_file2               00439cae f   LIBCMT:_file.obj
 0001:00038cd1       __unlock_file              00439cd1 f   LIBCMT:_file.obj
 0001:00038d00       __unlock_file2             00439d00 f   LIBCMT:_file.obj
 0001:00038d23       _wctomb                    00439d23 f   LIBCMT:wctomb.obj
 0001:00038d7c       __wctomb_lk                00439d7c f   LIBCMT:wctomb.obj
 0001:00038de5       __getenv_lk                00439de5 f   LIBCMT:getenv.obj
 0001:00038e62       __matherr                  00439e62 f   LIBCMT:matherr.obj
 0001:00038e65       _raise                     00439e65 f   LIBCMT:winsig.obj
 0001:00039024       ___addl                    0043a024 f   LIBCMT:mantold.obj
 0001:00039045       ___add_12                  0043a045 f   LIBCMT:mantold.obj
 0001:000390a3       ___shl_12                  0043a0a3 f   LIBCMT:mantold.obj
 0001:000390d1       ___shr_12                  0043a0d1 f   LIBCMT:mantold.obj
 0001:000390fe       ___mtold12                 0043a0fe f   LIBCMT:mantold.obj
 0001:000391c5       ___strgtold12              0043a1c5 f   LIBCMT:strgtold.obj
 0001:00039696       _$I10_OUTPUT               0043a696 f   LIBCMT:x10fout.obj
 0001:00039929       __free_osfhnd              0043a929 f   LIBCMT:osfinfo.obj
 0001:000399a8       __get_osfhandle            0043a9a8 f   LIBCMT:osfinfo.obj
 0001:000399ea       __lock_fhandle             0043a9ea f   LIBCMT:osfinfo.obj
 0001:00039a49       __unlock_fhandle           0043aa49 f   LIBCMT:osfinfo.obj
 0001:00039a6b       __fcloseall                0043aa6b f   LIBCMT:closeall.obj
 0001:00039aec       __fflush_lk                0043aaec f   LIBCMT:fflush.obj
 0001:00039b1a       __flush                    0043ab1a f   LIBCMT:fflush.obj
 0001:00039b76       __flushall                 0043ab76 f   LIBCMT:fflush.obj
 0001:00039c23       __mbsnbicoll               0043ac23 f   LIBCMT:mbsnbico.obj
 0001:00039c62       ___wtomb_environ           0043ac62 f   LIBCMT:wtombenv.obj
 0001:00039cd0       __strnicmp                 0043acd0 f   LIBCMT:strnicmp.obj
 0001:00039dd1       ___ld12mul                 0043add1 f   LIBCMT:tenpow.obj
 0001:00039ff1       ___multtenpow12            0043aff1 f   LIBCMT:tenpow.obj
 0001:0003a06d       _fclose                    0043b06d f   LIBCMT:fclose.obj
 0001:0003a09e       __fclose_lk                0043b09e f   LIBCMT:fclose.obj
 0001:0003a0ea       __commit                   0043b0ea f   LIBCMT:commit.obj
 0001:0003a17d       ___crtCompareStringA       0043b17d f   LIBCMT:a_cmp.obj
 0001:0003a425       ___crtsetenv               0043b425 f   LIBCMT:setenv.obj
 0001:0003a66b       __close                    0043b66b f   LIBCMT:close.obj
 0001:0003a6c8       __close_lk                 0043b6c8 f   LIBCMT:close.obj
 0001:0003a74b       __freebuf                  0043b74b f   LIBCMT:_freebuf.obj
 0001:0003a8e0       _CallWndProcFilterProc@12  0043b8e0 f   ctl3d32s:CTL3D.OBJ
 0001:0003ad50       _Ctl3dRegister@4           0043bd50 f   ctl3d32s:CTL3D.OBJ
 0001:0003adc0       _Ctl3dUnregister@4         0043bdc0 f   ctl3d32s:CTL3D.OBJ
 0001:0003ae80       _Ctl3dAutoSubclass@4       0043be80 f   ctl3d32s:CTL3D.OBJ
 0001:0003ae90       _Ctl3dAutoSubclassEx@8     0043be90 f   ctl3d32s:CTL3D.OBJ
 0001:0003afd0       _Ctl3dIsAutoSubclass@0     0043bfd0 f   ctl3d32s:CTL3D.OBJ
 0001:0003b000       _Ctl3dUnAutoSubclass@0     0043c000 f   ctl3d32s:CTL3D.OBJ
 0001:0003b0a0       _Ctl3dSubclassCtl@4        0043c0a0 f   ctl3d32s:CTL3D.OBJ
 0001:0003b0d0       _Ctl3dUnsubclassCtl@4      0043c0d0 f   ctl3d32s:CTL3D.OBJ
 0001:0003b1e0       _Ctl3dSubclassCtlEx@8      0043c1e0 f   ctl3d32s:CTL3D.OBJ
 0001:0003b320       _Ctl3dCheckSubclassDlg@8   0043c320 f   ctl3d32s:CTL3D.OBJ
 0001:0003b3a0       _Ctl3dSubclassDlgEx@8      0043c3a0 f   ctl3d32s:CTL3D.OBJ
 0001:0003b410       _Ctl3dCtlColorEx@12        0043c410 f   ctl3d32s:CTL3D.OBJ
 0001:0003b4a0       _Ctl3dColorChange@0        0043c4a0 f   ctl3d32s:CTL3D.OBJ
 0001:0003b780       _Ctl3dWinIniChange@0       0043c780 f   ctl3d32s:CTL3D.OBJ
 0001:0003bc80       _Ctl3dDlgProc@16           0043cc80 f   ctl3d32s:CTL3D.OBJ
 0001:0003bff0       _Ctl3dHook@12              0043cff0 f   ctl3d32s:CTL3D.OBJ
 0001:0003ce30       _BtnWndProc3d@16           0043de30 f   ctl3d32s:CTL3D.OBJ
 0001:0003d110       _ListEditPaint3d           0043e110 f   ctl3d32s:CTL3D.OBJ
 0001:0003d450       _ShareEditComboWndProc3d   0043e450 f   ctl3d32s:CTL3D.OBJ
 0001:0003d5a0       _EditWndProc3d@16          0043e5a0 f   ctl3d32s:CTL3D.OBJ
 0001:0003d5d0       _SharedListWndProc         0043e5d0 f   ctl3d32s:CTL3D.OBJ
 0001:0003d800       _ListWndProc3d@16          0043e800 f   ctl3d32s:CTL3D.OBJ
 0001:0003d830       _ComboWndProc3d@16         0043e830 f   ctl3d32s:CTL3D.OBJ
 0001:0003d880       _StaticPrint               0043e880 f   ctl3d32s:CTL3D.OBJ
 0001:0003d960       _StaticPaint               0043e960 f   ctl3d32s:CTL3D.OBJ
 0001:0003db00       _StaticWndProc3d@16        0043eb00 f   ctl3d32s:CTL3D.OBJ
 0001:0003dc50       _LibMain                   0043ec50 f   ctl3d32s:CTL3D.OBJ
 0001:0003dd20       _LoadUIBitmap@32           0043ed20 f   ctl3d32s:CTL3D.OBJ
 0001:0003deb7       _WinMain@16                0043eeb7 f   nafxcw:appmodul.obj
 0001:0003decf       ?AfxInitialize@@YGHHK@Z    0043eecf f   nafxcw:appmodul.obj
 0001:0003deed       ?_AfxTermAppState@@YAXXZ   0043eeed f   nafxcw:appmodul.obj
 0001:0003df22       _RtlUnwind@16              0043ef22 f   kernel32:KERNEL32.dll
 0001:0003df28       ?Insert@CString@@QAEHHPBD@Z 0043ef28 f   nafxcw:strex.obj
 0001:0003dfdd       ?Replace@CString@@QAEHDD@Z 0043efdd f   nafxcw:strex.obj
 0001:0003e01a       ?Replace@CString@@QAEHPBD0@Z 0043f01a f   nafxcw:strex.obj
 0001:0003e17d       ?Right@CString@@QBE?AV1@H@Z 0043f17d f   nafxcw:strex.obj
 0001:0003e1f9       ?Left@CString@@QBE?AV1@H@Z 0043f1f9 f   nafxcw:strex.obj
 0001:0003e271       ?ReverseFind@CString@@QBEHD@Z 0043f271 f   nafxcw:strex.obj
 0001:0003e293       ?Find@CString@@QBEHPBD@Z   0043f293 f   nafxcw:strex.obj
 0001:0003e2a1       ?Find@CString@@QBEHPBDH@Z  0043f2a1 f   nafxcw:strex.obj
 0001:0003e2cc       ?FormatV@CString@@QAEXPBDPAD@Z 0043f2cc f   nafxcw:strex.obj
 0001:0003e619       ?Format@CString@@QAAXPBDZZ 0043f619 f   nafxcw:strex.obj
 0001:0003e62c       ?ConstructElements@@YGXPAVCString@@H@Z 0043f62c f   nafxcw:strex.obj
 0001:0003e65a       ?DestructElements@@YGXPAVCString@@H@Z 0043f65a f   nafxcw:strex.obj
 0001:0003e67e       ??0CFileDialog@@QAE@HPBD0K0PAVCWnd@@@Z 0043f67e f   nafxcw:dlgfile.obj
 0001:0003e7c4       ??_GCFileDialog@@UAEPAXI@Z 0043f7c4 f i nafxcw:dlgfile.obj
 0001:0003e7c4       ??_ECFileDialog@@UAEPAXI@Z 0043f7c4 f i nafxcw:dlgfile.obj
 0001:0003e7e0       ?DoModal@CFileDialog@@UAEHXZ 0043f7e0 f   nafxcw:dlgfile.obj
 0001:0003e8bb       ?GetPathName@CFileDialog@@QBE?AVCString@@XZ 0043f8bb f   nafxcw:dlgfile.obj
 0001:0003e9cb       ?OnShareViolation@CFileDialog@@MAEIPBD@Z 0043f9cb f   nafxcw:dlgfile.obj
 0001:0003e9d0       ?OnFileNameOK@CFileDialog@@MAEHXZ 0043f9d0 f   nafxcw:dlgfile.obj
 0001:0003e9d3       ?OnLBSelChangedNotify@CFileDialog@@MAEXIII@Z 0043f9d3 f   nafxcw:dlgfile.obj
 0001:0003e9d6       ?OnInitDone@CFileDialog@@MAEXXZ 0043f9d6 f   nafxcw:dlgfile.obj
 0001:0003e9ef       ?OnFolderChange@CFileDialog@@MAEXXZ 0043f9ef f   nafxcw:dlgfile.obj
 0001:0003e9ef       ?OnFileNameChange@CFileDialog@@MAEXXZ 0043f9ef f   nafxcw:dlgfile.obj
 0001:0003e9ef       ?OnTypeChange@CFileDialog@@MAEXXZ 0043f9ef f   nafxcw:dlgfile.obj
 0001:0003e9f0       ?OnNotify@CFileDialog@@MAEHIJPAJ@Z 0043f9f0 f   nafxcw:dlgfile.obj
 0001:0003eace       ?InitString@CSimpleException@@QAEXXZ 0043face f   nafxcw:except.obj
 0001:0003eaf7       ?GetErrorMessage@CSimpleException@@UAEHPADIPAI@Z 0043faf7 f   nafxcw:except.obj
 0001:0003eb3a       ?AfxThrowMemoryException@@YGXXZ 0043fb3a f   nafxcw:except.obj
 0001:0003eb53       ?AfxThrowNotSupportedException@@YGXXZ 0043fb53 f   nafxcw:except.obj
 0001:0003eb6c       ??0CTime@@QAE@HHHHHHH@Z    0043fb6c f   nafxcw:timecore.obj
 0001:0003ebb8       ??0CTime@@QAE@ABU_SYSTEMTIME@@H@Z 0043fbb8 f   nafxcw:timecore.obj
 0001:0003ec04       ??0CTime@@QAE@ABU_FILETIME@@H@Z 0043fc04 f   nafxcw:timecore.obj
 0001:0003ec50       ?GetTickCount@CTime@@SG?AV1@XZ 0043fc50 f   nafxcw:timecore.obj
 0001:0003ec63       ?GetLocalTm@CTime@@QBEPAUtm@@PAU2@@Z 0043fc63 f   nafxcw:timecore.obj
 0001:0003ec92       ?Format@CTime@@QBE?AVCString@@PBD@Z 0043fc92 f   nafxcw:timecore.obj
 0001:0003ece3       ?GetMessageMap@CCommonDialog@@MBEPBUAFX_MSGMAP@@XZ 0043fce3 f   nafxcw:dlgcomm.obj
 0001:0003ece9       ?_AfxCommDlgProc@@YGIPAUHWND__@@IIJ@Z 0043fce9 f   nafxcw:dlgcomm.obj
 0001:0003ee80       ?OnOK@CCommonDialog@@MAEXXZ 0043fe80 f   nafxcw:dlgcomm.obj
 0001:0003ee97       ?OnCancel@CCommonDialog@@MAEXXZ 0043fe97 f   nafxcw:dlgcomm.obj
 0001:0003ee9c       ?OnHelpInfo@CCommonDialog@@IAEHPAUtagHELPINFO@@@Z 0043fe9c f   nafxcw:dlgcomm.obj
 0001:0003eea4       ?GetMessageMap@CToolTipCtrl@@MBEPBUAFX_MSGMAP@@XZ 0043fea4 f   nafxcw:tooltip.obj
 0001:0003eeaa       ??0CToolTipCtrl@@QAE@XZ    0043feaa f   nafxcw:tooltip.obj
 0001:0003eee3       ??_GCToolTipCtrl@@UAEPAXI@Z 0043fee3 f i nafxcw:tooltip.obj
 0001:0003eee3       ??_ECToolTipCtrl@@UAEPAXI@Z 0043fee3 f i nafxcw:tooltip.obj
 0001:0003eeff       ?Create@CToolTipCtrl@@QAEHPAVCWnd@@K@Z 0043feff f   nafxcw:tooltip.obj
 0001:0003ef54       ??1CToolTipCtrl@@UAE@XZ    0043ff54 f   nafxcw:tooltip.obj
 0001:0003ef9b       ?DestroyToolTipCtrl@CToolTipCtrl@@UAEHXZ 0043ff9b f   nafxcw:tooltip.obj
 0001:0003efb5       ?OnAddTool@CToolTipCtrl@@IAEJIJ@Z 0043ffb5 f   nafxcw:tooltip.obj
 0001:0003f029       ?OnDisableModal@CToolTipCtrl@@IAEJIJ@Z 00440029 f   nafxcw:tooltip.obj
 0001:0003f040       ?OnEnable@CToolTipCtrl@@IAEXH@Z 00440040 f   nafxcw:tooltip.obj
 0001:0003f057       ?OnWindowFromPoint@CToolTipCtrl@@IAEJIJ@Z 00440057 f   nafxcw:tooltip.obj
 0001:0003f0ca       ?AddTool@CToolTipCtrl@@QAEHPAVCWnd@@PBDPBUtagRECT@@I@Z 004400ca f   nafxcw:tooltip.obj
 0001:0003f118       ?DelTool@CToolTipCtrl@@QAEXPAVCWnd@@I@Z 00440118 f   nafxcw:tooltip.obj
 0001:0003f149       ?GetText@CToolTipCtrl@@QBEXAAVCString@@PAVCWnd@@I@Z 00440149 f   nafxcw:tooltip.obj
 0001:0003f194       ?SetToolRect@CToolTipCtrl@@QAEXPAVCWnd@@IPBUtagRECT@@@Z 00440194 f   nafxcw:tooltip.obj
 0001:0003f1d6       ?FillInToolInfo@CToolTipCtrl@@QBEXAAUtagTOOLINFOA@@PAVCWnd@@I@Z 004401d6 f   nafxcw:tooltip.obj
 0001:0003f229       ?_EnableToolTips@CWnd@@QAEHHI@Z 00440229 f   nafxcw:tooltip.obj
 0001:0003f2cc       ?EnableToolTips@CWnd@@QAEHH@Z 004402cc f   nafxcw:tooltip.obj
 0001:0003f2da       ?_AfxRelayToolTipMessage@@YGXPAVCToolTipCtrl@@PAUtagMSG@@@Z 004402da f   nafxcw:tooltip.obj
 0001:0003f35c       ?_FilterToolTipMessage@CWnd@@SGXPAUtagMSG@@PAV1@@Z 0044035c f   nafxcw:tooltip.obj
 0001:0003f36c       ?FilterToolTipMessage@CWnd@@QAEXPAUtagMSG@@@Z 0044036c f   nafxcw:tooltip.obj
 0001:0003f7d8       ?GetMessageMap@CListCtrl@@MBEPBUAFX_MSGMAP@@XZ 004407d8 f   nafxcw:winctrl2.obj
 0001:0003f7de       ??1CListCtrl@@UAE@XZ       004407de f   nafxcw:winctrl2.obj
 0001:0003f816       ?InsertColumn@CListCtrl@@QAEHHPBDHHH@Z 00440816 f   nafxcw:winctrl2.obj
 0001:0003f869       ?InsertItem@CListCtrl@@QAEHIHPBDIIHJ@Z 00440869 f   nafxcw:winctrl2.obj
 0001:0003f8b5       ?HitTest@CListCtrl@@QBEHVCPoint@@PAI@Z 004408b5 f   nafxcw:winctrl2.obj
 0001:0003f8eb       ?SetItem@CListCtrl@@QAEHHHIPBDHIIJ@Z 004408eb f   nafxcw:winctrl2.obj
 0001:0003f939       ?SetItemState@CListCtrl@@QAEHHII@Z 00440939 f   nafxcw:winctrl2.obj
 0001:0003f964       ?SetItemText@CListCtrl@@QAEHHHPBD@Z 00440964 f   nafxcw:winctrl2.obj
 0001:0003f98f       ?GetItemText@CListCtrl@@QBE?AVCString@@HH@Z 0044098f f   nafxcw:winctrl2.obj
 0001:0003fa34       ?GetItemData@CListCtrl@@QBEKH@Z 00440a34 f   nafxcw:winctrl2.obj
 0001:0003fa76       ?RemoveImageList@CListCtrl@@IAEXH@Z 00440a76 f   nafxcw:winctrl2.obj
 0001:0003faaf       ?OnNcDestroy@CListCtrl@@IAEXXZ 00440aaf f   nafxcw:winctrl2.obj
 0001:0003fad4       ?Create@CProgressCtrl@@QAEHKABUtagRECT@@PAVCWnd@@I@Z 00440ad4 f   nafxcw:winctrl2.obj
 0001:0003fb05       ??1CProgressCtrl@@UAE@XZ   00440b05 f   nafxcw:winctrl2.obj
 0001:0003fb3d       ??1CHeaderCtrl@@UAE@XZ     00440b3d f   nafxcw:winctrl2.obj
 0001:0003fb75       ?GetMessageMap@CTabCtrl@@MBEPBUAFX_MSGMAP@@XZ 00440b75 f   nafxcw:winctrl2.obj
 0001:0003fb7b       ??1CTabCtrl@@UAE@XZ        00440b7b f   nafxcw:winctrl2.obj
 0001:0003fbb3       ?DrawItem@CHeaderCtrl@@UAEXPAUtagDRAWITEMSTRUCT@@@Z 00440bb3 f   nafxcw:winctrl2.obj
 0001:0003fbb3       ?DrawItem@CTabCtrl@@UAEXPAUtagDRAWITEMSTRUCT@@@Z 00440bb3 f   nafxcw:winctrl2.obj
 0001:0003fbb3       ?DrawItem@CListCtrl@@UAEXPAUtagDRAWITEMSTRUCT@@@Z 00440bb3 f   nafxcw:winctrl2.obj
 0001:0003fbb6       ?OnChildNotify@CHeaderCtrl@@MAEHIIJPAJ@Z 00440bb6 f   nafxcw:winctrl2.obj
 0001:0003fbb6       ?OnChildNotify@CListCtrl@@MAEHIIJPAJ@Z 00440bb6 f   nafxcw:winctrl2.obj
 0001:0003fbb6       ?OnChildNotify@CTabCtrl@@MAEHIIJPAJ@Z 00440bb6 f   nafxcw:winctrl2.obj
 0001:0003fbe4       ?OnDestroy@CTabCtrl@@IAEXXZ 00440be4 f   nafxcw:winctrl2.obj
 0001:0003fc1e       ?InsertItem@CTabCtrl@@QAEHIHPBDHJ@Z 00440c1e f   nafxcw:winctrl2.obj
 0001:0003fc55       ?afxMapHIMAGELIST@@YGPAVCHandleMap@@H@Z 00440c55 f   nafxcw:winctrl2.obj
 0001:0003fcc7       ??0CImageList@@QAE@XZ      00440cc7 f   nafxcw:winctrl2.obj
 0001:0003fcd4       ??_ECImageList@@UAEPAXI@Z  00440cd4 f i nafxcw:winctrl2.obj
 0001:0003fcd4       ??_GCImageList@@UAEPAXI@Z  00440cd4 f i nafxcw:winctrl2.obj
 0001:0003fcf0       ??1CImageList@@UAE@XZ      00440cf0 f   nafxcw:winctrl2.obj
 0001:0003fd19       ?Detach@CImageList@@QAEPAU_IMAGELIST@@XZ 00440d19 f   nafxcw:winctrl2.obj
 0001:0003fd43       ?DeleteImageList@CImageList@@QAEHXZ 00440d43 f   nafxcw:winctrl2.obj
 0001:0003fd59       ?FromHandle@CImageList@@SGPAV1@PAU_IMAGELIST@@@Z 00440d59 f   nafxcw:winctrl2.obj
 0001:0003fd6e       ?FromHandlePermanent@CImageList@@SGPAV1@PAU_IMAGELIST@@@Z 00440d6e f   nafxcw:winctrl2.obj
 0001:0003fd8c       ?Create@CImageList@@QAEHHHIHH@Z 00440d8c f   nafxcw:winctrl2.obj
 0001:0003fdb4       ?Attach@CImageList@@QAEHPAU_IMAGELIST@@@Z 00440db4 f   nafxcw:winctrl2.obj
 0001:0003fde1       ??0CArchiveStream@@QAE@PAVCArchive@@@Z 00440de1 f   nafxcw:arcstrm.obj
 0001:0003fdf3       ?AddRef@CArchiveStream@@UAGKXZ 00440df3 f   nafxcw:arcstrm.obj
 0001:0003fdf9       ?Release@CArchiveStream@@UAGKXZ 00440df9 f   nafxcw:arcstrm.obj
 0001:0003fdfe       ?QueryInterface@CArchiveStream@@UAGJABU_GUID@@PAPAX@Z 00440dfe f   nafxcw:arcstrm.obj
 0001:0003fe42       ?Read@CArchiveStream@@UAGJPAXKPAK@Z 00440e42 f   nafxcw:arcstrm.obj
 0001:0003fe9a       ?Write@CArchiveStream@@UAGJPBXKPAK@Z 00440e9a f   nafxcw:arcstrm.obj
 0001:0003fef3       ?Seek@CArchiveStream@@UAGJT_LARGE_INTEGER@@KPAT_ULARGE_INTEGER@@@Z 00440ef3 f   nafxcw:arcstrm.obj
 0001:0003ff73       ?Stat@CArchiveStream@@UAGJPAUtagSTATSTG@@K@Z 00440f73 f   nafxcw:arcstrm.obj
 0001:0003ff73       ?SetSize@CArchiveStream@@UAGJT_ULARGE_INTEGER@@@Z 00440f73 f   nafxcw:arcstrm.obj
 0001:0003ff7b       ?LockRegion@CArchiveStream@@UAGJT_ULARGE_INTEGER@@0K@Z 00440f7b f   nafxcw:arcstrm.obj
 0001:0003ff7b       ?CopyTo@CArchiveStream@@UAGJPAUIStream@@T_ULARGE_INTEGER@@PAT3@2@Z 00440f7b f   nafxcw:arcstrm.obj
 0001:0003ff7b       ?UnlockRegion@CArchiveStream@@UAGJT_ULARGE_INTEGER@@0K@Z 00440f7b f   nafxcw:arcstrm.obj
 0001:0003ff83       ?Clone@CArchiveStream@@UAGJPAPAUIStream@@@Z 00440f83 f   nafxcw:arcstrm.obj
 0001:0003ff83       ?Commit@CArchiveStream@@UAGJK@Z 00440f83 f   nafxcw:arcstrm.obj
 0001:0003ff8b       ?Revert@CArchiveStream@@UAGJXZ 00440f8b f   nafxcw:arcstrm.obj
 0001:0003ff93       ?Create@CPlex@@SGPAU1@AAPAU1@II@Z 00440f93 f   nafxcw:plex.obj
 0001:0003ffb3       ?FreeDataChain@CPlex@@QAEXXZ 00440fb3 f   nafxcw:plex.obj
 0001:0003ffc9       ??0CPtrList@@QAE@H@Z       00440fc9 f   nafxcw:list_p.obj
 0001:0003ffec       ??_ECPtrList@@UAEPAXI@Z    00440fec f i nafxcw:list_p.obj
 0001:0003ffec       ??_GCPtrList@@UAEPAXI@Z    00440fec f i nafxcw:list_p.obj
 0001:00040008       ?RemoveAll@CPtrList@@QAEXXZ 00441008 f   nafxcw:list_p.obj
 0001:00040028       ??1CPtrList@@UAE@XZ        00441028 f   nafxcw:list_p.obj
 0001:00040051       ?NewNode@CPtrList@@IAEPAUCNode@1@PAU21@0@Z 00441051 f   nafxcw:list_p.obj
 0001:000400a9       ?FreeNode@CPtrList@@IAEXPAUCNode@1@@Z 004410a9 f   nafxcw:list_p.obj
 0001:000400c2       ?AddTail@CPtrList@@QAEPAU__POSITION@@PAX@Z 004410c2 f   nafxcw:list_p.obj
 0001:000400eb       ?RemoveHead@CPtrList@@QAEPAXXZ 004410eb f   nafxcw:list_p.obj
 0001:0004010f       ?RemoveAt@CPtrList@@QAEXPAU__POSITION@@@Z 0044110f f   nafxcw:list_p.obj
 0001:00040146       ?Find@CPtrList@@QBEPAU__POSITION@@PAXPAU2@@Z 00441146 f   nafxcw:list_p.obj
 0001:00040169       ?SetAtGrow@CPtrArray@@QAEXHPAX@Z 00441169 f   nafxcw:array_p.obj
 0001:00040169       ?SetAtGrow@CUIntArray@@QAEXHI@Z 00441169 f   nafxcw:array_p.obj
 0001:00040190       ?InsertAt@CPtrArray@@QAEXHPAXH@Z 00441190 f   nafxcw:array_p.obj
 0001:00040222       ?RemoveAt@CPtrArray@@QAEXHH@Z 00441222 f   nafxcw:array_p.obj
 0001:00040259       ??0CUIntArray@@QAE@XZ      00441259 f   nafxcw:array_u.obj
 0001:00040270       ??_GCUIntArray@@UAEPAXI@Z  00441270 f i nafxcw:array_u.obj
 0001:00040270       ??_ECUIntArray@@UAEPAXI@Z  00441270 f i nafxcw:array_u.obj
 0001:0004028c       ??1CUIntArray@@UAE@XZ      0044128c f   nafxcw:array_u.obj
 0001:000402b9       ?SetSize@CUIntArray@@QAEXHH@Z 004412b9 f   nafxcw:array_u.obj
 0001:000402b9       ?SetSize@CPtrArray@@QAEXHH@Z 004412b9 f   nafxcw:array_u.obj
 0001:000403d2       ??0CStringArray@@QAE@XZ    004413d2 f   nafxcw:array_s.obj
 0001:000403e9       ??_ECStringArray@@UAEPAXI@Z 004413e9 f i nafxcw:array_s.obj
 0001:000403e9       ??_GCStringArray@@UAEPAXI@Z 004413e9 f i nafxcw:array_s.obj
 0001:00040405       ??1CStringArray@@UAE@XZ    00441405 f   nafxcw:array_s.obj
 0001:00040465       ?SetSize@CStringArray@@QAEXHH@Z 00441465 f   nafxcw:array_s.obj
 0001:000405ae       ?Serialize@CStringArray@@UAEXAAVCArchive@@@Z 004415ae f   nafxcw:array_s.obj
 0001:00040617       ??0CMapPtrToPtr@@QAE@H@Z   00441617 f   nafxcw:map_pp.obj
 0001:0004063e       ??_ECMapPtrToPtr@@UAEPAXI@Z 0044163e f i nafxcw:map_pp.obj
 0001:0004063e       ??_GCMapPtrToPtr@@UAEPAXI@Z 0044163e f i nafxcw:map_pp.obj
 0001:0004065a       ?InitHashTable@CMapStringToPtr@@QAEXIH@Z 0044165a f   nafxcw:map_pp.obj
 0001:0004065a       ?InitHashTable@CMapPtrToPtr@@QAEXIH@Z 0044165a f   nafxcw:map_pp.obj
 0001:0004069f       ?RemoveAll@CMapPtrToPtr@@QAEXXZ 0044169f f   nafxcw:map_pp.obj
 0001:000406ca       ??1CMapPtrToPtr@@UAE@XZ    004416ca f   nafxcw:map_pp.obj
 0001:000406f3       ?NewAssoc@CMapPtrToPtr@@IAEPAUCAssoc@1@XZ 004416f3 f   nafxcw:map_pp.obj
 0001:00040740       ?FreeAssoc@CMapPtrToPtr@@IAEXPAUCAssoc@1@@Z 00441740 f   nafxcw:map_pp.obj
 0001:00040759       ?GetAssocAt@CMapPtrToPtr@@IBEPAUCAssoc@1@PAXAAI@Z 00441759 f   nafxcw:map_pp.obj
 0001:0004078b       ?GetValueAt@CMapPtrToPtr@@QBEPAXPAX@Z 0044178b f   nafxcw:map_pp.obj
 0001:000407be       ??ACMapPtrToPtr@@QAEAAPAXPAX@Z 004417be f   nafxcw:map_pp.obj
 0001:0004080e       ?RemoveKey@CMapPtrToPtr@@QAEHPAX@Z 0044180e f   nafxcw:map_pp.obj
 0001:00040850       ?GetNextAssoc@CMapPtrToPtr@@QBEXAAPAU__POSITION@@AAPAX1@Z 00441850 f   nafxcw:map_pp.obj
 0001:000408c2       ??0CMapStringToPtr@@QAE@H@Z 004418c2 f   nafxcw:map_sp.obj
 0001:000408e9       ??_ECMapStringToPtr@@UAEPAXI@Z 004418e9 f i nafxcw:map_sp.obj
 0001:000408e9       ??_GCMapStringToPtr@@UAEPAXI@Z 004418e9 f i nafxcw:map_sp.obj
 0001:00040905       ?RemoveAll@CMapStringToPtr@@QAEXXZ 00441905 f   nafxcw:map_sp.obj
 0001:00040957       ??1CMapStringToPtr@@UAE@XZ 00441957 f   nafxcw:map_sp.obj
 0001:00040980       ?NewAssoc@CMapStringToPtr@@IAEPAUCAssoc@1@XZ 00441980 f   nafxcw:map_sp.obj
 0001:000409e2       ?GetAssocAt@CMapStringToPtr@@IBEPAUCAssoc@1@PBDAAI@Z 004419e2 f   nafxcw:map_sp.obj
 0001:00040a38       ?Lookup@CMapStringToPtr@@QBEHPBDAAPAX@Z 00441a38 f   nafxcw:map_sp.obj
 0001:00040a5a       ?LookupKey@CMapStringToPtr@@QBEHPBDAAPBD@Z 00441a5a f   nafxcw:map_sp.obj
 0001:00040a7c       ??ACMapStringToPtr@@QAEAAPAXPBD@Z 00441a7c f   nafxcw:map_sp.obj
 0001:00040ade       ?AfxNewHandler@@YAHI@Z     00441ade f   nafxcw:afxmem.obj
 0001:00040ae6       ?AfxSetNewHandler@@YGP6AHI@ZP6AHI@Z@Z 00441ae6 f   nafxcw:afxmem.obj
 0001:00040af8       ??2@YAPAXI@Z               00441af8 f   nafxcw:afxmem.obj
 0001:00040b21       ??3@YAXPAX@Z               00441b21 f   nafxcw:afxmem.obj
 0001:00040b2c       ?AfxDlgProc@@YGHPAUHWND__@@IIJ@Z 00441b2c f   nafxcw:dlgcore.obj
 0001:00040b66       ?GetMessageMap@CDialog@@MBEPBUAFX_MSGMAP@@XZ 00441b66 f   nafxcw:dlgcore.obj
 0001:00040b6c       ?PreTranslateMessage@CDialog@@UAEHPAUtagMSG@@@Z 00441b6c f   nafxcw:dlgcore.obj
 0001:00040c05       ?OnCmdMsg@CDialog@@UAEHIHPAXPAUAFX_CMDHANDLERINFO@@@Z 00441c05 f   nafxcw:dlgcore.obj
 0001:00040c8a       ??0CDialog@@QAE@XZ         00441c8a f   nafxcw:dlgcore.obj
 0001:00040cac       ??_ECDialog@@UAEPAXI@Z     00441cac f i nafxcw:dlgcore.obj
 0001:00040cac       ??_GCDialog@@UAEPAXI@Z     00441cac f i nafxcw:dlgcore.obj
 0001:00040cc8       ??1CDialog@@UAE@XZ         00441cc8 f   nafxcw:dlgcore.obj
 0001:00040d06       ?Create@CDialog@@QAEHPBDPAVCWnd@@@Z 00441d06 f   nafxcw:dlgcore.obj
 0001:00040d55       ?CreateIndirect@CDialog@@IAEHPAXPAVCWnd@@PAUHINSTANCE__@@@Z 00441d55 f   nafxcw:dlgcore.obj
 0001:00040d78       ?CreateIndirect@CDialog@@IAEHPBUDLGTEMPLATE@@PAVCWnd@@PAXPAUHINSTANCE__@@@Z 00441d78 f   nafxcw:dlgcore.obj
 0001:00040da3       ?CreateDlg@CWnd@@IAEHPBDPAV1@@Z 00441da3 f   nafxcw:dlgcore.obj
 0001:00040de7       ?CreateDlgIndirect@CWnd@@IAEHPBUDLGTEMPLATE@@PAV1@PAUHINSTANCE__@@@Z 00441de7 f   nafxcw:dlgcore.obj
 0001:00041009       ?SetOccDialogInfo@CDialog@@MAEHPAU_AFX_OCC_DIALOG_INFO@@@Z 00442009 f   nafxcw:dlgcore.obj
 0001:00041016       ??0CDialog@@QAE@IPAVCWnd@@@Z 00442016 f   nafxcw:dlgcore.obj
 0001:0004104f       ?InitModalIndirect@CDialog@@QAEHPBUDLGTEMPLATE@@PAVCWnd@@PAX@Z 0044204f f   nafxcw:dlgcore.obj
 0001:00041070       ?PreModal@CDialog@@IAEPAUHWND__@@XZ 00442070 f   nafxcw:dlgcore.obj
 0001:000410aa       ?PostModal@CDialog@@IAEXXZ 004420aa f   nafxcw:dlgcore.obj
 0001:000410ec       ?DoModal@CDialog@@UAEHXZ   004420ec f   nafxcw:dlgcore.obj
 0001:0004124c       ?EndDialog@CDialog@@QAEXH@Z 0044224c f   nafxcw:dlgcore.obj
 0001:0004126f       ?HandleSetFont@CDialog@@IAEJIJ@Z 0044226f f   nafxcw:dlgcore.obj
 0001:00041293       ?HandleInitDialog@CDialog@@IAEJIJ@Z 00442293 f   nafxcw:dlgcore.obj
 0001:0004131b       ?AfxHelpEnabled@@YGHXZ     0044231b f   nafxcw:dlgcore.obj
 0001:00041371       ?OnSetFont@CDialog@@UAEXPAVCFont@@@Z 00442371 f   nafxcw:dlgcore.obj
 0001:00041371       ?MeasureItem@CMenu@@UAEXPAUtagMEASUREITEMSTRUCT@@@Z 00442371 f   nafxcw:dlgcore.obj
 0001:00041371       ?SetCheck@CTestCmdUI@@UAEXH@Z 00442371 f   nafxcw:dlgcore.obj
 0001:00041371       ?SetRadio@CTestCmdUI@@UAEXH@Z 00442371 f   nafxcw:dlgcore.obj
 0001:00041371       ?SetText@CTestCmdUI@@UAEXPBD@Z 00442371 f   nafxcw:dlgcore.obj
 0001:00041371       ?DrawItem@CMenu@@UAEXPAUtagDRAWITEMSTRUCT@@@Z 00442371 f   nafxcw:dlgcore.obj
 0001:00041374       ?OnInitDialog@CDialog@@UAEHXZ 00442374 f   nafxcw:dlgcore.obj
 0001:000413d9       ?OnOK@CDialog@@MAEXXZ      004423d9 f   nafxcw:dlgcore.obj
 0001:000413f2       ?OnCancel@CDialog@@MAEXXZ  004423f2 f   nafxcw:dlgcore.obj
 0001:000413fa       ?CheckAutoCenter@CDialog@@UAEHXZ 004423fa f   nafxcw:dlgcore.obj
 0001:00041476       ?OnCtlColor@CDialog@@IAEPAUHBRUSH__@@PAVCDC@@PAVCWnd@@I@Z 00442476 f   nafxcw:dlgcore.obj
 0001:0004148a       ?OnCommandHelp@CDialog@@IAEJIJ@Z 0044248a f   nafxcw:dlgcore.obj
 0001:000414c8       ?OnHelpHitTest@CDialog@@IAEJIJ@Z 004424c8 f   nafxcw:dlgcore.obj
 0001:000415e9       ??0CWnd@@QAE@XZ            004425e9 f   nafxcw:wincore.obj
 0001:0004160b       ??_GCWnd@@UAEPAXI@Z        0044260b f i nafxcw:wincore.obj
 0001:0004160b       ??_ECWnd@@UAEPAXI@Z        0044260b f i nafxcw:wincore.obj
 0001:00041627       ??0CWnd@@AAE@PAUHWND__@@@Z 00442627 f   nafxcw:wincore.obj
 0001:00041653       ?_AfxModifyStyle@@YGHPAUHWND__@@HKKI@Z 00442653 f   nafxcw:wincore.obj
 0001:000416a2       ?ModifyStyle@CWnd@@SGHPAUHWND__@@KKI@Z 004426a2 f   nafxcw:wincore.obj
 0001:000416bc       ?ModifyStyleEx@CWnd@@SGHPAUHWND__@@KKI@Z 004426bc f   nafxcw:wincore.obj
 0001:000416d6       ?_AfxPreInitDialog@@YGXPAVCWnd@@PAUtagRECT@@PAK@Z 004426d6 f   nafxcw:wincore.obj
 0001:000416f9       ?_AfxPostInitDialog@@YGXPAVCWnd@@ABUtagRECT@@K@Z 004426f9 f   nafxcw:wincore.obj
 0001:00041772       ?_AfxHandleActivate@@YGXPAVCWnd@@I0@Z 00442772 f   nafxcw:wincore.obj
 0001:000417d3       ?_AfxHandleSetCursor@@YGHPAVCWnd@@II@Z 004427d3 f   nafxcw:wincore.obj
 0001:00041849       ?AfxCallWndProc@@YGJPAVCWnd@@PAUHWND__@@IIJ@Z 00442849 f   nafxcw:wincore.obj
 0001:00041946       ?GetCurrentMessage@CWnd@@KGPBUtagMSG@@XZ 00442946 f   nafxcw:wincore.obj
 0001:0004197b       ?Default@CWnd@@IAEJXZ      0044297b f   nafxcw:wincore.obj
 0001:000419a2       ?afxMapHWND@@YGPAVCHandleMap@@H@Z 004429a2 f   nafxcw:wincore.obj
 0001:00041a14       ?FromHandle@CWnd@@SGPAV1@PAUHWND__@@@Z 00442a14 f   nafxcw:wincore.obj
 0001:00041a3b       ?FromHandlePermanent@CWnd@@SGPAV1@PAUHWND__@@@Z 00442a3b f   nafxcw:wincore.obj
 0001:00041a59       ?Attach@CWnd@@QAEHPAUHWND__@@@Z 00442a59 f   nafxcw:wincore.obj
 0001:00041a92       ?Detach@CWnd@@QAEPAUHWND__@@XZ 00442a92 f   nafxcw:wincore.obj
 0001:00041ac0       ?AfxWndProc@@YGJPAUHWND__@@IIJ@Z 00442ac0 f   nafxcw:wincore.obj
 0001:00041b0b       ?AfxGetAfxWndProc@@YGP6GJPAUHWND__@@IIJ@ZXZ 00442b0b f   nafxcw:wincore.obj
 0001:00041b11       ?_AfxActivationWndProc@@YGJPAUHWND__@@IIJ@Z 00442b11 f   nafxcw:wincore.obj
 0001:00041c70       ?_AfxGrayBackgroundWndProc@@YGJPAUHWND__@@IIJ@Z 00442c70 f   nafxcw:wincore.obj
 0001:00041cec       ?_AfxCbtFilterHook@@YGJHIJ@Z 00442cec f   nafxcw:wincore.obj
 0001:00041ee2       ?AfxHookWindowCreate@@YGXPAVCWnd@@@Z 00442ee2 f   nafxcw:wincore.obj
 0001:00041f2e       ?AfxUnhookWindowCreate@@YGHXZ 00442f2e f   nafxcw:wincore.obj
 0001:00041f70       ?CreateEx@CWnd@@QAEHKPBD0KHHHHPAUHWND__@@PAUHMENU__@@PAX@Z 00442f70 f   nafxcw:wincore.obj
 0001:00042036       ?PreCreateWindow@CWnd@@UAEHAAUtagCREATESTRUCTA@@@Z 00443036 f   nafxcw:wincore.obj
 0001:00042056       ?Create@CWnd@@UAEHPBD0KABUtagRECT@@PAV1@IPAUCCreateContext@@@Z 00443056 f   nafxcw:wincore.obj
 0001:000420a2       ??1CWnd@@UAE@XZ            004430a2 f   nafxcw:wincore.obj
 0001:0004211e       ?OnDestroy@CWnd@@IAEXXZ    0044311e f   nafxcw:wincore.obj
 0001:0004213c       ?OnNcDestroy@CWnd@@IAEXXZ  0044313c f   nafxcw:wincore.obj
 0001:0004224e       ?PreSubclassWindow@CWnd@@UAEXXZ 0044324e f   nafxcw:wincore.obj
 0001:0004224e       ?PreInitDialog@CDialog@@MAEXXZ 0044324e f   nafxcw:wincore.obj
 0001:0004224e       ?PostNcDestroy@CWnd@@MAEXXZ 0044324e f   nafxcw:wincore.obj
 0001:0004224f       ?OnFinalRelease@CWnd@@UAEXXZ 0044324f f   nafxcw:wincore.obj
 0001:00042260       ?DestroyWindow@CWnd@@UAEHXZ 00443260 f   nafxcw:wincore.obj
 0001:000422ad       ?DefWindowProcA@CWnd@@MAEJIIJ@Z 004432ad f   nafxcw:wincore.obj
 0001:000422f4       ?GetSuperWndProcAddr@CWnd@@MAEPAP6GJPAUHWND__@@IIJ@ZXZ 004432f4 f   nafxcw:wincore.obj
 0001:000422f8       ?PreTranslateMessage@CWnd@@UAEHPAUtagMSG@@@Z 004432f8 f   nafxcw:wincore.obj
 0001:00042317       ?CancelToolTips@CWnd@@SGXH@Z 00443317 f   nafxcw:wincore.obj
 0001:0004236e       ?OnToolHitTest@CWnd@@UBEHVCPoint@@PAUtagTOOLINFOA@@@Z 0044336e f   nafxcw:wincore.obj
 0001:000423df       ?GetWindowTextA@CWnd@@QBEXAAVCString@@@Z 004433df f   nafxcw:wincore.obj
 0001:00042427       ?GetDlgItemTextA@CWnd@@QBEHHAAVCString@@@Z 00443427 f   nafxcw:wincore.obj
 0001:00042497       ?OnDrawItem@CWnd@@IAEXHPAUtagDRAWITEMSTRUCT@@@Z 00443497 f   nafxcw:wincore.obj
 0001:000424d4       ?OnCompareItem@CWnd@@IAEHHPAUtagCOMPAREITEMSTRUCT@@@Z 004434d4 f   nafxcw:wincore.obj
 0001:000424fe       ?OnDeleteItem@CWnd@@IAEXHPAUtagDELETEITEMSTRUCT@@@Z 004434fe f   nafxcw:wincore.obj
 0001:0004251e       ?OnVKeyToItem@CWnd@@IAEHIPAVCListBox@@I@Z 0044351e f   nafxcw:wincore.obj
 0001:0004251e       ?OnCharToItem@CWnd@@IAEHIPAVCListBox@@I@Z 0044351e f   nafxcw:wincore.obj
 0001:00042549       ?TrackPopupMenu@CMenu@@QAEHIHHPAVCWnd@@PBUtagRECT@@@Z 00443549 f   nafxcw:wincore.obj
 0001:0004259d       ?_AfxFindPopupMenuFromID@@YGPAVCMenu@@PAV1@I@Z 0044359d f   nafxcw:wincore.obj
 0001:00042600       ?OnMeasureItem@CWnd@@IAEXHPAUtagMEASUREITEMSTRUCT@@@Z 00443600 f   nafxcw:wincore.obj
 0001:00042678       ?AfxRegisterClass@@YGHPAUtagWNDCLASSA@@@Z 00443678 f   nafxcw:wincore.obj
 0001:00042719       ?AfxRegisterWndClass@@YGPBDIPAUHICON__@@PAUHBRUSH__@@0@Z 00443719 f   nafxcw:wincore.obj
 0001:000427cd       ?OnNTCtlColor@CWnd@@IAEJIJ@Z 004437cd f   nafxcw:wincore.obj
 0001:00042813       ?WinHelpA@CWnd@@UAEXKI@Z   00443813 f   nafxcw:wincore.obj
 0001:000428f5       ?GetMessageMap@CWnd@@MBEPBUAFX_MSGMAP@@XZ 004438f5 f   nafxcw:wincore.obj
 0001:000428fb       ?AfxFindMessageEntry@@YGPBUAFX_MSGMAP_ENTRY@@PBU1@III@Z 004438fb f   nafxcw:wincore.obj
 0001:0004293b       ?WindowProc@CWnd@@MAEJIIJ@Z 0044393b f   nafxcw:wincore.obj
 0001:0004297f       ?OnWndMsg@CWnd@@MAEHIIJPAJ@Z 0044397f f   nafxcw:wincore.obj
 0001:00042ef1       ??0CTestCmdUI@@QAE@XZ      00443ef1 f   nafxcw:wincore.obj
 0001:00042f0a       ?Enable@CTestCmdUI@@UAEXH@Z 00443f0a f   nafxcw:wincore.obj
 0001:00042f1b       ?OnCommand@CWnd@@MAEHIJ@Z  00443f1b f   nafxcw:wincore.obj
 0001:00042fa7       ?OnNotify@CWnd@@MAEHIJPAJ@Z 00443fa7 f   nafxcw:wincore.obj
 0001:00043021       ?GetParentFrame@CWnd@@QBEPAVCFrameWnd@@XZ 00444021 f   nafxcw:wincore.obj
 0001:0004305f       ?AfxGetParentOwner@@YGPAUHWND__@@PAU1@@Z 0044405f f   nafxcw:wincore.obj
 0001:000430a4       ?GetTopLevelParent@CWnd@@QBEPAV1@XZ 004440a4 f   nafxcw:wincore.obj
 0001:000430cc       ?GetParentOwner@CWnd@@QBEPAV1@XZ 004440cc f   nafxcw:wincore.obj
 0001:00043110       ?IsTopParentActive@CWnd@@QBEHXZ 00444110 f   nafxcw:wincore.obj
 0001:00043144       ?ActivateTopParent@CWnd@@QAEXXZ 00444144 f   nafxcw:wincore.obj
 0001:00043181       ?GetTopLevelFrame@CWnd@@QBEPAVCFrameWnd@@XZ 00444181 f   nafxcw:wincore.obj
 0001:000431c2       ?MessageBoxA@CWnd@@QAEHPBD0I@Z 004441c2 f   nafxcw:wincore.obj
 0001:000431f4       ?GetDescendantWindow@CWnd@@SGPAV1@PAUHWND__@@HH@Z 004441f4 f   nafxcw:wincore.obj
 0001:0004326d       ?SendMessageToDescendants@CWnd@@SGXPAUHWND__@@IIJHH@Z 0044426d f   nafxcw:wincore.obj
 0001:000432ea       ?GetDispatchIID@CCmdTarget@@UAEHPAU_GUID@@@Z 004442ea f   nafxcw:wincore.obj
 0001:000432ea       ?SetOccDialogInfo@CWnd@@MAEHPAU_AFX_OCC_DIALOG_INFO@@@Z 004442ea f   nafxcw:wincore.obj
 0001:000432ea       ?GetScrollBarCtrl@CWnd@@UBEPAVCScrollBar@@H@Z 004442ea f   nafxcw:wincore.obj
 0001:000432ea       ?GetConnectionHook@CCmdTarget@@MAEPAUIConnectionPoint@@ABU_GUID@@@Z 004442ea f   nafxcw:wincore.obj
 0001:000432ea       ?GetInterfaceHook@CCmdTarget@@UAEPAUIUnknown@@PBX@Z 004442ea f   nafxcw:wincore.obj
 0001:000432ea       ?GetExtraConnectionPoints@CCmdTarget@@MAEHPAVCPtrArray@@@Z 004442ea f   nafxcw:wincore.obj
 0001:000432ef       ?SetScrollPos@CWnd@@QAEHHHH@Z 004442ef f   nafxcw:wincore.obj
 0001:0004331f       ?GetScrollPos@CWnd@@QBEHH@Z 0044431f f   nafxcw:wincore.obj
 0001:00043347       ?SetScrollRange@CWnd@@QAEXHHHH@Z 00444347 f   nafxcw:wincore.obj
 0001:0004337a       ?GetScrollRange@CWnd@@QBEXHPAH0@Z 0044437a f   nafxcw:wincore.obj
 0001:000433aa       ?EnableScrollBarCtrl@CWnd@@QAEXHH@Z 004443aa f   nafxcw:wincore.obj
 0001:000433ed       ?SetScrollInfo@CWnd@@QAEHHPAUtagSCROLLINFO@@H@Z 004443ed f   nafxcw:wincore.obj
 0001:0004343a       ?GetScrollInfo@CWnd@@QAEHHPAUtagSCROLLINFO@@I@Z 0044443a f   nafxcw:wincore.obj
 0001:00043487       ?GetScrollLimit@CWnd@@QAEHH@Z 00444487 f   nafxcw:wincore.obj
 0001:000434ce       ?ScrollWindow@CWnd@@QAEXHHPBUtagRECT@@0@Z 004444ce f   nafxcw:wincore.obj
 0001:00043574       ?RepositionBars@CWnd@@QAEXIIIIPAUtagRECT@@PBU2@H@Z 00444574 f   nafxcw:wincore.obj
 0001:000436ae       ?AfxRepositionWindow@@YGXPAUAFX_SIZEPARENTPARAMS@@PAUHWND__@@PBUtagRECT@@@Z 004446ae f   nafxcw:wincore.obj
 0001:00043748       ?CalcWindowRect@CWnd@@UAEXPAUtagRECT@@I@Z 00444748 f   nafxcw:wincore.obj
 0001:00043773       ?WalkPreTranslateTree@CWnd@@SGHPAUHWND__@@PAUtagMSG@@@Z 00444773 f   nafxcw:wincore.obj
 0001:000437b5       ?SendChildNotifyLastMsg@CWnd@@QAEHPAJ@Z 004447b5 f   nafxcw:wincore.obj
 0001:000437e2       ?ReflectLastMsg@CWnd@@KGHPAUHWND__@@PAJ@Z 004447e2 f   nafxcw:wincore.obj
 0001:00043886       ?OnChildNotify@CWnd@@MAEHIIJPAJ@Z 00444886 f   nafxcw:wincore.obj
 0001:000438e1       ?ReflectChildNotify@CWnd@@IAEHIIJPAJ@Z 004448e1 f   nafxcw:wincore.obj
 0001:000439c9       ?OnParentNotify@CWnd@@IAEXIJ@Z 004449c9 f   nafxcw:wincore.obj
 0001:000439f6       ?OnActivateTopLevel@CWnd@@IAEJIJ@Z 004449f6 f   nafxcw:wincore.obj
 0001:00043a18       ?OnSysColorChange@CWnd@@IAEXXZ 00444a18 f   nafxcw:wincore.obj
 0001:00043a95       ?OnSettingChange@CWnd@@IAEXIPBD@Z 00444a95 f   nafxcw:wincore.obj
 0001:00043ae8       ?OnDevModeChange@CWnd@@IAEXPAD@Z 00444ae8 f   nafxcw:wincore.obj
 0001:00043b33       ?OnHelpInfo@CWnd@@IAEHPAUtagHELPINFO@@@Z 00444b33 f   nafxcw:wincore.obj
 0001:00043b97       ?OnDisplayChange@CWnd@@IAEJIJ@Z 00444b97 f   nafxcw:wincore.obj
 0001:00043be0       ?OnDragList@CWnd@@IAEJIJ@Z 00444be0 f   nafxcw:wincore.obj
 0001:00043c0a       ?OnVScroll@CWnd@@IAEXIIPAVCScrollBar@@@Z 00444c0a f   nafxcw:wincore.obj
 0001:00043c0a       ?OnHScroll@CWnd@@IAEXIIPAVCScrollBar@@@Z 00444c0a f   nafxcw:wincore.obj
 0001:00043c2b       ?OnEnterIdle@CWnd@@IAEXIPAV1@@Z 00444c2b f   nafxcw:wincore.obj
 0001:00043c75       ?OnCtlColor@CWnd@@IAEPAUHBRUSH__@@PAVCDC@@PAV1@I@Z 00444c75 f   nafxcw:wincore.obj
 0001:00043c9c       ?OnGrayCtlColor@CWnd@@QAEPAUHBRUSH__@@PAVCDC@@PAV1@I@Z 00444c9c f   nafxcw:wincore.obj
 0001:00043cff       ?GrayCtlColor@CWnd@@SGHPAUHDC__@@PAUHWND__@@IPAUHBRUSH__@@K@Z 00444cff f   nafxcw:wincore.obj
 0001:00043d74       ?OnQuery3dControls@CWnd@@IAEJIJ@Z 00444d74 f   nafxcw:wincore.obj
 0001:00043d7c       ?UpdateData@CWnd@@QAEHH@Z  00444d7c f   nafxcw:wincore.obj
 0001:00043e1e       ??0CDataExchange@@QAE@PAVCWnd@@H@Z 00444e1e f   nafxcw:wincore.obj
 0001:00043e34       ?CenterWindow@CWnd@@QAEXPAV1@@Z 00444e34 f   nafxcw:wincore.obj
 0001:00043fe9       ?ExecuteDlgInit@CWnd@@QAEHPBD@Z 00444fe9 f   nafxcw:wincore.obj
 0001:00044039       ?ExecuteDlgInit@CWnd@@QAEHPAX@Z 00445039 f   nafxcw:wincore.obj
 0001:0004410b       ?UpdateDialogControls@CWnd@@QAEXPAVCCmdTarget@@H@Z 0044510b f   nafxcw:wincore.obj
 0001:00044210       ?PreTranslateInput@CWnd@@QAEHPAUtagMSG@@@Z 00445210 f   nafxcw:wincore.obj
 0001:00044240       ?RunModalLoop@CWnd@@QAEHK@Z 00445240 f   nafxcw:wincore.obj
 0001:0004439f       ?ContinueModal@CWnd@@UAEHXZ 0044539f f   nafxcw:wincore.obj
 0001:000443a6       ?EndModalLoop@CWnd@@UAEXH@Z 004453a6 f   nafxcw:wincore.obj
 0001:000443ca       ?_AfxRegisterWithIcon@@YGHPAUtagWNDCLASSA@@PBDI@Z 004453ca f   nafxcw:wincore.obj
 0001:0004440b       ?_AfxInitCommonControls@@YGJPAUtagINITCOMMONCONTROLSEX@@J@Z 0044540b f   nafxcw:wincore.obj
 0001:00044482       ?AfxEndDeferRegisterClass@@YGHJ@Z 00445482 f   nafxcw:wincore.obj
 0001:00044739       ?IsFrameWnd@CFrameWnd@@UBEHXZ 00445739 f   nafxcw:wincore.obj
 0001:00044739       ?CheckAutoCenter@CWnd@@UAEHXZ 00445739 f   nafxcw:wincore.obj
 0001:00044739       ?OnCreateAggregates@CCmdTarget@@UAEHXZ 00445739 f   nafxcw:wincore.obj
 0001:0004473d       ?IsTracking@CFrameWnd@@QBEHXZ 0044573d f   nafxcw:wincore.obj
 0001:0004475c       ?SubclassWindow@CWnd@@QAEHPAUHWND__@@@Z 0044575c f   nafxcw:wincore.obj
 0001:0004479f       ?SubclassDlgItem@CWnd@@QAEHIPAV1@@Z 0044579f f   nafxcw:wincore.obj
 0001:00044806       ?UnsubclassWindow@CWnd@@QAEPAUHWND__@@XZ 00445806 f   nafxcw:wincore.obj
 0001:0004482e       ??3CTempWnd@@SAXPAX@Z      0044582e f i nafxcw:wincore.obj
 0001:0004483d       ?OnAmbientProperty@CWnd@@UAEHPAVCOleControlSite@@JPAUtagVARIANT@@@Z 0044583d f   nafxcw:winocc.obj
 0001:00044854       ?GetDlgItem@CWnd@@QBEPAV1@H@Z 00445854 f   nafxcw:winocc.obj
 0001:0004487e       ?GetDlgItem@CWnd@@QBEXHPAPAUHWND__@@@Z 0044587e f   nafxcw:winocc.obj
 0001:000448ac       ?SetDlgItemTextA@CWnd@@QAEXHPBD@Z 004458ac f   nafxcw:winocc.obj
 0001:000448db       ?IsDialogMessageA@CWnd@@QAEHPAUtagMSG@@@Z 004458db f   nafxcw:winocc.obj
 0001:0004490e       ?GetStyle@CWnd@@QBEKXZ     0044590e f   nafxcw:winocc.obj
 0001:00044928       ?GetExStyle@CWnd@@QBEKXZ   00445928 f   nafxcw:winocc.obj
 0001:00044942       ?ModifyStyle@CWnd@@QAEHKKI@Z 00445942 f   nafxcw:winocc.obj
 0001:00044973       ?ModifyStyleEx@CWnd@@QAEHKKI@Z 00445973 f   nafxcw:winocc.obj
 0001:000449a4       ?SetWindowTextA@CWnd@@QAEXPBD@Z 004459a4 f   nafxcw:winocc.obj
 0001:000449cb       ?GetWindowTextA@CWnd@@QBEHPADH@Z 004459cb f   nafxcw:winocc.obj
 0001:000449fa       ?GetWindowTextLengthA@CWnd@@QBEHXZ 004459fa f   nafxcw:winocc.obj
 0001:00044a15       ?GetDlgCtrlID@CWnd@@QBEHXZ 00445a15 f   nafxcw:winocc.obj
 0001:00044a30       ?SetDlgCtrlID@CWnd@@QAEHH@Z 00445a30 f   nafxcw:winocc.obj
 0001:00044a59       ?MoveWindow@CWnd@@QAEXHHHHH@Z 00445a59 f   nafxcw:winocc.obj
 0001:00044a9a       ?SetWindowPos@CWnd@@QAEHPBV1@HHHHI@Z 00445a9a f   nafxcw:winocc.obj
 0001:00044ae9       ?ShowWindow@CWnd@@QAEHH@Z  00445ae9 f   nafxcw:winocc.obj
 0001:00044b10       ?IsWindowEnabled@CWnd@@QBEHXZ 00445b10 f   nafxcw:winocc.obj
 0001:00044b2b       ?EnableWindow@CWnd@@QAEHH@Z 00445b2b f   nafxcw:winocc.obj
 0001:00044b52       ?SetFocus@CWnd@@QAEPAV1@XZ 00445b52 f   nafxcw:winocc.obj
 0001:00044b73       ?InvokeHelper@CWnd@@QAAXJGGPAXPBEZZ 00445b73 f   nafxcw:winocc.obj
 0001:00044b9a       ?GetProperty@CWnd@@QBEXJGPAX@Z 00445b9a f   nafxcw:winocc.obj
 0001:00044bbc       ?AttachControlSite@CWnd@@IAEXPAVCHandleMap@@@Z 00445bbc f   nafxcw:winocc.obj
 0001:00044bf9       ?AttachControlSite@CWnd@@QAEXPAV1@@Z 00445bf9 f   nafxcw:winocc.obj
 0001:00044c18       ?AttachControlSite@COleControlContainer@@UAEXPAVCWnd@@@Z 00445c18 f   nafxcw:winocc.obj
 0001:00044c46       ??0CCmdTarget@@QAE@XZ      00445c46 f   nafxcw:cmdtarg.obj
 0001:00044c60       ??1CCmdTarget@@UAE@XZ      00445c60 f   nafxcw:cmdtarg.obj
 0001:00044c8b       ?_AfxDispatchCmdMsg@@YGHPAVCCmdTarget@@IHP81@AEXXZPAXIPAUAFX_CMDHANDLERINFO@@@Z 00445c8b f   nafxcw:cmdtarg.obj
 0001:00044d92       ?OnCmdMsg@CCmdTarget@@UAEHIHPAXPAUAFX_CMDHANDLERINFO@@@Z 00445d92 f   nafxcw:cmdtarg.obj
 0001:00044ea1       ?IsInvokeAllowed@CCmdTarget@@UAEHJ@Z 00445ea1 f   nafxcw:cmdtarg.obj
 0001:00044ea7       ?GetTypeLibCache@CCmdTarget@@UAEPAVCTypeLibCache@@XZ 00445ea7 f   nafxcw:cmdtarg.obj
 0001:00044ea7       ?InitInstance@CWinThread@@UAEHXZ 00445ea7 f   nafxcw:cmdtarg.obj
 0001:00044ea7       ?IsFrameWnd@CWnd@@UBEHXZ   00445ea7 f   nafxcw:cmdtarg.obj
 0001:00044ea7       ?GetTypeInfoCount@CCmdTarget@@UAEIXZ 00445ea7 f   nafxcw:cmdtarg.obj
 0001:00044eaa       ?GetTypeLib@CCmdTarget@@UAEJKPAPAUITypeLib@@@Z 00445eaa f   nafxcw:cmdtarg.obj
 0001:00044eb2       ?BeginWaitCursor@CCmdTarget@@QAEXXZ 00445eb2 f   nafxcw:cmdtarg.obj
 0001:00044ec7       ?EndWaitCursor@CCmdTarget@@QAEXXZ 00445ec7 f   nafxcw:cmdtarg.obj
 0001:00044edc       ?GetMessageMap@CCmdTarget@@MBEPBUAFX_MSGMAP@@XZ 00445edc f   nafxcw:cmdtarg.obj
 0001:00044ee2       ?GetDispatchMap@CCmdTarget@@MBEPBUAFX_DISPMAP@@XZ 00445ee2 f   nafxcw:cmdtarg.obj
 0001:00044ee8       ?GetEventSinkMap@CCmdTarget@@MBEPBUAFX_EVENTSINKMAP@@XZ 00445ee8 f   nafxcw:cmdtarg.obj
 0001:00044eee       ?GetInterfaceMap@CCmdTarget@@MBEPBUAFX_INTERFACEMAP@@XZ 00445eee f   nafxcw:cmdtarg.obj
 0001:00044ef4       ?OnFinalRelease@CCmdTarget@@UAEXXZ 00445ef4 f   nafxcw:cmdtarg.obj
 0001:00044f26       ?GetConnectionMap@CCmdTarget@@MBEPBUAFX_CONNECTIONMAP@@XZ 00445f26 f   nafxcw:cmdtarg.obj
 0001:00044f2c       ?GetCommandMap@CCmdTarget@@MBEPBUAFX_OLECMDMAP@@XZ 00445f2c f   nafxcw:cmdtarg.obj
 0001:00044f32       ??0CCmdUI@@QAE@XZ          00445f32 f   nafxcw:cmdtarg.obj
 0001:00044f58       ?Enable@CCmdUI@@UAEXH@Z    00445f58 f   nafxcw:cmdtarg.obj
 0001:00044fe8       ?SetCheck@CCmdUI@@UAEXH@Z  00445fe8 f   nafxcw:cmdtarg.obj
 0001:0004504a       ?SetRadio@CCmdUI@@UAEXH@Z  0044604a f   nafxcw:cmdtarg.obj
 0001:000450a0       ?SetText@CCmdUI@@UAEXPBD@Z 004460a0 f   nafxcw:cmdtarg.obj
 0001:000450f7       ?DoUpdate@CCmdUI@@QAEHPAVCCmdTarget@@H@Z 004460f7 f   nafxcw:cmdtarg.obj
 0001:00045158       ??0CString@@QAE@ABV0@@Z    00446158 f   nafxcw:strcore.obj
 0001:00045250       ?AllocBuffer@CString@@IAEXH@Z 00446250 f   nafxcw:strcore.obj
 0001:000452d2       ?FreeData@CString@@KIXPAUCStringData@@@Z 004462d2 f   nafxcw:strcore.obj
 0001:0004531a       ?Release@CString@@IAEXXZ   0044631a f   nafxcw:strcore.obj
 0001:0004534b       ?Release@CString@@KGXPAUCStringData@@@Z 0044634b f   nafxcw:strcore.obj
 0001:0004536e       ?Empty@CString@@QAEXXZ     0044636e f   nafxcw:strcore.obj
 0001:0004538c       ?CopyBeforeWrite@CString@@IAEXXZ 0044638c f   nafxcw:strcore.obj
 0001:000453ba       ?AllocBeforeWrite@CString@@IAEXH@Z 004463ba f   nafxcw:strcore.obj
 0001:000453e3       ??1CString@@QAE@XZ         004463e3 f   nafxcw:strcore.obj
 0001:0004540d       ?AllocCopy@CString@@IBEXAAV1@HHH@Z 0044640d f   nafxcw:strcore.obj
 0001:00045451       ??0CString@@QAE@PBD@Z      00446451 f   nafxcw:strcore.obj
 0001:000454a3       ??0CString@@QAE@PBG@Z      004464a3 f   nafxcw:strcore.obj
 0001:000454ef       ?AssignCopy@CString@@IAEXHPBD@Z 004464ef f   nafxcw:strcore.obj
 0001:0004551c       ??4CString@@QAEABV0@ABV0@@Z 0044651c f   nafxcw:strcore.obj
 0001:0004556c       ??4CString@@QAEABV0@PBD@Z  0044656c f   nafxcw:strcore.obj
 0001:00045593       ??4CString@@QAEABV0@PBG@Z  00446593 f   nafxcw:strcore.obj
 0001:000455d4       ?ConcatCopy@CString@@IAEXHPBDH0@Z 004465d4 f   nafxcw:strcore.obj
 0001:00045612       ??H@YG?AVCString@@ABV0@0@Z 00446612 f   nafxcw:strcore.obj
 0001:00045678       ??H@YG?AVCString@@ABV0@PBD@Z 00446678 f   nafxcw:strcore.obj
 0001:000456ec       ??H@YG?AVCString@@PBDABV0@@Z 004466ec f   nafxcw:strcore.obj
 0001:00045760       ?ConcatInPlace@CString@@IAEXHPBD@Z 00446760 f   nafxcw:strcore.obj
 0001:000457bf       ??YCString@@QAEABV0@PBD@Z  004467bf f   nafxcw:strcore.obj
 0001:000457e6       ??YCString@@QAEABV0@D@Z    004467e6 f   nafxcw:strcore.obj
 0001:000457fb       ??YCString@@QAEABV0@ABV0@@Z 004467fb f   nafxcw:strcore.obj
 0001:00045813       ?GetBuffer@CString@@QAEPADH@Z 00446813 f   nafxcw:strcore.obj
 0001:00045862       ?ReleaseBuffer@CString@@QAEXH@Z 00446862 f   nafxcw:strcore.obj
 0001:0004588a       ?GetBufferSetLength@CString@@QAEPADH@Z 0044688a f   nafxcw:strcore.obj
 0001:000458aa       ?Find@CString@@QBEHD@Z     004468aa f   nafxcw:strcore.obj
 0001:000458b8       ?Find@CString@@QBEHDH@Z    004468b8 f   nafxcw:strcore.obj
 0001:000458e5       ?FindOneOf@CString@@QBEHPBD@Z 004468e5 f   nafxcw:strcore.obj
 0001:00045905       ?MakeLower@CString@@QAEXXZ 00446905 f   nafxcw:strcore.obj
 0001:00045917       ?_wcstombsz@@YAHPADPBGI@Z  00446917 f   nafxcw:strcore.obj
 0001:0004594d       ?_mbstowcsz@@YAHPAGPBDI@Z  0044694d f   nafxcw:strcore.obj
 0001:00045982       ?AfxA2WHelper@@YGPAGPAGPBDH@Z 00446982 f   nafxcw:strcore.obj
 0001:000459ab       ?LoadStringA@CString@@QAEHI@Z 004469ab f   nafxcw:winstr.obj
 0001:00045a2f       ?AfxLoadString@@YGHIPADI@Z 00446a2f f   nafxcw:winstr.obj
 0001:00045a56       ?AfxExtractSubString@@YGHAAVCString@@PBDHD@Z 00446a56 f   nafxcw:winstr.obj
 0001:00045ace       ??0CFile@@QAE@XZ           00446ace f   nafxcw:filecore.obj
 0001:00045ae8       ??_GCFile@@UAEPAXI@Z       00446ae8 f i nafxcw:filecore.obj
 0001:00045ae8       ??_ECFile@@UAEPAXI@Z       00446ae8 f i nafxcw:filecore.obj
 0001:00045b04       ??0CFile@@QAE@H@Z          00446b04 f   nafxcw:filecore.obj
 0001:00045b23       ??1CFile@@UAE@XZ           00446b23 f   nafxcw:filecore.obj
 0001:00045b6b       ?Duplicate@CFile@@UBEPAV1@XZ 00446b6b f   nafxcw:filecore.obj
 0001:00045be0       ?Open@CFile@@UAEHPBDIPAVCFileException@@@Z 00446be0 f   nafxcw:filecore.obj
 0001:00045cfd       ?Read@CFile@@UAEIPAXI@Z    00446cfd f   nafxcw:filecore.obj
 0001:00045d37       ?Write@CFile@@UAEXPBXI@Z   00446d37 f   nafxcw:filecore.obj
 0001:00045d82       ?Seek@CFile@@UAEJJI@Z      00446d82 f   nafxcw:filecore.obj
 0001:00045db1       ?GetPosition@CFile@@UBEKXZ 00446db1 f   nafxcw:filecore.obj
 0001:00045dda       ?Flush@CFile@@UAEXXZ       00446dda f   nafxcw:filecore.obj
 0001:00045dfb       ?Close@CFile@@UAEXXZ       00446dfb f   nafxcw:filecore.obj
 0001:00045e3c       ?Abort@CFile@@UAEXXZ       00446e3c f   nafxcw:filecore.obj
 0001:00045e5c       ?LockRange@CFile@@UAEXKK@Z 00446e5c f   nafxcw:filecore.obj
 0001:00045e85       ?UnlockRange@CFile@@UAEXKK@Z 00446e85 f   nafxcw:filecore.obj
 0001:00045eae       ?SetLength@CFile@@UAEXK@Z  00446eae f   nafxcw:filecore.obj
 0001:00045eda       ?GetLength@CFile@@UBEKXZ   00446eda f   nafxcw:filecore.obj
 0001:00045f07       ?GetBufferPtr@CFile@@UAEIIIPAPAX0@Z 00446f07 f   nafxcw:filecore.obj
 0001:00045f0c       ?Rename@CFile@@SGXPBD0@Z   00446f0c f   nafxcw:filecore.obj
 0001:00045f2e       ?Remove@CFile@@SGXPBD@Z    00446f2e f   nafxcw:filecore.obj
 0001:00045f4c       ?CreateInstance@AFX_COM@@QAEJABU_GUID@@PAUIUnknown@@0PAPAX@Z 00446f4c f   nafxcw:filecore.obj
 0001:00045f8e       ?GetClassObject@AFX_COM@@QAEJABU_GUID@@0PAPAX@Z 00446f8e f   nafxcw:filecore.obj
 0001:0004602b       ?AfxStringFromCLSID@@YG?AVCString@@ABU_GUID@@@Z 0044702b f   nafxcw:filecore.obj
 0001:0004609a       ?AfxGetInProcServer@@YGHPBDAAVCString@@@Z 0044709a f   nafxcw:filecore.obj
 0001:00046146       ?AfxResolveShortcut@@YGHPAVCWnd@@PBDPADH@Z 00447146 f   nafxcw:filecore.obj
 0001:00046268       ?AfxFullPath@@YGHPADPBD@Z  00447268 f   nafxcw:filecore.obj
 0001:00046338       ?AfxGetRoot@@YGXPBDAAVCString@@@Z 00447338 f   nafxcw:filecore.obj
 0001:000463fe       ?AfxComparePath@@YGHPBD0@Z 004473fe f   nafxcw:filecore.obj
 0001:000464c1       ?AfxGetFileTitle@@YGIPBDPADI@Z 004474c1 f   nafxcw:filecore.obj
 0001:00046517       ?AfxGetModuleShortFileName@@YGXPAUHINSTANCE__@@AAVCString@@@Z 00447517 f   nafxcw:filecore.obj
 0001:00046571       ?GetRuntimeClass@CObject@@UBEPAUCRuntimeClass@@XZ 00447571 f   nafxcw:objcore.obj
 0001:00046577       ?IsKindOf@CObject@@QBEHPBUCRuntimeClass@@@Z 00447577 f   nafxcw:objcore.obj
 0001:00046589       ?AfxDynamicDownCast@@YAPAVCObject@@PAUCRuntimeClass@@PAV1@@Z 00447589 f   nafxcw:objcore.obj
 0001:000465a9       ?CreateObject@CRuntimeClass@@QAEPAVCObject@@XZ 004475a9 f   nafxcw:objcore.obj
 0001:000465ef       ?AfxClassInit@@YGXPAUCRuntimeClass@@@Z 004475ef f   nafxcw:objcore.obj
 0001:00046615       ?IsDerivedFrom@CRuntimeClass@@QBEHPBU1@@Z 00447615 f   nafxcw:objcore.obj
 0001:0004662e       ??0CException@@QAE@XZ      0044762e f   nafxcw:except.obj
 0001:00046638       ??0CException@@QAE@H@Z     00447638 f   nafxcw:except.obj
 0001:00046644       ?Delete@CException@@QAEXXZ 00447644 f   nafxcw:except.obj
 0001:00046656       ?ReportError@CException@@UAEHII@Z 00447656 f   nafxcw:except.obj
 0001:000466ab       ?afxMapHMENU@@YGPAVCHandleMap@@H@Z 004476ab f   nafxcw:winmenu.obj
 0001:0004671d       ?FromHandle@CMenu@@SGPAV1@PAUHMENU__@@@Z 0044771d f   nafxcw:winmenu.obj
 0001:00046732       ?FromHandlePermanent@CMenu@@SGPAV1@PAUHMENU__@@@Z 00447732 f   nafxcw:winmenu.obj
 0001:00046750       ?Attach@CMenu@@QAEHPAUHMENU__@@@Z 00447750 f   nafxcw:winmenu.obj
 0001:0004677d       ?Detach@CMenu@@QAEPAUHMENU__@@XZ 0044777d f   nafxcw:winmenu.obj
 0001:000467a7       ?DestroyMenu@CMenu@@QAEHXZ 004477a7 f   nafxcw:winmenu.obj
 0001:000467bd       ?GetMessageMap@CWinApp@@MBEPBUAFX_MSGMAP@@XZ 004477bd f   nafxcw:appcore.obj
 0001:000467c3       ?Run@CWinApp@@UAEHXZ       004477c3 f   nafxcw:appcore.obj
 0001:000467e5       ?WinHelpA@CWinApp@@UAEXKI@Z 004477e5 f   nafxcw:appcore.obj
 0001:0004681c       ?ProcessWndProcException@CWinApp@@UAEJPAVCException@@PBUtagMSG@@@Z 0044781c f   nafxcw:appcore.obj
 0001:00046893       ?OnIdle@CWinApp@@UAEHJ@Z   00447893 f   nafxcw:appcore.obj
 0001:000468fd       ?DevModeChange@CWinApp@@QAEXPAD@Z 004478fd f   nafxcw:appcore.obj
 0001:000469aa       ?AfxGetThread@@YGPAVCWinThread@@XZ 004479aa f   nafxcw:thrdcore.obj
 0001:000469bf       ?AfxInitThread@@YGXXZ      004479bf f   nafxcw:thrdcore.obj
 0001:00046a1e       ?Delete@CWinThread@@UAEXXZ 00447a1e f   nafxcw:thrdcore.obj
 0001:00046a30       ?Run@CWinThread@@UAEHXZ    00447a30 f   nafxcw:thrdcore.obj
 0001:00046aaf       ?IsIdleMessage@CWinThread@@UAEHPAUtagMSG@@@Z 00447aaf f   nafxcw:thrdcore.obj
 0001:00046b08       ?ExitInstance@CWinThread@@UAEHXZ 00447b08 f   nafxcw:thrdcore.obj
 0001:00046b0c       ?OnIdle@CWinThread@@UAEHJ@Z 00447b0c f   nafxcw:thrdcore.obj
 0001:00046c17       ?DispatchThreadMessageEx@CWinThread@@IAEHPAUtagMSG@@@Z 00447c17 f   nafxcw:thrdcore.obj
 0001:00046c92       ?PreTranslateMessage@CWinThread@@UAEHPAUtagMSG@@@Z 00447c92 f   nafxcw:thrdcore.obj
 0001:00046cef       ?ProcessWndProcException@CWinThread@@UAEJPAVCException@@PBUtagMSG@@@Z 00447cef f   nafxcw:thrdcore.obj
 0001:00046d14       ?_AfxMsgFilterHook@@YGJHIJ@Z 00447d14 f   nafxcw:thrdcore.obj
 0001:00046d6c       ?IsHelpKey@@YGHPAUtagMSG@@@Z 00447d6c f   nafxcw:thrdcore.obj
 0001:00046db7       ?ProcessMessageFilter@CWinThread@@UAEHHPAUtagMSG@@@Z 00447db7 f   nafxcw:thrdcore.obj
 0001:00046f01       ?GetMainWnd@CWinThread@@UAEPAVCWnd@@XZ 00447f01 f   nafxcw:thrdcore.obj
 0001:00046f1c       ?PumpMessage@CWinThread@@UAEHXZ 00447f1c f   nafxcw:thrdcore.obj
 0001:00046f5c       ??0CDialogTemplate@@QAE@PBUDLGTEMPLATE@@@Z 00447f5c f   nafxcw:dlgtempl.obj
 0001:00046f8b       ?SetTemplate@CDialogTemplate@@IAEHPBUDLGTEMPLATE@@I@Z 00447f8b f   nafxcw:dlgtempl.obj
 0001:00046feb       ??1CDialogTemplate@@QAE@XZ 00447feb f   nafxcw:dlgtempl.obj
 0001:00046ff9       ?Detach@CDialogTemplate@@QAEPAXXZ 00447ff9 f   nafxcw:dlgtempl.obj
 0001:00046fff       ?GetFontSizeField@CDialogTemplate@@KAPAEPBUDLGTEMPLATE@@@Z 00447fff f   nafxcw:dlgtempl.obj
 0001:00047055       ?GetTemplateSize@CDialogTemplate@@KAIPBUDLGTEMPLATE@@@Z 00448055 f   nafxcw:dlgtempl.obj
 0001:0004710d       ?GetFont@CDialogTemplate@@SAHPBUDLGTEMPLATE@@AAVCString@@AAG@Z 0044810d f   nafxcw:dlgtempl.obj
 0001:0004717c       ?SetFont@CDialogTemplate@@QAEHPBDG@Z 0044817c f   nafxcw:dlgtempl.obj
 0001:00047296       ?SetSystemFont@CDialogTemplate@@QAEHG@Z 00448296 f   nafxcw:dlgtempl.obj
 0001:00047327       ?AfxLockTempMaps@@YGXXZ    00448327 f   nafxcw:winhand.obj
 0001:00047330       ?AfxUnlockTempMaps@@YGHH@Z 00448330 f   nafxcw:winhand.obj
 0001:0004742a       ??0CHandleMap@@QAE@PAUCRuntimeClass@@IH@Z 0044842a f   nafxcw:winhand.obj
 0001:0004748f       ?FromHandle@CHandleMap@@QAEPAVCObject@@PAX@Z 0044848f f   nafxcw:winhand.obj
 0001:0004754e       ?DeleteTemp@CHandleMap@@QAEXXZ 0044854e f   nafxcw:winhand.obj
 0001:000475b3       ?UpdateSysColors@AUX_DATA@@QAEXXZ 004485b3 f   nafxcw:auxdata.obj
 0001:000475f7       ?UpdateSysMetrics@AUX_DATA@@QAEXXZ 004485f7 f   nafxcw:auxdata.obj
 0001:0004764f       ?GetFileName@CFile@@UBE?AVCString@@XZ 0044864f f   nafxcw:filest.obj
 0001:000476d1       ?GetFileTitle@CFile@@UBE?AVCString@@XZ 004486d1 f   nafxcw:filest.obj
 0001:00047753       ?GetFilePath@CFile@@UBE?AVCString@@XZ 00448753 f   nafxcw:filest.obj
 0001:00047782       ?GetStatus@CFile@@QBEHAAUCFileStatus@@@Z 00448782 f   nafxcw:filest.obj
 0001:0004785c       ?GetStatus@CFile@@SGHPBDAAUCFileStatus@@@Z 0044885c f   nafxcw:filest.obj
 0001:0004790e       ?AfxTimeToFileTime@@YAXABVCTime@@PAU_FILETIME@@@Z 0044890e f   nafxcw:filest.obj
 0001:000479c1       ?ThrowOsError@CFileException@@SGXJPBD@Z 004489c1 f   nafxcw:filex.obj
 0001:000479e2       ?GetErrorMessage@CFileException@@UAEHPADIPAI@Z 004489e2 f   nafxcw:filex.obj
 0001:00047a82       ?AfxThrowFileException@@YGXHJPBD@Z 00448a82 f   nafxcw:filex.obj
 0001:00047aed       ?OsErrorToException@CFileException@@SGHJ@Z 00448aed f   nafxcw:filex.obj
 0001:00047d6b       ?AfxWinMain@@YGHPAUHINSTANCE__@@0PADH@Z 00448d6b f   nafxcw:winmain.obj
 0001:00047de1       ??0CDC@@QAE@XZ             00448de1 f   nafxcw:wingdi.obj
 0001:00047df5       ??_GCDC@@UAEPAXI@Z         00448df5 f i nafxcw:wingdi.obj
 0001:00047df5       ??_ECDC@@UAEPAXI@Z         00448df5 f i nafxcw:wingdi.obj
 0001:00047e11       ?afxMapHDC@@YGPAVCHandleMap@@H@Z 00448e11 f   nafxcw:wingdi.obj
 0001:00047e83       ?FromHandle@CDC@@SGPAV1@PAUHDC__@@@Z 00448e83 f   nafxcw:wingdi.obj
 0001:00047e98       ?Attach@CDC@@QAEHPAUHDC__@@@Z 00448e98 f   nafxcw:wingdi.obj
 0001:00047ecf       ?Detach@CDC@@QAEPAUHDC__@@XZ 00448ecf f   nafxcw:wingdi.obj
 0001:00047f00       ?DeleteDC@CDC@@QAEHXZ      00448f00 f   nafxcw:wingdi.obj
 0001:00047f16       ??1CDC@@UAE@XZ             00448f16 f   nafxcw:wingdi.obj
 0001:00047f4c       ?SetAttribDC@CDC@@UAEXPAUHDC__@@@Z 00448f4c f   nafxcw:wingdi.obj
 0001:00047f56       ?SetOutputDC@CDC@@UAEXPAUHDC__@@@Z 00448f56 f   nafxcw:wingdi.obj
 0001:00047f60       ?ReleaseAttribDC@CDC@@UAEXXZ 00448f60 f   nafxcw:wingdi.obj
 0001:00047f65       ?ReleaseOutputDC@CDC@@UAEXXZ 00448f65 f   nafxcw:wingdi.obj
 0001:00047f6a       ?SaveDC@CDC@@UAEHXZ        00448f6a f   nafxcw:wingdi.obj
 0001:00047f9b       ?RestoreDC@CDC@@UAEHH@Z    00448f9b f   nafxcw:wingdi.obj
 0001:00047fd9       ?SelectGdiObject@CDC@@KGPAVCGdiObject@@PAUHDC__@@PAX@Z 00448fd9 f   nafxcw:wingdi.obj
 0001:00047ff0       ?SelectStockObject@CDC@@UAEPAVCGdiObject@@H@Z 00448ff0 f   nafxcw:wingdi.obj
 0001:0004802c       ?SelectObject@CDC@@UAEPAVCFont@@PAV2@@Z 0044902c f   nafxcw:wingdi.obj
 0001:0004802c       ?SelectObject@CDC@@QAEPAVCPen@@PAV2@@Z 0044902c f   nafxcw:wingdi.obj
 0001:0004802c       ?SelectObject@CDC@@QAEPAVCBrush@@PAV2@@Z 0044902c f   nafxcw:wingdi.obj
 0001:00048072       ?SelectObject@CDC@@QAEHPAVCRgn@@@Z 00449072 f   nafxcw:wingdi.obj
 0001:000480b7       ?SetBkColor@CDC@@UAEKK@Z   004490b7 f   nafxcw:wingdi.obj
 0001:000480e6       ?SetBkMode@CDC@@QAEHH@Z    004490e6 f   nafxcw:wingdi.obj
 0001:00048114       ?SetTextColor@CDC@@UAEKK@Z 00449114 f   nafxcw:wingdi.obj
 0001:00048143       ?SetMapMode@CDC@@UAEHH@Z   00449143 f   nafxcw:wingdi.obj
 0001:00048171       ?SetViewportOrg@CDC@@UAE?AVCPoint@@HH@Z 00449171 f   nafxcw:wingdi.obj
 0001:000481bd       ?OffsetViewportOrg@CDC@@UAE?AVCPoint@@HH@Z 004491bd f   nafxcw:wingdi.obj
 0001:00048209       ?SetViewportExt@CDC@@UAE?AVCSize@@HH@Z 00449209 f   nafxcw:wingdi.obj
 0001:00048255       ?ScaleViewportExt@CDC@@UAE?AVCSize@@HHHH@Z 00449255 f   nafxcw:wingdi.obj
 0001:000482ad       ?SetWindowExt@CDC@@UAE?AVCSize@@HH@Z 004492ad f   nafxcw:wingdi.obj
 0001:000482f9       ?ScaleWindowExt@CDC@@UAE?AVCSize@@HHHH@Z 004492f9 f   nafxcw:wingdi.obj
 0001:00048351       ?GetClipBox@CDC@@UBEHPAUtagRECT@@@Z 00449351 f   nafxcw:wingdi.obj
 0001:00048361       ?SelectClipRgn@CDC@@QAEHPAVCRgn@@@Z 00449361 f   nafxcw:wingdi.obj
 0001:000483a1       ?ExcludeClipRect@CDC@@QAEHPBUtagRECT@@@Z 004493a1 f   nafxcw:wingdi.obj
 0001:000483e3       ?IntersectClipRect@CDC@@QAEHPBUtagRECT@@@Z 004493e3 f   nafxcw:wingdi.obj
 0001:00048425       ?MoveTo@CDC@@QAE?AVCPoint@@HH@Z 00449425 f   nafxcw:wingdi.obj
 0001:00048471       ?LineTo@CDC@@QAEHHH@Z      00449471 f   nafxcw:wingdi.obj
 0001:000484a6       ?GetLayout@CDC@@QBEKXZ     004494a6 f   nafxcw:wingdi.obj
 0001:000484dc       ?SetLayout@CDC@@QAEKK@Z    004494dc f   nafxcw:wingdi.obj
 0001:00048522       ?ScreenToClient@CWnd@@QBEXPAUtagRECT@@@Z 00449522 f   nafxcw:wingdi.obj
 0001:0004855e       ?ClientToScreen@CWnd@@QBEXPAUtagRECT@@@Z 0044955e f   nafxcw:wingdi.obj
 0001:0004859a       ?LPtoDP@CDC@@QBEXPAUtagSIZE@@@Z 0044959a f   nafxcw:wingdi.obj
 0001:00048603       ?DPtoLP@CDC@@QBEXPAUtagSIZE@@@Z 00449603 f   nafxcw:wingdi.obj
 0001:0004866c       ??0CClientDC@@QAE@PAVCWnd@@@Z 0044966c f   nafxcw:wingdi.obj
 0001:000486c2       ??_GCClientDC@@UAEPAXI@Z   004496c2 f i nafxcw:wingdi.obj
 0001:000486c2       ??_ECClientDC@@UAEPAXI@Z   004496c2 f i nafxcw:wingdi.obj
 0001:000486de       ??1CClientDC@@UAE@XZ       004496de f   nafxcw:wingdi.obj
 0001:00048720       ??0CWindowDC@@QAE@PAVCWnd@@@Z 00449720 f   nafxcw:wingdi.obj
 0001:00048776       ??_ECWindowDC@@UAEPAXI@Z   00449776 f i nafxcw:wingdi.obj
 0001:00048776       ??_GCWindowDC@@UAEPAXI@Z   00449776 f i nafxcw:wingdi.obj
 0001:00048792       ??1CWindowDC@@UAE@XZ       00449792 f   nafxcw:wingdi.obj
 0001:000487d4       ??0CPaintDC@@QAE@PAVCWnd@@@Z 004497d4 f   nafxcw:wingdi.obj
 0001:0004882a       ??_ECPaintDC@@UAEPAXI@Z    0044982a f i nafxcw:wingdi.obj
 0001:0004882a       ??_GCPaintDC@@UAEPAXI@Z    0044982a f i nafxcw:wingdi.obj
 0001:00048846       ??1CPaintDC@@UAE@XZ        00449846 f   nafxcw:wingdi.obj
 0001:0004888d       ?afxMapHGDIOBJ@@YGPAVCHandleMap@@H@Z 0044988d f   nafxcw:wingdi.obj
 0001:000488ff       ?FromHandle@CGdiObject@@SGPAV1@PAX@Z 004498ff f   nafxcw:wingdi.obj
 0001:00048914       ?Attach@CGdiObject@@QAEHPAX@Z 00449914 f   nafxcw:wingdi.obj
 0001:00048941       ?Detach@CGdiObject@@QAEPAXXZ 00449941 f   nafxcw:wingdi.obj
 0001:0004896b       ?DeleteObject@CGdiObject@@QAEHXZ 0044996b f   nafxcw:wingdi.obj
 0001:00048981       ??0CPen@@QAE@HHK@Z         00449981 f   nafxcw:wingdi.obj
 0001:000489d1       ??0CBrush@@QAE@K@Z         004499d1 f   nafxcw:wingdi.obj
 0001:00048a1b       ?AfxThrowResourceException@@YGXXZ 00449a1b f   nafxcw:wingdi.obj
 0001:00048a34       ?AfxThrowUserException@@YGXXZ 00449a34 f   nafxcw:wingdi.obj
 0001:00048a4d       ?GetMessageMap@CFormView@@MBEPBUAFX_MSGMAP@@XZ 00449a4d f   nafxcw:viewform.obj
 0001:00048a53       ??_ECFormView@@UAEPAXI@Z   00449a53 f i nafxcw:viewform.obj
 0001:00048a53       ??_GCFormView@@UAEPAXI@Z   00449a53 f i nafxcw:viewform.obj
 0001:00048a6f       ??0CFormView@@IAE@I@Z      00449a6f f   nafxcw:viewform.obj
 0001:00048a93       ?Create@CFormView@@MAEHPBD0KABUtagRECT@@PAVCWnd@@IPAUCCreateContext@@@Z 00449a93 f   nafxcw:viewform.obj
 0001:00048ba3       ?OnInitialUpdate@CFormView@@UAEXXZ 00449ba3 f   nafxcw:viewform.obj
 0001:00048bb6       ?OnCreate@CFormView@@IAEHPAUtagCREATESTRUCTA@@@Z 00449bb6 f   nafxcw:viewform.obj
 0001:00048bc8       ?OnActivateView@CFormView@@MAEXHPAVCView@@0@Z 00449bc8 f   nafxcw:viewform.obj
 0001:00048beb       ?OnActivateFrame@CFormView@@MAEXIPAVCFrameWnd@@@Z 00449beb f   nafxcw:viewform.obj
 0001:00048bfa       ?SaveFocusControl@CFormView@@IAEHXZ 00449bfa f   nafxcw:viewform.obj
 0001:00048c25       ?OnSetFocus@CFormView@@IAEXPAVCWnd@@@Z 00449c25 f   nafxcw:viewform.obj
 0001:00048c5f       ?PreTranslateMessage@CFormView@@MAEHPAUtagMSG@@@Z 00449c5f f   nafxcw:viewform.obj
 0001:00048cc9       ?HandleInitDialog@CFormView@@IAEJIJ@Z 00449cc9 f   nafxcw:viewform.obj
 0001:00048cf9       ?SetOccDialogInfo@CFormView@@MAEHPAU_AFX_OCC_DIALOG_INFO@@@Z 00449cf9 f   nafxcw:viewform.obj
 0001:00048d06       ??0CView@@IAE@XZ           00449d06 f   nafxcw:viewcore.obj
 0001:00048d16       ??1CView@@UAE@XZ           00449d16 f   nafxcw:viewcore.obj
 0001:00048d69       ?PreCreateWindow@CView@@MAEHAAUtagCREATESTRUCTA@@@Z 00449d69 f   nafxcw:viewcore.obj
 0001:00048da8       ?OnCreate@CView@@IAEHPAUtagCREATESTRUCTA@@@Z 00449da8 f   nafxcw:viewcore.obj
 0001:00048dd8       ?OnDestroy@CView@@IAEXXZ   00449dd8 f   nafxcw:viewcore.obj
 0001:00048e07       ?PostNcDestroy@CView@@MAEXXZ 00449e07 f   nafxcw:viewcore.obj
 0001:00048e13       ?CalcWindowRect@CView@@UAEXPAUtagRECT@@I@Z 00449e13 f   nafxcw:viewcore.obj
 0001:00048e7b       ?OnCmdMsg@CView@@UAEHIHPAXPAUAFX_CMDHANDLERINFO@@@Z 00449e7b f   nafxcw:viewcore.obj
 0001:00048ef8       ?OnPaint@CView@@IAEXXZ     00449ef8 f   nafxcw:viewcore.obj
 0001:00048f4c       ?OnInitialUpdate@CView@@UAEXXZ 00449f4c f   nafxcw:viewcore.obj
 0001:00048f5a       ?OnUpdate@CView@@MAEXPAV1@JPAVCObject@@@Z 00449f5a f   nafxcw:viewcore.obj
 0001:00048f6a       ?OnPrint@CView@@MAEXPAVCDC@@PAUCPrintInfo@@@Z 00449f6a f   nafxcw:viewcore.obj
 0001:00048f79       ?IsSelected@CView@@UBEHPBVCObject@@@Z 00449f79 f   nafxcw:viewcore.obj
 0001:00048f7e       ?OnActivateView@CView@@MAEXHPAV1@0@Z 00449f7e f   nafxcw:viewcore.obj
 0001:00048f9c       ?OnMouseActivate@CView@@IAEHPAVCWnd@@II@Z 00449f9c f   nafxcw:viewcore.obj
 0001:0004900d       ?OnScrollBy@CView@@UAEHVCSize@@H@Z 0044a00d f   nafxcw:viewcore.obj
 0001:0004900d       ?OnScroll@CView@@UAEHIIH@Z 0044a00d f   nafxcw:viewcore.obj
 0001:00049012       ?OnDragScroll@CView@@UAEKKVCPoint@@@Z 0044a012 f   nafxcw:viewcore.obj
 0001:0004901a       ?OnDragOver@CView@@UAEKPAVCOleDataObject@@KVCPoint@@@Z 0044a01a f   nafxcw:viewcore.obj
 0001:0004901a       ?OnDragEnter@CView@@UAEKPAVCOleDataObject@@KVCPoint@@@Z 0044a01a f   nafxcw:viewcore.obj
 0001:0004901a       ?OnDrop@CView@@UAEHPAVCOleDataObject@@KVCPoint@@@Z 0044a01a f   nafxcw:viewcore.obj
 0001:0004901f       ?OnDropEx@CView@@UAEKPAVCOleDataObject@@KKVCPoint@@@Z 0044a01f f   nafxcw:viewcore.obj
 0001:00049025       ?GetParentSplitter@CView@@SGPAVCSplitterWnd@@PBVCWnd@@H@Z 0044a025 f   nafxcw:viewcore.obj
 0001:00049083       ?GetScrollBarCtrl@CView@@UBEPAVCScrollBar@@H@Z 0044a083 f   nafxcw:viewcore.obj
 0001:000490f8       ?OnUpdateSplitCmd@CView@@IAEXPAVCCmdUI@@@Z 0044a0f8 f   nafxcw:viewcore.obj
 0001:00049120       ?OnSplitCmd@CView@@IAEHI@Z 0044a120 f   nafxcw:viewcore.obj
 0001:0004913c       ?OnUpdateNextPaneMenu@CView@@IAEXPAVCCmdUI@@@Z 0044a13c f   nafxcw:viewcore.obj
 0001:0004917a       ?OnNextPaneCmd@CView@@IAEHI@Z 0044a17a f   nafxcw:viewcore.obj
 0001:000491a4       ?OnPrepareDC@CView@@UAEXPAVCDC@@PAUCPrintInfo@@@Z 0044a1a4 f   nafxcw:viewcore.obj
 0001:000491c9       ?OnPreparePrinting@CView@@MAEHPAUCPrintInfo@@@Z 0044a1c9 f   nafxcw:viewcore.obj
 0001:000491cf       ?OnBeginPrinting@CView@@MAEXPAVCDC@@PAUCPrintInfo@@@Z 0044a1cf f   nafxcw:viewcore.obj
 0001:000491cf       ?OnActivateFrame@CView@@MAEXIPAVCFrameWnd@@@Z 0044a1cf f   nafxcw:viewcore.obj
 0001:000491cf       ?OnEndPrinting@CView@@MAEXPAVCDC@@PAUCPrintInfo@@@Z 0044a1cf f   nafxcw:viewcore.obj
 0001:000491d2       ?OnEndPrintPreview@CView@@MAEXPAVCDC@@PAUCPrintInfo@@UtagPOINT@@PAVCPreviewView@@@Z 0044a1d2 f   nafxcw:viewcore.obj
 0001:00049275       ??0CCtrlView@@QAE@PBDK@Z   0044a275 f   nafxcw:viewcore.obj
 0001:000492bc       ?PreCreateWindow@CCtrlView@@MAEHAAUtagCREATESTRUCTA@@@Z 0044a2bc f   nafxcw:viewcore.obj
 0001:00049306       ?OnPaint@CCtrlView@@IAEXXZ 0044a306 f   nafxcw:viewcore.obj
 0001:0004930b       ?GetMessageMap@CScrollView@@MBEPBUAFX_MSGMAP@@XZ 0044a30b f   nafxcw:viewscrl.obj
 0001:00049311       ?_AfxGetMouseScrollLines@@YGIXZ 0044a311 f   nafxcw:viewscrl.obj
 0001:0004944e       ??0CScrollView@@IAE@XZ     0044a44e f   nafxcw:viewscrl.obj
 0001:00049475       ??_GCScrollView@@UAEPAXI@Z 0044a475 f i nafxcw:viewscrl.obj
 0001:00049475       ??_ECScrollView@@UAEPAXI@Z 0044a475 f i nafxcw:viewscrl.obj
 0001:00049491       ??1CScrollView@@UAE@XZ     0044a491 f   nafxcw:viewscrl.obj
 0001:0004949c       ?OnPrepareDC@CScrollView@@UAEXPAVCDC@@PAUCPrintInfo@@@Z 0044a49c f   nafxcw:viewscrl.obj
 0001:0004957b       ?SetScaleToFitSize@CScrollView@@QAEXUtagSIZE@@@Z 0044a57b f   nafxcw:viewscrl.obj
 0001:00049606       ?SetScrollSizes@CScrollView@@QAEXHUtagSIZE@@ABU2@1@Z 0044a606 f   nafxcw:viewscrl.obj
 0001:00049738       ?GetDeviceScrollPosition@CScrollView@@QBE?AVCPoint@@XZ 0044a738 f   nafxcw:viewscrl.obj
 0001:000497b1       ?ScrollToDevicePosition@CScrollView@@IAEXUtagPOINT@@@Z 0044a7b1 f   nafxcw:viewscrl.obj
 0001:00049803       ?OnSize@CScrollView@@QAEXIHH@Z 0044a803 f   nafxcw:viewscrl.obj
 0001:0004982b       ?GetScrollBarSizes@CScrollView@@IAEXAAVCSize@@@Z 0044a82b f   nafxcw:viewscrl.obj
 0001:00049885       ?GetTrueClientSize@CScrollView@@IAEHAAVCSize@@0@Z 0044a885 f   nafxcw:viewscrl.obj
 0001:000498fa       ?GetScrollBarState@CScrollView@@IAEXVCSize@@AAV2@1AAVCPoint@@H@Z 0044a8fa f   nafxcw:viewscrl.obj
 0001:000499bf       ?UpdateBars@CScrollView@@IAEXXZ 0044a9bf f   nafxcw:viewscrl.obj
 0001:00049b34       ?CalcWindowRect@CScrollView@@UAEXPAUtagRECT@@I@Z 0044ab34 f   nafxcw:viewscrl.obj
 0001:00049bbb       ?OnHScroll@CScrollView@@QAEXIIPAVCScrollBar@@@Z 0044abbb f   nafxcw:viewscrl.obj
 0001:00049bff       ?OnVScroll@CScrollView@@QAEXIIPAVCScrollBar@@@Z 0044abff f   nafxcw:viewscrl.obj
 0001:00049c47       ?OnMouseWheel@CScrollView@@QAEHIFVCPoint@@@Z 0044ac47 f   nafxcw:viewscrl.obj
 0001:00049c7b       ?DoMouseWheel@CScrollView@@QAEHIFVCPoint@@@Z 0044ac7b f   nafxcw:viewscrl.obj
 0001:00049da6       ?OnScroll@CScrollView@@UAEHIIH@Z 0044ada6 f   nafxcw:viewscrl.obj
 0001:00049e76       ?OnScrollBy@CScrollView@@UAEHVCSize@@H@Z 0044ae76 f   nafxcw:viewscrl.obj
 0001:00049f72       ??6@YGAAVCArchive@@AAV0@ABVCString@@@Z 0044af72 f   nafxcw:arccore.obj
 0001:00049feb       ?_AfxReadStringLength@@YGIAAVCArchive@@@Z 0044afeb f   nafxcw:arccore.obj
 0001:0004a042       ??5@YGAAVCArchive@@AAV0@AAVCString@@@Z 0044b042 f   nafxcw:arccore.obj
 0001:0004a0da       ?SerializeElements@@YGXAAVCArchive@@PAVCString@@H@Z 0044b0da f   nafxcw:arccore.obj
 0001:0004a128       ??0CArchive@@QAE@PAVCFile@@IHPAX@Z 0044b128 f   nafxcw:arccore.obj
 0001:0004a204       ??1CArchive@@QAE@XZ        0044b204 f   nafxcw:arccore.obj
 0001:0004a24a       ?Abort@CArchive@@QAEXXZ    0044b24a f   nafxcw:arccore.obj
 0001:0004a28c       ?Close@CArchive@@QAEXXZ    0044b28c f   nafxcw:arccore.obj
 0001:0004a29a       ?Read@CArchive@@QAEIPAXI@Z 0044b29a f   nafxcw:arccore.obj
 0001:0004a3a9       ?Write@CArchive@@QAEXPBXI@Z 0044b3a9 f   nafxcw:arccore.obj
 0001:0004a439       ?Flush@CArchive@@QAEXXZ    0044b439 f   nafxcw:arccore.obj
 0001:0004a4b5       ?FillBuffer@CArchive@@QAEXI@Z 0044b4b5 f   nafxcw:arccore.obj
 0001:0004a577       ?WriteCount@CArchive@@QAEXK@Z 0044b577 f   nafxcw:arccore.obj
 0001:0004a5a5       ?ReadCount@CArchive@@QAEKXZ 0044b5a5 f   nafxcw:arccore.obj
 0001:0004a5d5       ?OnAppExit@CWinApp@@IAEXXZ 0044b5d5 f   nafxcw:appui.obj
 0001:0004a5e8       ??0CSingleDocTemplate@@QAE@IPAUCRuntimeClass@@00@Z 0044b5e8 f   nafxcw:docsingl.obj
 0001:0004a610       ??_GCSingleDocTemplate@@UAEPAXI@Z 0044b610 f i nafxcw:docsingl.obj
 0001:0004a610       ??_ECSingleDocTemplate@@UAEPAXI@Z 0044b610 f i nafxcw:docsingl.obj
 0001:0004a62c       ??1CSingleDocTemplate@@UAE@XZ 0044b62c f   nafxcw:docsingl.obj
 0001:0004a637       ?GetFirstDocPosition@CSingleDocTemplate@@UBEPAU__POSITION@@XZ 0044b637 f   nafxcw:docsingl.obj
 0001:0004a63f       ?GetNextDoc@CSingleDocTemplate@@UBEPAVCDocument@@AAPAU__POSITION@@@Z 0044b63f f   nafxcw:docsingl.obj
 0001:0004a653       ?AddDocument@CSingleDocTemplate@@UAEXPAVCDocument@@@Z 0044b653 f   nafxcw:docsingl.obj
 0001:0004a669       ?RemoveDocument@CSingleDocTemplate@@UAEXPAVCDocument@@@Z 0044b669 f   nafxcw:docsingl.obj
 0001:0004a67d       ?OpenDocumentFile@CSingleDocTemplate@@UAEPAVCDocument@@PBDH@Z 0044b67d f   nafxcw:docsingl.obj
 0001:0004a82a       ?SetDefaultTitle@CSingleDocTemplate@@UAEXPAVCDocument@@@Z 0044b82a f   nafxcw:docsingl.obj
 0001:0004a88b       ??0CDocument@@QAE@XZ       0044b88b f   nafxcw:doccore.obj
 0001:0004a8e5       ??1CDocument@@UAE@XZ       0044b8e5 f   nafxcw:doccore.obj
 0001:0004a94b       ?OnFinalRelease@CDocument@@UAEXXZ 0044b94b f   nafxcw:doccore.obj
 0001:0004a950       ?DisconnectViews@CDocument@@QAEXXZ 0044b950 f   nafxcw:doccore.obj
 0001:0004a971       ?SetTitle@CDocument@@UAEXPBD@Z 0044b971 f   nafxcw:doccore.obj
 0001:0004a98e       ?OnChangedViewList@CDocument@@UAEXXZ 0044b98e f   nafxcw:doccore.obj
 0001:0004a9a7       ?UpdateFrameCounts@CDocument@@UAEXXZ 0044b9a7 f   nafxcw:doccore.obj
 0001:0004aa94       ?CanCloseFrame@CDocument@@UAEHPAVCFrameWnd@@@Z 0044ba94 f   nafxcw:doccore.obj
 0001:0004aadd       ?OnDraw@CCtrlView@@MAEXPAVCDC@@@Z 0044badd f   nafxcw:doccore.obj
 0001:0004aadd       ?OnDraw@CFormView@@MAEXPAVCDC@@@Z 0044badd f   nafxcw:doccore.obj
 0001:0004aadd       ?PreCloseFrame@CDocument@@UAEXPAVCFrameWnd@@@Z 0044badd f   nafxcw:doccore.obj
 0001:0004aae0       ?SetPathName@CDocument@@UAEXPBDH@Z 0044bae0 f   nafxcw:doccore.obj
 0001:0004ab5c       ?OnFileClose@CDocument@@IAEXXZ 0044bb5c f   nafxcw:doccore.obj
 0001:0004ab74       ?OnFileSave@CDocument@@IAEXXZ 0044bb74 f   nafxcw:doccore.obj
 0001:0004ab7c       ?OnFileSaveAs@CDocument@@IAEXXZ 0044bb7c f   nafxcw:doccore.obj
 0001:0004ab89       ?DoFileSave@CDocument@@UAEHXZ 0044bb89 f   nafxcw:doccore.obj
 0001:0004abc4       ?DoSave@CDocument@@UAEHPBDH@Z 0044bbc4 f   nafxcw:doccore.obj
 0001:0004ad45       ?SaveModified@CDocument@@UAEHXZ 0044bd45 f   nafxcw:doccore.obj
 0001:0004ae44       ?GetDefaultAccelerator@CDocument@@UAEPAUHACCEL__@@XZ 0044be44 f   nafxcw:doccore.obj
 0001:0004ae44       ?GetDefaultMenu@CDocument@@UAEPAUHMENU__@@XZ 0044be44 f   nafxcw:doccore.obj
 0001:0004ae47       ?ReportSaveLoadException@CDocument@@UAEXPBDPAVCException@@HI@Z 0044be47 f   nafxcw:doccore.obj
 0001:0004afb3       ?GetTempName@CMirrorFile@@SA?AVCString@@PBDH@Z 0044bfb3 f   nafxcw:doccore.obj
 0001:0004b059       ?Open@CMirrorFile@@UAEHPBDIPAVCFileException@@@Z 0044c059 f   nafxcw:doccore.obj
 0001:0004b200       ?Abort@CMirrorFile@@UAEXXZ 0044c200 f   nafxcw:doccore.obj
 0001:0004b219       ?Close@CMirrorFile@@UAEXXZ 0044c219 f   nafxcw:doccore.obj
 0001:0004b3f7       ?GetFile@CDocument@@UAEPAVCFile@@PBDIPAVCFileException@@@Z 0044c3f7 f   nafxcw:doccore.obj
 0001:0004b469       ??_ECMirrorFile@@UAEPAXI@Z 0044c469 f i nafxcw:doccore.obj
 0001:0004b469       ??_GCMirrorFile@@UAEPAXI@Z 0044c469 f i nafxcw:doccore.obj
 0001:0004b485       ??1CMirrorFile@@UAE@XZ     0044c485 f i nafxcw:doccore.obj
 0001:0004b4ba       ?ReleaseFile@CDocument@@UAEXPAVCFile@@H@Z 0044c4ba f   nafxcw:doccore.obj
 0001:0004b4e3       ?OnNewDocument@CDocument@@UAEHXZ 0044c4e3 f   nafxcw:doccore.obj
 0001:0004b508       ?OnOpenDocument@CDocument@@UAEHPBD@Z 0044c508 f   nafxcw:doccore.obj
 0001:0004b6d2       ?OnSaveDocument@CDocument@@UAEHPBD@Z 0044c6d2 f   nafxcw:doccore.obj
 0001:0004b878       ?OnCloseDocument@CDocument@@UAEXXZ 0044c878 f   nafxcw:doccore.obj
 0001:0004b8d0       ?OnIdle@CDocument@@UAEXXZ  0044c8d0 f   nafxcw:doccore.obj
 0001:0004b8d0       ?DeleteContents@CDocument@@UAEXXZ 0044c8d0 f   nafxcw:doccore.obj
 0001:0004b8d0       ?OnDragLeave@CView@@UAEXXZ 0044c8d0 f   nafxcw:doccore.obj
 0001:0004b8d1       ?AddView@CDocument@@QAEXPAVCView@@@Z 0044c8d1 f   nafxcw:doccore.obj
 0001:0004b8f1       ?RemoveView@CDocument@@QAEXPAVCView@@@Z 0044c8f1 f   nafxcw:doccore.obj
 0001:0004b920       ?GetFirstViewPosition@CDocument@@UBEPAU__POSITION@@XZ 0044c920 f   nafxcw:doccore.obj
 0001:0004b924       ?GetNextView@CDocument@@UBEPAVCView@@AAPAU__POSITION@@@Z 0044c924 f   nafxcw:doccore.obj
 0001:0004b938       ?OnCmdMsg@CDocument@@UAEHIHPAXPAUAFX_CMDHANDLERINFO@@@Z 0044c938 f   nafxcw:doccore.obj
 0001:0004b97b       ?AfxCustomLogFont@@YGHIPAUtagLOGFONTA@@@Z 0044c97b f   nafxcw:winutil.obj
 0001:0004b9f3       ?_AfxIsComboBoxControl@@YGHPAUHWND__@@I@Z 0044c9f3 f   nafxcw:winutil.obj
 0001:0004ba3d       ?_AfxCompareClassName@@YGHPAUHWND__@@PBD@Z 0044ca3d f   nafxcw:winutil.obj
 0001:0004ba68       ?_AfxChildWindowFromPoint@@YGPAUHWND__@@PAU1@UtagPOINT@@@Z 0044ca68 f   nafxcw:winutil.obj
 0001:0004badd       ?AfxSetWindowText@@YGXPAUHWND__@@PBD@Z 0044cadd f   nafxcw:winutil.obj
 0001:0004bb35       ?AfxDeleteObject@@YGXPAPAX@Z 0044cb35 f   nafxcw:winutil.obj
 0001:0004bb4e       ?AfxCancelModes@@YGXPAUHWND__@@@Z 0044cb4e f   nafxcw:winutil.obj
 0001:0004bbc5       ?AfxGlobalFree@@YGXPAX@Z   0044cbc5 f   nafxcw:winutil.obj
 0001:0004bbfb       ?AfxCriticalNewHandler@@YAHI@Z 0044cbfb f   nafxcw:winutil.obj
 0001:0004bc4d       ?GetErrorMessage@CArchiveException@@UAEHPADIPAI@Z 0044cc4d f   nafxcw:arcex.obj
 0001:0004bced       ?AfxThrowArchiveException@@YGXHPBD@Z 0044cced f   nafxcw:arcex.obj
 0001:0004bd52       ?OpenDocumentFile@CDocManager@@UAEPAVCDocument@@PBD@Z 0044cd52 f   nafxcw:docmgr.obj
 0001:0004be93       ?GetOpenDocumentCount@CDocManager@@UAEHXZ 0044ce93 f   nafxcw:docmgr.obj
 0001:0004bed9       ??0CDocTemplate@@IAE@IPAUCRuntimeClass@@00@Z 0044ced9 f   nafxcw:doctempl.obj
 0001:0004bfd6       ?LoadTemplate@CDocTemplate@@UAEXXZ 0044cfd6 f   nafxcw:doctempl.obj
 0001:0004c07e       ??1CDocTemplate@@UAE@XZ    0044d07e f   nafxcw:doctempl.obj
 0001:0004c0d9       ?GetDocString@CDocTemplate@@UBEHAAVCString@@W4DocStringIndex@1@@Z 0044d0d9 f   nafxcw:doctempl.obj
 0001:0004c0ef       ?AddDocument@CDocTemplate@@UAEXPAVCDocument@@@Z 0044d0ef f   nafxcw:doctempl.obj
 0001:0004c0f9       ?RemoveDocument@CDocTemplate@@UAEXPAVCDocument@@@Z 0044d0f9 f   nafxcw:doctempl.obj
 0001:0004c104       ?MatchDocType@CDocTemplate@@UAE?AW4Confidence@1@PBDAAPAVCDocument@@@Z 0044d104 f   nafxcw:doctempl.obj
 0001:0004c1b9       ?CreateNewDocument@CDocTemplate@@UAEPAVCDocument@@XZ 0044d1b9 f   nafxcw:doctempl.obj
 0001:0004c1e0       ?CreateNewFrame@CDocTemplate@@UAEPAVCFrameWnd@@PAVCDocument@@PAV2@@Z 0044d1e0 f   nafxcw:doctempl.obj
 0001:0004c249       ?InitialUpdateFrame@CDocTemplate@@UAEXPAVCFrameWnd@@PAVCDocument@@H@Z 0044d249 f   nafxcw:doctempl.obj
 0001:0004c25d       ?SaveAllModified@CDocTemplate@@UAEHXZ 0044d25d f   nafxcw:doctempl.obj
 0001:0004c299       ?CloseAllDocuments@CDocTemplate@@UAEXH@Z 0044d299 f   nafxcw:doctempl.obj
 0001:0004c2c9       ?OnIdle@CDocTemplate@@UAEXXZ 0044d2c9 f   nafxcw:doctempl.obj
 0001:0004c2fa       ?OnCmdMsg@CDocTemplate@@UAEHIHPAXPAUAFX_CMDHANDLERINFO@@@Z 0044d2fa f   nafxcw:doctempl.obj
 0001:0004c345       ?PrepareEditCtrl@CDataExchange@@QAEPAUHWND__@@H@Z 0044d345 f   nafxcw:dlgdata.obj
 0001:0004c35c       ?PrepareCtrl@CDataExchange@@QAEPAUHWND__@@H@Z 0044d35c f   nafxcw:dlgdata.obj
 0001:0004c38b       ?Fail@CDataExchange@@QAEXXZ 0044d38b f   nafxcw:dlgdata.obj
 0001:0004c3c0       ?_AfxSimpleScanf@@YGHPBD0PAD@Z 0044d3c0 f   nafxcw:dlgdata.obj
 0001:0004c465       ?_Afx_DDX_TextWithFormat@@YAXPAVCDataExchange@@HPBDIZZ 0044d465 f   nafxcw:dlgdata.obj
 0001:0004c4d5       ?DDX_Text@@YGXPAVCDataExchange@@HAAI@Z 0044d4d5 f   nafxcw:dlgdata.obj
 0001:0004c504       ?DDX_Text@@YGXPAVCDataExchange@@HAAVCString@@@Z 0044d504 f   nafxcw:dlgdata.obj
 0001:0004c556       ?DDX_Check@@YGXPAVCDataExchange@@HAAH@Z 0044d556 f   nafxcw:dlgdata.obj
 0001:0004c5a8       ?_AfxFailMinMaxWithFormat@@YGXPAVCDataExchange@@JJPBDI@Z 0044d5a8 f   nafxcw:dlgdata.obj
 0001:0004c63b       ?DDV_MinMaxUInt@@YGXPAVCDataExchange@@III@Z 0044d63b f   nafxcw:dlgdata.obj
 0001:0004c667       ?DDX_Control@@YGXPAVCDataExchange@@HAAVCWnd@@@Z 0044d667 f   nafxcw:dlgdata.obj
 0001:0004c6b3       ?EnableModeless@CWinApp@@QAEXH@Z 0044d6b3 f   nafxcw:appui1.obj
 0001:0004c6e1       ?DoMessageBox@CWinApp@@UAEHPBDII@Z 0044d6e1 f   nafxcw:appui1.obj
 0001:0004c7c8       ?AfxMessageBox@@YGHPBDII@Z 0044d7c8 f   nafxcw:appui1.obj
 0001:0004c800       ?AfxMessageBox@@YGHIII@Z   0044d800 f   nafxcw:appui1.obj
 0001:0004c859       ?GetSafeOwner_@CWnd@@SGPAUHWND__@@PAU2@PAPAU2@@Z 0044d859 f   nafxcw:appui1.obj
 0001:0004c8f5       ?GetRoutingFrame_@CCmdTarget@@KGPAVCFrameWnd@@XZ 0044d8f5 f   nafxcw:appui1.obj
 0001:0004c901       ?CommandToIndex@CStatusBar@@QBEHI@Z 0044d901 f   nafxcw:barstat.obj
 0001:0004c929       ?GetItemID@CStatusBar@@QBEIH@Z 0044d929 f   nafxcw:barstat.obj
 0001:0004c939       ?GetItemRect@CStatusBar@@QBEXHPAUtagRECT@@@Z 0044d939 f   nafxcw:barstat.obj
 0001:0004c95f       ?GetPaneStyle@CStatusBar@@QBEIH@Z 0044d95f f   nafxcw:barstat.obj
 0001:0004c970       ?SetPaneStyle@CStatusBar@@QAEXHI@Z 0044d970 f   nafxcw:barstat.obj
 0001:0004c9c2       ?SetPaneInfo@CStatusBar@@QAEXHIIH@Z 0044d9c2 f   nafxcw:barstat.obj
 0001:0004ca3e       ?SetPaneText@CStatusBar@@QAEHHPBDH@Z 0044da3e f   nafxcw:barstat.obj
 0001:0004cafb       ?CalcFixedLayout@CStatusBar@@UAE?AVCSize@@HH@Z 0044dafb f   nafxcw:barstat.obj
 0001:0004cbbe       ?GetMessageMap@CStatusBar@@MBEPBUAFX_MSGMAP@@XZ 0044dbbe f   nafxcw:barstat.obj
 0001:0004cbc4       ?OnNcHitTest@CStatusBar@@IAEIVCPoint@@@Z 0044dbc4 f   nafxcw:barstat.obj
 0001:0004cbd8       ?OnNcCalcSize@CStatusBar@@IAEXHPAUtagNCCALCSIZE_PARAMS@@@Z 0044dbd8 f   nafxcw:barstat.obj
 0001:0004cc1a       ?OnBarStyleChange@CStatusBar@@UAEXKK@Z 0044dc1a f   nafxcw:barstat.obj
 0001:0004cc3d       ?OnNcPaint@CStatusBar@@IAEXXZ 0044dc3d f   nafxcw:barstat.obj
 0001:0004cc3d       ?OnNcPaint@CToolBar@@IAEXXZ 0044dc3d f   nafxcw:barstat.obj
 0001:0004cc42       ?DrawItem@CStatusBar@@UAEXPAUtagDRAWITEMSTRUCT@@@Z 0044dc42 f   nafxcw:barstat.obj
 0001:0004cc42       ?SetText@CToolCmdUI@@UAEXPBD@Z 0044dc42 f   nafxcw:barstat.obj
 0001:0004cc45       ?OnChildNotify@CStatusBar@@MAEHIIJPAJ@Z 0044dc45 f   nafxcw:barstat.obj
 0001:0004cc73       ?OnPaint@CStatusBar@@IAEXXZ 0044dc73 f   nafxcw:barstat.obj
 0001:0004cc88       ?OnSize@CStatusBar@@IAEXIHH@Z 0044dc88 f   nafxcw:barstat.obj
 0001:0004cc9f       ?OnWindowPosChanging@CStatusBar@@IAEXPAUtagWINDOWPOS@@@Z 0044dc9f f   nafxcw:barstat.obj
 0001:0004ccbf       ?OnSetText@CStatusBar@@IAEJIJ@Z 0044dcbf f   nafxcw:barstat.obj
 0001:0004cceb       ?OnGetText@CStatusBar@@IAEJIJ@Z 0044dceb f   nafxcw:barstat.obj
 0001:0004cd3f       ?OnGetTextLength@CStatusBar@@IAEJIJ@Z 0044dd3f f   nafxcw:barstat.obj
 0001:0004cd63       ?OnSetMinHeight@CStatusBar@@IAEJIJ@Z 0044dd63 f   nafxcw:barstat.obj
 0001:0004cd76       ?Enable@CStatusCmdUI@@UAEXH@Z 0044dd76 f   nafxcw:barstat.obj
 0001:0004cdaf       ?SetCheck@CStatusCmdUI@@UAEXH@Z 0044ddaf f   nafxcw:barstat.obj
 0001:0004cddd       ?SetText@CStatusCmdUI@@UAEXPBD@Z 0044dddd f   nafxcw:barstat.obj
 0001:0004cdf1       ?OnUpdateCmdUI@CStatusBar@@UAEXPAVCFrameWnd@@H@Z 0044ddf1 f   nafxcw:barstat.obj
 0001:0004ce65       ?AfxLoadSysColorBitmap@@YGPAUHBITMAP__@@PAUHINSTANCE__@@PAUHRSRC__@@H@Z 0044de65 f   nafxcw:bartool.obj
 0001:0004cfd1       ?_GetButton@CToolBar@@IBEXHPAU_TBBUTTON@@@Z 0044dfd1 f   nafxcw:bartool.obj
 0001:0004cff0       ?_SetButton@CToolBar@@IAEXHPAU_TBBUTTON@@@Z 0044dff0 f   nafxcw:bartool.obj
 0001:0004d0df       ?CommandToIndex@CToolBar@@QBEHI@Z 0044e0df f   nafxcw:bartool.obj
 0001:0004d0f5       ?GetItemID@CToolBar@@QBEIH@Z 0044e0f5 f   nafxcw:bartool.obj
 0001:0004d10e       ?GetItemRect@CToolBar@@UBEXHPAUtagRECT@@@Z 0044e10e f   nafxcw:bartool.obj
 0001:0004d148       ?Layout@CToolBar@@IAEXXZ   0044e148 f   nafxcw:bartool.obj
 0001:0004d198       ?GetButtonStyle@CToolBar@@QBEIH@Z 0044e198 f   nafxcw:bartool.obj
 0001:0004d1bb       ?SetButtonStyle@CToolBar@@QAEXHI@Z 0044e1bb f   nafxcw:bartool.obj
 0001:0004d208       ?CalcSize@CToolBar@@IAE?AVCSize@@PAU_TBBUTTON@@H@Z 0044e208 f   nafxcw:bartool.obj
 0001:0004d32a       ?WrapToolBar@CToolBar@@IAEHPAU_TBBUTTON@@HH@Z 0044e32a f   nafxcw:bartool.obj
 0001:0004d404       ?SizeToolBar@CToolBar@@IAEXPAU_TBBUTTON@@HHH@Z 0044e404 f   nafxcw:bartool.obj
 0001:0004d559       ?CalcLayout@CToolBar@@IAE?AVCSize@@KH@Z 0044e559 f   nafxcw:bartool.obj
 0001:0004d882       ?CalcFixedLayout@CToolBar@@UAE?AVCSize@@HH@Z 0044e882 f   nafxcw:bartool.obj
 0001:0004d8ab       ?CalcDynamicLayout@CToolBar@@UAE?AVCSize@@HK@Z 0044e8ab f   nafxcw:bartool.obj
 0001:0004d8f0       ?OnToolHitTest@CToolBar@@UBEHVCPoint@@PAUtagTOOLINFOA@@@Z 0044e8f0 f   nafxcw:bartool.obj
 0001:0004d9bf       ?GetMessageMap@CToolBar@@MBEPBUAFX_MSGMAP@@XZ 0044e9bf f   nafxcw:bartool.obj
 0001:0004d9c5       ?OnEraseBkgnd@CToolBar@@IAEHPAVCDC@@@Z 0044e9c5 f   nafxcw:bartool.obj
 0001:0004d9cd       ?OnNcHitTest@CToolBar@@IAEIVCPoint@@@Z 0044e9cd f   nafxcw:bartool.obj
 0001:0004d9d3       ?OnNcCalcSize@CToolBar@@IAEXHPAUtagNCCALCSIZE_PARAMS@@@Z 0044e9d3 f   nafxcw:bartool.obj
 0001:0004da34       ?OnBarStyleChange@CToolBar@@UAEXKK@Z 0044ea34 f   nafxcw:bartool.obj
 0001:0004da67       ?OnWindowPosChanging@CToolBar@@IAEXPAUtagWINDOWPOS@@@Z 0044ea67 f   nafxcw:bartool.obj
 0001:0004daa2       ?OnPaint@CToolBar@@IAEXXZ  0044eaa2 f   nafxcw:bartool.obj
 0001:0004dabc       ?OnSetButtonSize@CToolBar@@IAEJIJ@Z 0044eabc f   nafxcw:bartool.obj
 0001:0004dacf       ?OnSetBitmapSize@CToolBar@@IAEJIJ@Z 0044eacf f   nafxcw:bartool.obj
 0001:0004dae2       ?OnSetSizeHelper@CToolBar@@IAEJAAVCSize@@J@Z 0044eae2 f   nafxcw:bartool.obj
 0001:0004db4e       ?OnPreserveZeroBorderHelper@CToolBar@@IAEJIJ@Z 0044eb4e f   nafxcw:bartool.obj
 0001:0004db9d       ?OnSysColorChange@CToolBar@@IAEXXZ 0044eb9d f   nafxcw:bartool.obj
 0001:0004dbc9       ?Enable@CToolCmdUI@@UAEXH@Z 0044ebc9 f   nafxcw:bartool.obj
 0001:0004dc07       ?SetCheck@CToolCmdUI@@UAEXH@Z 0044ec07 f   nafxcw:bartool.obj
 0001:0004dc49       ?OnUpdateCmdUI@CToolBar@@UAEXPAVCFrameWnd@@H@Z 0044ec49 f   nafxcw:bartool.obj
 0001:0004dcf3       ?OnFileNew@CWinApp@@IAEXXZ 0044ecf3 f   nafxcw:appdlg.obj
 0001:0004dd03       ?OnFileOpen@CWinApp@@IAEXXZ 0044ed03 f   nafxcw:appdlg.obj
 0001:0004dd0e       ?DoPromptFileName@CWinApp@@QAEHAAVCString@@IKHPAVCDocTemplate@@@Z 0044ed0e f   nafxcw:appdlg.obj
 0001:0004dd2f       ?HideApplication@CWinApp@@QAEXXZ 0044ed2f f   nafxcw:appui.obj
 0001:0004dd61       ?DoWaitCursor@CWinApp@@UAEXH@Z 0044ed61 f   nafxcw:appui.obj
 0001:0004ddc0       ?SaveAllModified@CWinApp@@UAEHXZ 0044edc0 f   nafxcw:appui.obj
 0001:0004ddd3       ?AddToRecentFileList@CWinApp@@UAEXPBD@Z 0044edd3 f   nafxcw:appui.obj
 0001:0004dde9       ?OpenDocumentFile@CWinApp@@UAEPAVCDocument@@PBD@Z 0044ede9 f   nafxcw:appui.obj
 0001:0004ddfb       ?CloseAllDocuments@CWinApp@@QAEXH@Z 0044edfb f   nafxcw:appui.obj
 0001:0004de11       ?OnUpdateRecentFileMenu@CWinApp@@IAEXPAVCCmdUI@@@Z 0044ee11 f   nafxcw:appui.obj
 0001:0004de33       ?OnDDECommand@CWinApp@@UAEHPAD@Z 0044ee33 f   nafxcw:appui.obj
 0001:0004de4d       ?OnOpenRecentFile@CWinApp@@IAEHI@Z 0044ee4d f   nafxcw:appui.obj
 0001:0004de80       ?AddDocTemplate@CWinApp@@QAEXPAVCDocTemplate@@@Z 0044ee80 f   nafxcw:appui2.obj
 0001:0004dedc       ?GetFirstDocTemplatePosition@CWinApp@@QBEPAU__POSITION@@XZ 0044eedc f   nafxcw:appui2.obj
 0001:0004deee       ?GetNextDocTemplate@CWinApp@@QBEPAVCDocTemplate@@AAPAU__POSITION@@@Z 0044eeee f   nafxcw:appui2.obj
 0001:0004df00       ??1CControlBar@@UAE@XZ     0044ef00 f   nafxcw:barcore.obj
 0001:0004df85       ?PostNcDestroy@CControlBar@@UAEXXZ 0044ef85 f   nafxcw:barcore.obj
 0001:0004df97       ?CalcFixedLayout@CControlBar@@UAE?AVCSize@@HH@Z 0044ef97 f   nafxcw:barcore.obj
 0001:0004dfc9       ?CalcDynamicLayout@CControlBar@@UAE?AVCSize@@HK@Z 0044efc9 f   nafxcw:barcore.obj
 0001:0004dfec       ?IsDockBar@CControlBar@@UBEHXZ 0044efec f   nafxcw:barcore.obj
 0001:0004dfef       ?ResetTimer@CControlBar@@QAEXII@Z 0044efef f   nafxcw:barcore.obj
 0001:0004e025       ?OnTimer@CControlBar@@QAEXI@Z 0044f025 f   nafxcw:barcore.obj
 0001:0004e195       ?SetStatusText@CControlBar@@UAEHH@Z 0044f195 f   nafxcw:barcore.obj
 0001:0004e22c       ?PreTranslateMessage@CControlBar@@UAEHPAUtagMSG@@@Z 0044f22c f   nafxcw:barcore.obj
 0001:0004e425       ?WindowProc@CControlBar@@UAEJIIJ@Z 0044f425 f   nafxcw:barcore.obj
 0001:0004e4f2       ?OnHelpHitTest@CControlBar@@QAEJIJ@Z 0044f4f2 f   nafxcw:barcore.obj
 0001:0004e535       ?OnWindowPosChanging@CControlBar@@QAEXPAUtagWINDOWPOS@@@Z 0044f535 f   nafxcw:barcore.obj
 0001:0004e636       ?OnCreate@CControlBar@@QAEHPAUtagCREATESTRUCTA@@@Z 0044f636 f   nafxcw:barcore.obj
 0001:0004e689       ?OnDestroy@CControlBar@@QAEXXZ 0044f689 f   nafxcw:barcore.obj
 0001:0004e6bf       ?DestroyWindow@CControlBar@@UAEHXZ 0044f6bf f   nafxcw:barcore.obj
 0001:0004e6ea       ?OnMouseActivate@CControlBar@@QAEHPAVCWnd@@II@Z 0044f6ea f   nafxcw:barcore.obj
 0001:0004e70b       ?OnPaint@CControlBar@@QAEXXZ 0044f70b f   nafxcw:barcore.obj
 0001:0004e75d       ?EraseNonClient@CControlBar@@QAEXXZ 0044f75d f   nafxcw:barcore.obj
 0001:0004e82a       ?OnCtlColor@CControlBar@@QAEPAUHBRUSH__@@PAVCDC@@PAVCWnd@@I@Z 0044f82a f   nafxcw:barcore.obj
 0001:0004e882       ?OnLButtonDown@CControlBar@@QAEXIVCPoint@@@Z 0044f882 f   nafxcw:barcore.obj
 0001:0004e8c8       ?OnLButtonDblClk@CControlBar@@QAEXIVCPoint@@@Z 0044f8c8 f   nafxcw:barcore.obj
 0001:0004e8fa       ?OnIdleUpdateCmdUI@CControlBar@@QAEJIJ@Z 0044f8fa f   nafxcw:barcore.obj
 0001:0004e9a2       ?OnInitialUpdate@CControlBar@@QAEXXZ 0044f9a2 f   nafxcw:barcore.obj
 0001:0004e9ac       ?RecalcDelayShow@CControlBar@@UAEKPAUAFX_SIZEPARENTPARAMS@@@Z 0044f9ac f   nafxcw:barcore.obj
 0001:0004ea1c       ?OnSizeParent@CControlBar@@QAEJIJ@Z 0044fa1c f   nafxcw:barcore.obj
 0001:0004eb56       ?DelayShow@CControlBar@@UAEXH@Z 0044fb56 f   nafxcw:barcore.obj
 0001:0004eb8a       ?IsVisible@CControlBar@@UBEHXZ 0044fb8a f   nafxcw:barcore.obj
 0001:0004eba8       ?DoPaint@CControlBar@@UAEXPAVCDC@@@Z 0044fba8 f   nafxcw:barcore.obj
 0001:0004ebdf       ?DrawBorders@CControlBar@@QAEXPAVCDC@@AAVCRect@@@Z 0044fbdf f   nafxcw:barcore.obj
 0001:0004ed8d       ?DrawGripper@CControlBar@@QAEXPAVCDC@@ABVCRect@@@Z 0044fd8d f   nafxcw:barcore.obj
 0001:0004ee06       ?CalcInsideRect@CControlBar@@QBEXAAVCRect@@H@Z 0044fe06 f   nafxcw:barcore.obj
 0001:0004eea9       ?AfxFormatStrings@@YGXAAVCString@@IPBQBDH@Z 0044fea9 f   nafxcw:apphelp.obj
 0001:0004eee3       ?AfxFormatStrings@@YGXAAVCString@@PBDPBQBDH@Z 0044fee3 f   nafxcw:apphelp.obj
 0001:0004efe2       ?AfxFormatString1@@YGXAAVCString@@IPBD@Z 0044ffe2 f   nafxcw:apphelp.obj
 0001:0004eff9       ?AfxFormatString2@@YGXAAVCString@@IPBD1@Z 0044fff9 f   nafxcw:apphelp.obj
 0001:0004f01f       ?WriteProfileInt@CWinApp@@QAEHPBD0H@Z 0045001f f   nafxcw:appui3.obj
 0001:0004f094       ?WriteProfileStringA@CWinApp@@QAEHPBD00@Z 00450094 f   nafxcw:appui3.obj
 0001:0004f134       ?_AfxAppendFilterSuffix@@YGXAAVCString@@AAUtagOFNA@@PAVCDocTemplate@@PAV1@@Z 00450134 f   nafxcw:docmgr.obj
 0001:0004f20b       ?GetMessageMap@CNewTypeDlg@@MBEPBUAFX_MSGMAP@@XZ 0045020b f   nafxcw:docmgr.obj
 0001:0004f211       ?OnInitDialog@CNewTypeDlg@@MAEHXZ 00450211 f   nafxcw:docmgr.obj
 0001:0004f31f       ?OnOK@CNewTypeDlg@@MAEXXZ  0045031f f   nafxcw:docmgr.obj
 0001:0004f367       ?AddDocTemplate@CDocManager@@UAEXPAVCDocTemplate@@@Z 00450367 f   nafxcw:docmgr.obj
 0001:0004f3cc       ?GetFirstDocTemplatePosition@CDocManager@@UBEPAU__POSITION@@XZ 004503cc f   nafxcw:docmgr.obj
 0001:0004f3d0       ?GetNextDocTemplate@CDocManager@@UBEPAVCDocTemplate@@AAPAU__POSITION@@@Z 004503d0 f   nafxcw:docmgr.obj
 0001:0004f3e0       ?SaveAllModified@CDocManager@@UAEHXZ 004503e0 f   nafxcw:docmgr.obj
 0001:0004f3ff       ?CloseAllDocuments@CDocManager@@UAEXH@Z 004503ff f   nafxcw:docmgr.obj
 0001:0004f41d       ?DoPromptFileName@CDocManager@@UAEHAAVCString@@IKHPAVCDocTemplate@@@Z 0045041d f   nafxcw:docmgr.obj
 0001:0004f5bf       ?GetDocumentCount@CDocManager@@IAEHXZ 004505bf f   nafxcw:docmgr.obj
 0001:0004f601       ?OnDDECommand@CDocManager@@UAEHPAD@Z 00450601 f   nafxcw:docmgr.obj
 0001:0004fbe5       ?OnFileNew@CDocManager@@UAEXXZ 00450be5 f   nafxcw:docmgr.obj
 0001:0004fc8a       ??1CNewTypeDlg@@UAE@XZ     00450c8a f i nafxcw:docmgr.obj
 0001:0004fc95       ??_GCNewTypeDlg@@UAEPAXI@Z 00450c95 f i nafxcw:docmgr.obj
 0001:0004fc95       ??_ECNewTypeDlg@@UAEPAXI@Z 00450c95 f i nafxcw:docmgr.obj
 0001:0004fcb1       ?OnFileOpen@CDocManager@@UAEXXZ 00450cb1 f   nafxcw:docmgr.obj
 0001:0004fd0d       ??_ECMemFile@@UAEPAXI@Z    00450d0d f i nafxcw:filemem.obj
 0001:0004fd0d       ??_GCMemFile@@UAEPAXI@Z    00450d0d f i nafxcw:filemem.obj
 0001:0004fd29       ??0CMemFile@@QAE@PAEII@Z   00450d29 f   nafxcw:filemem.obj
 0001:0004fd65       ??1CMemFile@@UAE@XZ        00450d65 f   nafxcw:filemem.obj
 0001:0004fdb1       ?Alloc@CMemFile@@MAEPAEK@Z 00450db1 f   nafxcw:filemem.obj
 0001:0004fdbe       ?Realloc@CMemFile@@MAEPAEPAEK@Z 00450dbe f   nafxcw:filemem.obj
 0001:0004fdd0       ?Memcpy@CMemFile@@MAEPAEPAEPBEI@Z 00450dd0 f   nafxcw:filemem.obj
 0001:0004fdf5       ?Free@CMemFile@@MAEXPAE@Z  00450df5 f   nafxcw:filemem.obj
 0001:0004fe02       ?GetPosition@CMemFile@@UBEKXZ 00450e02 f   nafxcw:filemem.obj
 0001:0004fe06       ?GrowFile@CMemFile@@MAEXK@Z 00450e06 f   nafxcw:filemem.obj
 0001:0004fe5f       ?SetLength@CMemFile@@UAEXK@Z 00450e5f f   nafxcw:filemem.obj
 0001:0004fe82       ?Read@CMemFile@@UAEIPAXI@Z 00450e82 f   nafxcw:filemem.obj
 0001:0004fec3       ?Write@CMemFile@@UAEXPBXI@Z 00450ec3 f   nafxcw:filemem.obj
 0001:0004ff05       ?Seek@CMemFile@@UAEJJI@Z   00450f05 f   nafxcw:filemem.obj
 0001:0004ff4b       ?Flush@CMemFile@@UAEXXZ    00450f4b f   nafxcw:filemem.obj
 0001:0004ff4c       ?Close@CMemFile@@UAEXXZ    00450f4c f   nafxcw:filemem.obj
 0001:0004ff76       ?Abort@CMemFile@@UAEXXZ    00450f76 f   nafxcw:filemem.obj
 0001:0004ff7b       ?LockRange@CMemFile@@UAEXKK@Z 00450f7b f   nafxcw:filemem.obj
 0001:0004ff7b       ?UnlockRange@CMemFile@@UAEXKK@Z 00450f7b f   nafxcw:filemem.obj
 0001:0004ff83       ?Duplicate@CMemFile@@UBEPAVCFile@@XZ 00450f83 f   nafxcw:filemem.obj
 0001:0004ff8b       ?GetBufferPtr@CMemFile@@UAEIIIPAPAX0@Z 00450f8b f   nafxcw:filemem.obj
 0001:00050032       ?_AfxAdjustRectangle@@YGXAAVCRect@@VCPoint@@@Z 00451032 f   nafxcw:dockcont.obj
 0001:00050073       ??1CDockContext@@QAE@XZ    00451073 f   nafxcw:dockcont.obj
 0001:0005008e       ?StartDrag@CDockContext@@UAEXVCPoint@@@Z 0045108e f   nafxcw:dockcont.obj
 0001:000503da       ?Move@CDockContext@@QAEXVCPoint@@@Z 004513da f   nafxcw:dockcont.obj
 0001:00050456       ?OnKey@CDockContext@@QAEXHH@Z 00451456 f   nafxcw:dockcont.obj
 0001:0005048a       ?EndDrag@CDockContext@@QAEXXZ 0045148a f   nafxcw:dockcont.obj
 0001:00050595       ?StartResize@CDockContext@@UAEXHVCPoint@@@Z 00451595 f   nafxcw:dockcont.obj
 0001:000506d7       ?Stretch@CDockContext@@QAEXVCPoint@@@Z 004516d7 f   nafxcw:dockcont.obj
 0001:00050834       ?EndResize@CDockContext@@QAEXXZ 00451834 f   nafxcw:dockcont.obj
 0001:00050877       ?ToggleDocking@CDockContext@@UAEXXZ 00451877 f   nafxcw:dockcont.obj
 0001:00050950       ?InitLoop@CDockContext@@QAEXXZ 00451950 f   nafxcw:dockcont.obj
 0001:00050a11       ?CancelLoop@CDockContext@@QAEXXZ 00451a11 f   nafxcw:dockcont.obj
 0001:00050a5a       ?DrawFocusRect@CDockContext@@QAEXH@Z 00451a5a f   nafxcw:dockcont.obj
 0001:00050b70       ?UpdateState@CDockContext@@QAEXPAHH@Z 00451b70 f   nafxcw:dockcont.obj
 0001:00050bc2       ?CanDock@CDockContext@@QAEKXZ 00451bc2 f   nafxcw:dockcont.obj
 0001:00050cd9       ?GetDockBar@CDockContext@@QAEPAVCDockBar@@K@Z 00451cd9 f   nafxcw:dockcont.obj
 0001:00050d21       ?Track@CDockContext@@QAEHXZ 00451d21 f   nafxcw:dockcont.obj
 0001:00050e3c       ?GetDockedCount@CDockBar@@QBEHXZ 00451e3c f   nafxcw:bardock.obj
 0001:00050e69       ?DockControlBar@CDockBar@@QAEXPAVCControlBar@@PBUtagRECT@@@Z 00451e69 f   nafxcw:bardock.obj
 0001:00051094       ?ReDockControlBar@CDockBar@@QAEXPAVCControlBar@@PBUtagRECT@@@Z 00452094 f   nafxcw:bardock.obj
 0001:0005127b       ?RemovePlaceHolder@CDockBar@@QAEXPAVCControlBar@@@Z 0045227b f   nafxcw:bardock.obj
 0001:000512dc       ?RemoveControlBar@CDockBar@@QAEHPAVCControlBar@@HH@Z 004522dc f   nafxcw:bardock.obj
 0001:000513ea       ?FindBar@CDockBar@@QAEHPAVCControlBar@@H@Z 004523ea f   nafxcw:bardock.obj
 0001:00051418       ?GetDockedControlBar@CDockBar@@IBEPAVCControlBar@@H@Z 00452418 f   nafxcw:bardock.obj
 0001:00051434       ?Insert@CDockBar@@IAEHPAVCControlBar@@VCRect@@VCPoint@@@Z 00452434 f   nafxcw:bardock.obj
 0001:00051570       ??1CButton@@UAE@XZ         00452570 f   nafxcw:winctrl1.obj
 0001:000515a8       ?OnChildNotify@CButton@@MAEHIIJPAJ@Z 004525a8 f   nafxcw:winctrl1.obj
 0001:000515d6       ??1CComboBox@@UAE@XZ       004525d6 f   nafxcw:winctrl1.obj
 0001:0005160e       ?CompareItem@CComboBox@@UAEHPAUtagCOMPAREITEMSTRUCT@@@Z 0045260e f   nafxcw:winctrl1.obj
 0001:00051613       ?DrawItem@CListView@@UAEXPAUtagDRAWITEMSTRUCT@@@Z 00452613 f   nafxcw:winctrl1.obj
 0001:00051613       ?DeleteItem@CComboBox@@UAEXPAUtagDELETEITEMSTRUCT@@@Z 00452613 f   nafxcw:winctrl1.obj
 0001:00051613       ?DrawItem@CButton@@UAEXPAUtagDRAWITEMSTRUCT@@@Z 00452613 f   nafxcw:winctrl1.obj
 0001:00051613       ?DrawItem@CComboBox@@UAEXPAUtagDRAWITEMSTRUCT@@@Z 00452613 f   nafxcw:winctrl1.obj
 0001:00051613       ?MeasureItem@CComboBox@@UAEXPAUtagMEASUREITEMSTRUCT@@@Z 00452613 f   nafxcw:winctrl1.obj
 0001:00051616       ?OnChildNotify@CComboBox@@MAEHIIJPAJ@Z 00452616 f   nafxcw:winctrl1.obj
 0001:0005167d       ?Create@CEdit@@QAEHKABUtagRECT@@PAVCWnd@@I@Z 0045267d f   nafxcw:winctrl1.obj
 0001:0005169e       ??1CEdit@@UAE@XZ           0045269e f   nafxcw:winctrl1.obj
 0001:000516d6       ?AfxWingdixTerm@@YAXXZ     004526d6 f   nafxcw:wingdix.obj
 0001:000516f7       ?DPtoHIMETRIC@CDC@@QBEXPAUtagSIZE@@@Z 004526f7 f   nafxcw:wingdix.obj
 0001:00051785       ?HIMETRICtoDP@CDC@@QBEXPAUtagSIZE@@@Z 00452785 f   nafxcw:wingdix.obj
 0001:00051813       ?GetHalftoneBrush@CDC@@SGPAVCBrush@@XZ 00452813 f   nafxcw:wingdix.obj
 0001:00051886       ?DrawDragRect@CDC@@QAEXPBUtagRECT@@UtagSIZE@@01PAVCBrush@@2@Z 00452886 f   nafxcw:wingdix.obj
 0001:00051b8a       ?FillSolidRect@CDC@@QAEXPBUtagRECT@@K@Z 00452b8a f   nafxcw:wingdix.obj
 0001:00051bb4       ?FillSolidRect@CDC@@QAEXHHHHK@Z 00452bb4 f   nafxcw:wingdix.obj
 0001:00051c00       ?Draw3dRect@CDC@@QAEXPBUtagRECT@@KK@Z 00452c00 f   nafxcw:wingdix.obj
 0001:00051c2b       ?Draw3dRect@CDC@@QAEXHHHHKK@Z 00452c2b f   nafxcw:wingdix.obj
 0001:00051c95       ?DeflateRect@CRect@@QAEXHHHH@Z 00452c95 f   nafxcw:wingdix.obj
 0001:00051cb3       ?GetMessageMap@CListView@@MBEPBUAFX_MSGMAP@@XZ 00452cb3 f   nafxcw:viewcmn.obj
 0001:00051cb9       ?PreCreateWindow@CListView@@UAEHAAUtagCREATESTRUCTA@@@Z 00452cb9 f   nafxcw:viewcmn.obj
 0001:00051cc5       ?OnChildNotify@CListView@@MAEHIIJPAJ@Z 00452cc5 f   nafxcw:viewcmn.obj
 0001:00051cf3       ?RemoveImageList@CListView@@IAEXH@Z 00452cf3 f   nafxcw:viewcmn.obj
 0001:00051d2c       ?OnNcDestroy@CListView@@QAEXXZ 00452d2c f   nafxcw:viewcmn.obj
 0001:00051dbe       ?GetMessageMap@CFrameWnd@@MBEPBUAFX_MSGMAP@@XZ 00452dbe f   nafxcw:winfrm.obj
 0001:00051dc4       ??0CFrameWnd@@QAE@XZ       00452dc4 f   nafxcw:winfrm.obj
 0001:00051e86       ??_GCFrameWnd@@UAEPAXI@Z   00452e86 f i nafxcw:winfrm.obj
 0001:00051e86       ??_ECFrameWnd@@UAEPAXI@Z   00452e86 f i nafxcw:winfrm.obj
 0001:00051ea2       ??1CFrameWnd@@UAE@XZ       00452ea2 f   nafxcw:winfrm.obj
 0001:00051f22       ?AddFrameWnd@CFrameWnd@@IAEXXZ 00452f22 f   nafxcw:winfrm.obj
 0001:00051f46       ?RemoveFrameWnd@CFrameWnd@@IAEXXZ 00452f46 f   nafxcw:winfrm.obj
 0001:00051f6a       ?LoadAccelTable@CFrameWnd@@QAEHPBD@Z 00452f6a f   nafxcw:winfrm.obj
 0001:00051f90       ?GetDefaultAccelerator@CFrameWnd@@UAEPAUHACCEL__@@XZ 00452f90 f   nafxcw:winfrm.obj
 0001:00051fb4       ?PreTranslateMessage@CFrameWnd@@UAEHPAUtagMSG@@@Z 00452fb4 f   nafxcw:winfrm.obj
 0001:0005202b       ?PostNcDestroy@CFrameWnd@@MAEXXZ 0045302b f   nafxcw:winfrm.obj
 0001:00052037       ?OnPaletteChanged@CFrameWnd@@IAEXPAVCWnd@@@Z 00453037 f   nafxcw:winfrm.obj
 0001:00052053       ?OnQueryNewPalette@CFrameWnd@@IAEHXZ 00453053 f   nafxcw:winfrm.obj
 0001:00052074       ?ExitHelpMode@CFrameWnd@@UAEXXZ 00453074 f   nafxcw:winfrm.obj
 0001:000520df       ?OnSetCursor@CFrameWnd@@IAEHPAVCWnd@@II@Z 004530df f   nafxcw:winfrm.obj
 0001:00052109       ?OnCommandHelp@CFrameWnd@@IAEJIJ@Z 00453109 f   nafxcw:winfrm.obj
 0001:00052161       ?OnHelpHitTest@CFrameWnd@@IAEJIJ@Z 00453161 f   nafxcw:winfrm.obj
 0001:00052177       ?OnCommand@CFrameWnd@@MAEHIJ@Z 00453177 f   nafxcw:winfrm.obj
 0001:000521ee       ?AfxIsDescendant@@YGHPAUHWND__@@0@Z 004531ee f   nafxcw:winfrm.obj
 0001:0005220e       ?BeginModalState@CFrameWnd@@UAEXXZ 0045320e f   nafxcw:winfrm.obj
 0001:0005232a       ?EndModalState@CFrameWnd@@UAEXXZ 0045332a f   nafxcw:winfrm.obj
 0001:00052399       ?ShowOwnedWindows@CFrameWnd@@QAEXH@Z 00453399 f   nafxcw:winfrm.obj
 0001:00052431       ?OnEnable@CFrameWnd@@IAEXH@Z 00453431 f   nafxcw:winfrm.obj
 0001:000524e7       ?NotifyFloatingWindows@CFrameWnd@@QAEXK@Z 004534e7 f   nafxcw:winfrm.obj
 0001:00052591       ?PreCreateWindow@CFrameWnd@@MAEHAAUtagCREATESTRUCTA@@@Z 00453591 f   nafxcw:winfrm.obj
 0001:000525d5       ?Create@CFrameWnd@@QAEHPBD0KABUtagRECT@@PAVCWnd@@0KPAUCCreateContext@@@Z 004535d5 f   nafxcw:winfrm.obj
 0001:0005266d       ?CreateView@CFrameWnd@@QAEPAVCWnd@@PAUCCreateContext@@I@Z 0045366d f   nafxcw:winfrm.obj
 0001:000526e5       ?OnCreateClient@CFrameWnd@@MAEHPAUtagCREATESTRUCTA@@PAUCCreateContext@@@Z 004536e5 f   nafxcw:winfrm.obj
 0001:00052707       ?OnCreate@CFrameWnd@@IAEHPAUtagCREATESTRUCTA@@@Z 00453707 f   nafxcw:winfrm.obj
 0001:00052716       ?OnCreateHelper@CFrameWnd@@IAEHPAUtagCREATESTRUCTA@@PAUCCreateContext@@@Z 00453716 f   nafxcw:winfrm.obj
 0001:00052765       ?GetIconWndClass@CFrameWnd@@IAEPBDKI@Z 00453765 f   nafxcw:winfrm.obj
 0001:000527e8       ?LoadFrame@CFrameWnd@@UAEHIKPAVCWnd@@PAUCCreateContext@@@Z 004537e8 f   nafxcw:winfrm.obj
 0001:000528b2       ?OnUpdateFrameMenu@CFrameWnd@@UAEXPAUHMENU__@@@Z 004538b2 f   nafxcw:winfrm.obj
 0001:000528e8       ?InitialUpdateFrame@CFrameWnd@@QAEXPAVCDocument@@H@Z 004538e8 f   nafxcw:winfrm.obj
 0001:000529ae       ?OnClose@CFrameWnd@@IAEXXZ 004539ae f   nafxcw:winfrm.obj
 0001:00052aa5       ?OnDestroy@CFrameWnd@@IAEXXZ 00453aa5 f   nafxcw:winfrm.obj
 0001:00052af8       ?RemoveControlBar@CFrameWnd@@QAEXPAVCControlBar@@@Z 00453af8 f   nafxcw:winfrm.obj
 0001:00052b19       ?OnCmdMsg@CFrameWnd@@UAEHIHPAXPAUAFX_CMDHANDLERINFO@@@Z 00453b19 f   nafxcw:winfrm.obj
 0001:00052bc1       ?OnHScroll@CFrameWnd@@IAEXIIPAVCScrollBar@@@Z 00453bc1 f   nafxcw:winfrm.obj
 0001:00052bea       ?OnVScroll@CFrameWnd@@IAEXIIPAVCScrollBar@@@Z 00453bea f   nafxcw:winfrm.obj
 0001:00052c13       ?OnActivateTopLevel@CFrameWnd@@IAEJIJ@Z 00453c13 f   nafxcw:winfrm.obj
 0001:00052ca1       ?OnActivate@CFrameWnd@@IAEXIPAVCWnd@@H@Z 00453ca1 f   nafxcw:winfrm.obj
 0001:00052d75       ?OnNcActivate@CFrameWnd@@IAEHH@Z 00453d75 f   nafxcw:winfrm.obj
 0001:00052dac       ?OnSysCommand@CFrameWnd@@IAEXIJ@Z 00453dac f   nafxcw:winfrm.obj
 0001:00052e41       ?OnDropFiles@CFrameWnd@@IAEXPAUHDROP__@@@Z 00453e41 f   nafxcw:winfrm.obj
 0001:00052eb3       ?OnQueryEndSession@CFrameWnd@@IAEHXZ 00453eb3 f   nafxcw:winfrm.obj
 0001:00052ed8       ?OnEndSession@CFrameWnd@@IAEXH@Z 00453ed8 f   nafxcw:winfrm.obj
 0001:00052f10       ?OnDDEInitiate@CFrameWnd@@IAEJIJ@Z 00453f10 f   nafxcw:winfrm.obj
 0001:00052fd3       ?OnDDEExecute@CFrameWnd@@IAEJIJ@Z 00453fd3 f   nafxcw:winfrm.obj
 0001:0005306e       ?OnDDETerminate@CFrameWnd@@IAEJIJ@Z 0045406e f   nafxcw:winfrm.obj
 0001:00053089       ?GetActiveView@CFrameWnd@@QBEPAVCView@@XZ 00454089 f   nafxcw:winfrm.obj
 0001:00053090       ?SetActiveView@CFrameWnd@@QAEXPAVCView@@H@Z 00454090 f   nafxcw:winfrm.obj
 0001:000530ea       ?OnSetFocus@CFrameWnd@@IAEXPAVCWnd@@@Z 004540ea f   nafxcw:winfrm.obj
 0001:00053105       ?GetActiveDocument@CFrameWnd@@UAEPAVCDocument@@XZ 00454105 f   nafxcw:winfrm.obj
 0001:00053115       ?ShowControlBar@CFrameWnd@@QAEXPAVCControlBar@@HH@Z 00454115 f   nafxcw:winfrm.obj
 0001:00053210       ?OnInitMenu@CFrameWnd@@IAEXPAVCMenu@@@Z 00454210 f   nafxcw:winfrm.obj
 0001:0005322e       ?OnInitMenuPopup@CFrameWnd@@IAEXPAVCMenu@@IH@Z 0045422e f   nafxcw:winfrm.obj
 0001:000533af       ?OnMenuSelect@CFrameWnd@@IAEXIIPAUHMENU__@@@Z 004543af f   nafxcw:winfrm.obj
 0001:000534c0       ?GetMessageString@CFrameWnd@@UBEXIAAVCString@@@Z 004544c0 f   nafxcw:winfrm.obj
 0001:00053504       ?OnPopMessageString@CFrameWnd@@IAEJIJ@Z 00454504 f   nafxcw:winfrm.obj
 0001:00053527       ?OnSetMessageString@CFrameWnd@@IAEJIJ@Z 00454527 f   nafxcw:winfrm.obj
 0001:000535ec       ?OnHelpPromptAddr@CFrameWnd@@IAEJIJ@Z 004545ec f   nafxcw:winfrm.obj
 0001:000535f2       ?GetMessageBar@CFrameWnd@@UAEPAVCWnd@@XZ 004545f2 f   nafxcw:winfrm.obj
 0001:00053602       ?OnEnterIdle@CFrameWnd@@IAEXIPAVCWnd@@@Z 00454602 f   nafxcw:winfrm.obj
 0001:00053633       ?SetMessageText@CFrameWnd@@QAEXI@Z 00454633 f   nafxcw:winfrm.obj
 0001:0005364a       ?DestroyDockBars@CFrameWnd@@QAEXXZ 0045464a f   nafxcw:winfrm.obj
 0001:000536d5       ?GetControlBar@CFrameWnd@@QAEPAVCControlBar@@I@Z 004546d5 f   nafxcw:winfrm.obj
 0001:00053709       ?OnUpdateControlBarMenu@CFrameWnd@@QAEXPAVCCmdUI@@@Z 00454709 f   nafxcw:winfrm.obj
 0001:0005373e       ?OnBarCheck@CFrameWnd@@QAEHI@Z 0045473e f   nafxcw:winfrm.obj
 0001:00053777       ?OnToolTipText@CFrameWnd@@IAEHIPAUtagNMHDR@@PAJ@Z 00454777 f   nafxcw:winfrm.obj
 0001:0005384e       ?OnUpdateKeyIndicator@CFrameWnd@@IAEXPAVCCmdUI@@@Z 0045484e f   nafxcw:winfrm.obj
 0001:000538af       ?OnUpdateContextHelp@CFrameWnd@@IAEXPAVCCmdUI@@@Z 004548af f   nafxcw:winfrm.obj
 0001:000538de       ?OnUpdateFrameTitle@CFrameWnd@@UAEXH@Z 004548de f   nafxcw:winfrm.obj
 0001:00053922       ?UpdateFrameTitleForDocument@CFrameWnd@@QAEXPBD@Z 00454922 f   nafxcw:winfrm.obj
 0001:00053a1f       ?OnSetPreviewMode@CFrameWnd@@UAEXHPAUCPrintPreviewState@@@Z 00454a1f f   nafxcw:winfrm.obj
 0001:00053c3a       ?DelayUpdateFrameMenu@CFrameWnd@@UAEXPAUHMENU__@@@Z 00454c3a f   nafxcw:winfrm.obj
 0001:00053c4e       ?OnIdleUpdateCmdUI@CFrameWnd@@IAEXXZ 00454c4e f   nafxcw:winfrm.obj
 0001:00053cbd       ?GetActiveFrame@CFrameWnd@@UAEPAV1@XZ 00454cbd f   nafxcw:winfrm.obj
 0001:00053cc0       ?RecalcLayout@CFrameWnd@@UAEXH@Z 00454cc0 f   nafxcw:winfrm.obj
 0001:00053dad       ?NegotiateBorderSpace@CFrameWnd@@UAEHIPAUtagRECT@@@Z 00454dad f   nafxcw:winfrm.obj
 0001:00053e27       ?OnSize@CFrameWnd@@IAEXIHH@Z 00454e27 f   nafxcw:winfrm.obj
 0001:00053e46       ?OnEraseBkgnd@CFrameWnd@@IAEHPAVCDC@@@Z 00454e46 f   nafxcw:winfrm.obj
 0001:00053e5c       ?OnRegisteredMouseWheel@CFrameWnd@@IAEJIJ@Z 00454e5c f   nafxcw:winfrm.obj
 0001:00053eff       ?ActivateFrame@CFrameWnd@@UAEXH@Z 00454eff f   nafxcw:winfrm.obj
 0001:00053f4f       ?BringToTop@CFrameWnd@@IAEXH@Z 00454f4f f   nafxcw:winfrm.obj
 0001:00053f7e       ?GetDockingFrame@CControlBar@@QBEPAVCFrameWnd@@XZ 00454f7e f   nafxcw:winfrm.obj
 0001:00053f8f       ?IsFloating@CControlBar@@QBEHXZ 00454f8f f   nafxcw:winfrm.obj
 0001:00053fb9       ?AfxOleCanExitApp@@YGHXZ   00454fb9 f   nafxcw:olelock.obj
 0001:00053fc9       ?AfxOleSetUserCtrl@@YGXH@Z 00454fc9 f   nafxcw:olelock.obj
 0001:00053fd8       ?AfxOleGetUserCtrl@@YGHXZ  00454fd8 f   nafxcw:olelock.obj
 0001:00053fe1       ?_AfxWinminiTerm@@YAXXZ    00454fe1 f   nafxcw:winmini.obj
 0001:0005400c       ?Initialize@CMiniFrameWnd@@SAXXZ 0045500c f   nafxcw:winmini.obj
 0001:00054178       ?CalcBorders@CMiniFrameWnd@@SGXPAUtagRECT@@KK@Z 00455178 f   nafxcw:winmini.obj
 0001:000541e4       ?CreateFloatingFrame@CFrameWnd@@QAEPAVCMiniDockFrameWnd@@K@Z 004551e4 f   nafxcw:winfrm2.obj
 0001:0005421d       ?DockControlBar@CFrameWnd@@QAEXPAVCControlBar@@PAVCDockBar@@PBUtagRECT@@@Z 0045521d f   nafxcw:winfrm2.obj
 0001:00054272       ?ReDockControlBar@CFrameWnd@@QAEXPAVCControlBar@@PAVCDockBar@@PBUtagRECT@@@Z 00455272 f   nafxcw:winfrm2.obj
 0001:000542f7       ?FloatControlBar@CFrameWnd@@QAEXPAVCControlBar@@VCPoint@@K@Z 004552f7 f   nafxcw:winfrm2.obj
 0001:000543f4       ?CanDock@CFrameWnd@@QAEKVCRect@@KPAPAVCDockBar@@@Z 004553f4 f   nafxcw:winfrm2.obj
 0001:0005449c       ?GetRuntimeClass@CDialog@@UBEPAUCRuntimeClass@@XZ 0045549c f   nafxcw:dlgcore.obj
 0001:000544a2       ?CreateObject@CWnd@@SGPAVCObject@@XZ 004554a2 f   nafxcw:wincore.obj
 0001:000544d4       ?GetRuntimeClass@CWnd@@UBEPAUCRuntimeClass@@XZ 004554d4 f   nafxcw:wincore.obj
 0001:000544da       ?CreateObject@CTempWnd@@SGPAVCObject@@XZ 004554da f   nafxcw:wincore.obj
 0001:0005451a       ??_ECTempWnd@@UAEPAXI@Z    0045551a f i nafxcw:wincore.obj
 0001:0005451a       ??_GCTempWnd@@UAEPAXI@Z    0045551a f i nafxcw:wincore.obj
 0001:0005453a       ??1CTempWnd@@UAE@XZ        0045553a f i nafxcw:wincore.obj
 0001:0005453f       ?GetRuntimeClass@CTempWnd@@UBEPAUCRuntimeClass@@XZ 0045553f f   nafxcw:wincore.obj
 0001:00054585       ?CreateObject@?$CThreadLocal@V_AFX_THREAD_STATE@@@@SGPAVCNoTrackObject@@XZ 00455585 f i nafxcw:wincore.obj
 0001:000545b9       ?CreateObject@?$CProcessLocal@V_AFX_WIN_STATE@@@@SGPAVCNoTrackObject@@XZ 004555b9 f i nafxcw:wincore.obj
 0001:000545ea       ?CreateObject@?$CProcessLocal@V_AFX_CTL3D_STATE@@@@SGPAVCNoTrackObject@@XZ 004555ea f i nafxcw:wincore.obj
 0001:000545ff       ??_G_AFX_CTL3D_STATE@@UAEPAXI@Z 004555ff f i nafxcw:wincore.obj
 0001:000545ff       ??_E_AFX_CTL3D_STATE@@UAEPAXI@Z 004555ff f i nafxcw:wincore.obj
 0001:0005461a       ?_AfxLoadDotBitmap@@YGXXZ  0045561a f   nafxcw:cmdtarg.obj
 0001:000546fa       ?GetRuntimeClass@CCmdTarget@@UBEPAUCRuntimeClass@@XZ 004556fa f   nafxcw:cmdtarg.obj
 0001:00054700       ??0_AFX_THREAD_STATE@@QAE@XZ 00455700 f   nafxcw:afxstate.obj
 0001:00054717       ??_G_AFX_THREAD_STATE@@UAEPAXI@Z 00455717 f i nafxcw:afxstate.obj
 0001:00054717       ??_E_AFX_THREAD_STATE@@UAEPAXI@Z 00455717 f i nafxcw:afxstate.obj
 0001:00054732       ??1_AFX_THREAD_STATE@@UAE@XZ 00455732 f   nafxcw:afxstate.obj
 0001:000547a6       ?AfxGetThreadState@@YGPAV_AFX_THREAD_STATE@@XZ 004557a6 f   nafxcw:afxstate.obj
 0001:000547d7       ??1?$CThreadLocal@V_AFX_THREAD_STATE@@@@QAE@XZ 004557d7 f i nafxcw:afxstate.obj
 0001:000547d7       ??1?$CThreadLocal@V_AFX_CTL3D_THREAD@@@@QAE@XZ 004557d7 f i nafxcw:afxstate.obj
 0001:000547d7       ??1?$CThreadLocal@VAFX_MODULE_THREAD_STATE@@@@QAE@XZ 004557d7 f i nafxcw:afxstate.obj
 0001:000547dc       ??0AFX_MODULE_STATE@@QAE@H@Z 004557dc f   nafxcw:afxstate.obj
 0001:0005483f       ??_GAFX_MODULE_STATE@@UAEPAXI@Z 0045583f f i nafxcw:afxstate.obj
 0001:0005483f       ??_EAFX_MODULE_STATE@@UAEPAXI@Z 0045583f f i nafxcw:afxstate.obj
 0001:0005485a       ??1AFX_MODULE_STATE@@UAE@XZ 0045585a f   nafxcw:afxstate.obj
 0001:000548cf       ??0AFX_MODULE_THREAD_STATE@@QAE@XZ 004558cf f   nafxcw:afxstate.obj
 0001:000548ee       ??_EAFX_MODULE_THREAD_STATE@@UAEPAXI@Z 004558ee f i nafxcw:afxstate.obj
 0001:000548ee       ??_GAFX_MODULE_THREAD_STATE@@UAEPAXI@Z 004558ee f i nafxcw:afxstate.obj
 0001:00054909       ??1AFX_MODULE_THREAD_STATE@@UAE@XZ 00455909 f   nafxcw:afxstate.obj
 0001:000549d8       ?AfxGetModuleState@@YGPAVAFX_MODULE_STATE@@XZ 004559d8 f   nafxcw:afxstate.obj
 0001:000549fe       ?AfxGetModuleThreadState@@YGPAVAFX_MODULE_THREAD_STATE@@XZ 004559fe f   nafxcw:afxstate.obj
 0001:00054a15       ?Unlock@CTypeLibCache@@QAEXXZ 00455a15 f   nafxcw:afxstate.obj
 0001:00054a4a       ?CreateObject@?$CThreadLocal@VAFX_MODULE_THREAD_STATE@@@@SGPAVCNoTrackObject@@XZ 00455a4a f i nafxcw:afxstate.obj
 0001:00054a60       ?CreateObject@?$CProcessLocal@V_AFX_BASE_MODULE_STATE@@@@SGPAVCNoTrackObject@@XZ 00455a60 f i nafxcw:afxstate.obj
 0001:00054a88       ??_E_AFX_BASE_MODULE_STATE@@UAEPAXI@Z 00455a88 f i nafxcw:afxstate.obj
 0001:00054a88       ??_G_AFX_BASE_MODULE_STATE@@UAEPAXI@Z 00455a88 f i nafxcw:afxstate.obj
 0001:00054aa3       ??1_AFX_BASE_MODULE_STATE@@UAE@XZ 00455aa3 f i nafxcw:afxstate.obj
 0001:00054aa8       ?GetRuntimeClass@CResourceException@@UBEPAUCRuntimeClass@@XZ 00455aa8 f   nafxcw:wingdi.obj
 0001:00054ae0       ?GetRuntimeClass@CUserException@@UBEPAUCRuntimeClass@@XZ 00455ae0 f   nafxcw:wingdi.obj
 0001:00054b18       ?CreateObject@CDC@@SGPAVCObject@@XZ 00455b18 f   nafxcw:wingdi.obj
 0001:00054b2f       ?GetRuntimeClass@CDC@@UBEPAUCRuntimeClass@@XZ 00455b2f f   nafxcw:wingdi.obj
 0001:00054b35       ?GetRuntimeClass@CClientDC@@UBEPAUCRuntimeClass@@XZ 00455b35 f   nafxcw:wingdi.obj
 0001:00054b3b       ?GetRuntimeClass@CWindowDC@@UBEPAUCRuntimeClass@@XZ 00455b3b f   nafxcw:wingdi.obj
 0001:00054b41       ?GetRuntimeClass@CPaintDC@@UBEPAUCRuntimeClass@@XZ 00455b41 f   nafxcw:wingdi.obj
 0001:00054b47       ?CreateObject@CGdiObject@@SGPAVCObject@@XZ 00455b47 f   nafxcw:wingdi.obj
 0001:00054b61       ?GetRuntimeClass@CGdiObject@@UBEPAUCRuntimeClass@@XZ 00455b61 f   nafxcw:wingdi.obj
 0001:00054b67       ?GetRuntimeClass@CPen@@UBEPAUCRuntimeClass@@XZ 00455b67 f   nafxcw:wingdi.obj
 0001:00054b6d       ?GetRuntimeClass@CBrush@@UBEPAUCRuntimeClass@@XZ 00455b6d f   nafxcw:wingdi.obj
 0001:00054b73       ?GetRuntimeClass@CFont@@UBEPAUCRuntimeClass@@XZ 00455b73 f   nafxcw:wingdi.obj
 0001:00054b79       ?GetRuntimeClass@CBitmap@@UBEPAUCRuntimeClass@@XZ 00455b79 f   nafxcw:wingdi.obj
 0001:00054b7f       ?GetRuntimeClass@CRgn@@UBEPAUCRuntimeClass@@XZ 00455b7f f   nafxcw:wingdi.obj
 0001:00054b85       ?CreateObject@CTempDC@@SGPAVCObject@@XZ 00455b85 f   nafxcw:wingdi.obj
 0001:00054bab       ??_ECTempDC@@UAEPAXI@Z     00455bab f i nafxcw:wingdi.obj
 0001:00054bab       ??_GCTempDC@@UAEPAXI@Z     00455bab f i nafxcw:wingdi.obj
 0001:00054bcb       ??1CTempDC@@UAE@XZ         00455bcb f i nafxcw:wingdi.obj
 0001:00054bd0       ?GetRuntimeClass@CTempDC@@UBEPAUCRuntimeClass@@XZ 00455bd0 f   nafxcw:wingdi.obj
 0001:00054bd6       ?CreateObject@CTempGdiObject@@SGPAVCObject@@XZ 00455bd6 f   nafxcw:wingdi.obj
 0001:00054bf2       ??_GCTempGdiObject@@UAEPAXI@Z 00455bf2 f i nafxcw:wingdi.obj
 0001:00054bf2       ??_ECTempGdiObject@@UAEPAXI@Z 00455bf2 f i nafxcw:wingdi.obj
 0001:00054c12       ??1CTempGdiObject@@UAE@XZ  00455c12 f i nafxcw:wingdi.obj
 0001:00054c3b       ?GetRuntimeClass@CTempGdiObject@@UBEPAUCRuntimeClass@@XZ 00455c3b f   nafxcw:wingdi.obj
 0001:00054cc1       ?GetRuntimeClass@CButton@@UBEPAUCRuntimeClass@@XZ 00455cc1 f   nafxcw:winctrl1.obj
 0001:00054cc7       ?GetRuntimeClass@CComboBox@@UBEPAUCRuntimeClass@@XZ 00455cc7 f   nafxcw:winctrl1.obj
 0001:00054ccd       ?GetRuntimeClass@CEdit@@UBEPAUCRuntimeClass@@XZ 00455ccd f   nafxcw:winctrl1.obj
 0001:00054cd3       ?GetRuntimeClass@CToolTipCtrl@@UBEPAUCRuntimeClass@@XZ 00455cd3 f   nafxcw:tooltip.obj
 0001:00054cd9       ?GetRuntimeClass@CFile@@UBEPAUCRuntimeClass@@XZ 00455cd9 f   nafxcw:filecore.obj
 0001:00054cdf       ?GetRuntimeClass@CFormView@@UBEPAUCRuntimeClass@@XZ 00455cdf f   nafxcw:viewform.obj
 0001:00054ce5       ?GetRuntimeClass@CScrollView@@UBEPAUCRuntimeClass@@XZ 00455ce5 f   nafxcw:viewscrl.obj
 0001:00054ceb       ?GetRuntimeClass@CFileDialog@@UBEPAUCRuntimeClass@@XZ 00455ceb f   nafxcw:dlgfile.obj
 0001:00054cf1       ?GetRuntimeClass@CMemoryException@@UBEPAUCRuntimeClass@@XZ 00455cf1 f   nafxcw:except.obj
 0001:00054d29       ?GetRuntimeClass@CNotSupportedException@@UBEPAUCRuntimeClass@@XZ 00455d29 f   nafxcw:except.obj
 0001:00054d61       ?GetRuntimeClass@CProgressCtrl@@UBEPAUCRuntimeClass@@XZ 00455d61 f   nafxcw:winctrl2.obj
 0001:00054d67       ?GetRuntimeClass@CHeaderCtrl@@UBEPAUCRuntimeClass@@XZ 00455d67 f   nafxcw:winctrl2.obj
 0001:00054d6d       ?GetRuntimeClass@CTabCtrl@@UBEPAUCRuntimeClass@@XZ 00455d6d f   nafxcw:winctrl2.obj
 0001:00054d73       ?GetRuntimeClass@CListCtrl@@UBEPAUCRuntimeClass@@XZ 00455d73 f   nafxcw:winctrl2.obj
 0001:00054d79       ?CreateObject@CImageList@@SGPAVCObject@@XZ 00455d79 f   nafxcw:winctrl2.obj
 0001:00054d90       ?GetRuntimeClass@CImageList@@UBEPAUCRuntimeClass@@XZ 00455d90 f   nafxcw:winctrl2.obj
 0001:00054d96       ?CreateObject@CTempImageList@@SGPAVCObject@@XZ 00455d96 f   nafxcw:winctrl2.obj
 0001:00054dbc       ??_GCTempImageList@@UAEPAXI@Z 00455dbc f i nafxcw:winctrl2.obj
 0001:00054dbc       ??_ECTempImageList@@UAEPAXI@Z 00455dbc f i nafxcw:winctrl2.obj
 0001:00054ddc       ??1CTempImageList@@UAE@XZ  00455ddc f i nafxcw:winctrl2.obj
 0001:00054de1       ?GetRuntimeClass@CTempImageList@@UBEPAUCRuntimeClass@@XZ 00455de1 f   nafxcw:winctrl2.obj
 0001:00054e27       ??0CStatusBar@@QAE@XZ      00455e27 f   nafxcw:barstat.obj
 0001:00054e64       ??_GCStatusBar@@UAEPAXI@Z  00455e64 f i nafxcw:barstat.obj
 0001:00054e64       ??_ECStatusBar@@UAEPAXI@Z  00455e64 f i nafxcw:barstat.obj
 0001:00054e80       ??1CStatusBar@@UAE@XZ      00455e80 f   nafxcw:barstat.obj
 0001:00054ebb       ?Create@CStatusBar@@QAEHPAVCWnd@@KI@Z 00455ebb f   nafxcw:barstat.obj
 0001:00054ed1       ?CreateEx@CStatusBar@@QAEHPAVCWnd@@KKI@Z 00455ed1 f   nafxcw:barstat.obj
 0001:00054f41       ?PreCreateWindow@CStatusBar@@UAEHAAUtagCREATESTRUCTA@@@Z 00455f41 f   nafxcw:barstat.obj
 0001:00054f70       ?SetIndicators@CStatusBar@@QAEHPBIH@Z 00455f70 f   nafxcw:barstat.obj
 0001:000550a9       ?AllocElements@CStatusBar@@QAEHHH@Z 004560a9 f   nafxcw:barstat.obj
 0001:0005510d       ?CalcInsideRect@CStatusBar@@QBEXAAVCRect@@H@Z 0045610d f   nafxcw:barstat.obj
 0001:0005517d       ?UpdateAllPanes@CStatusBar@@IAEXHH@Z 0045617d f   nafxcw:barstat.obj
 0001:000552b7       ?GetRuntimeClass@CStatusBar@@UBEPAUCRuntimeClass@@XZ 004562b7 f   nafxcw:barstat.obj
 0001:000552bd       ?_AfxGetComCtlVersion@@YGKXZ 004562bd f   nafxcw:bartool.obj
 0001:0005532b       ?_AfxGetDropDownWidth@@YGHXZ 0045632b f   nafxcw:bartool.obj
 0001:000553ac       ??0CToolBar@@QAE@XZ        004563ac f   nafxcw:bartool.obj
 0001:0005540d       ??_GCToolBar@@UAEPAXI@Z    0045640d f i nafxcw:bartool.obj
 0001:0005540d       ??_ECToolBar@@UAEPAXI@Z    0045640d f i nafxcw:bartool.obj
 0001:00055429       ??1CToolBar@@UAE@XZ        00456429 f   nafxcw:bartool.obj
 0001:0005547d       ?Create@CToolBar@@QAEHPAVCWnd@@KI@Z 0045647d f   nafxcw:bartool.obj
 0001:000554bf       ?CreateEx@CToolBar@@QAEHPAVCWnd@@KKVCRect@@I@Z 004564bf f   nafxcw:bartool.obj
 0001:00055563       ?OnNcCreate@CToolBar@@IAEHPAUtagCREATESTRUCTA@@@Z 00456563 f   nafxcw:bartool.obj
 0001:000555a2       ?SetSizes@CToolBar@@QAEXUtagSIZE@@0@Z 004565a2 f   nafxcw:bartool.obj
 0001:00055629       ?LoadToolBar@CToolBar@@QAEHPBD@Z 00456629 f   nafxcw:bartool.obj
 0001:000556ed       ?LoadBitmapA@CToolBar@@QAEHPBD@Z 004566ed f   nafxcw:bartool.obj
 0001:00055735       ?AddReplaceBitmap@CToolBar@@QAEHPAUHBITMAP__@@@Z 00456735 f   nafxcw:bartool.obj
 0001:000557d9       ?SetButtons@CToolBar@@QAEHPBIH@Z 004567d9 f   nafxcw:bartool.obj
 0001:000558fe       ?GetRuntimeClass@CToolBar@@UBEPAUCRuntimeClass@@XZ 004568fe f   nafxcw:bartool.obj
 0001:00055904       ?GetRuntimeClass@CFileFind@@UBEPAUCRuntimeClass@@XZ 00456904 f   nafxcw:filefind.obj
 0001:0005590a       ?CreateObject@CMenu@@SGPAVCObject@@XZ 0045690a f   nafxcw:winmenu.obj
 0001:00055924       ?GetRuntimeClass@CMenu@@UBEPAUCRuntimeClass@@XZ 00456924 f   nafxcw:winmenu.obj
 0001:0005592a       ?CreateObject@CTempMenu@@SGPAVCObject@@XZ 0045692a f   nafxcw:winmenu.obj
 0001:00055946       ??_GCTempMenu@@UAEPAXI@Z   00456946 f i nafxcw:winmenu.obj
 0001:00055946       ??_ECTempMenu@@UAEPAXI@Z   00456946 f i nafxcw:winmenu.obj
 0001:00055966       ??1CTempMenu@@UAE@XZ       00456966 f i nafxcw:winmenu.obj
 0001:0005598f       ?GetRuntimeClass@CTempMenu@@UBEPAUCRuntimeClass@@XZ 0045698f f   nafxcw:winmenu.obj
 0001:000559d5       ??0_AFX_WIN_STATE@@QAE@XZ  004569d5 f   nafxcw:appcore.obj
 0001:000559de       ??_E_AFX_WIN_STATE@@UAEPAXI@Z 004569de f i nafxcw:appcore.obj
 0001:000559de       ??_G_AFX_WIN_STATE@@UAEPAXI@Z 004569de f i nafxcw:appcore.obj
 0001:000559f9       ??0CWinApp@@QAE@PBD@Z      004569f9 f   nafxcw:appcore.obj
 0001:00055ae3       ??_ECWinApp@@UAEPAXI@Z     00456ae3 f i nafxcw:appcore.obj
 0001:00055ae3       ??_GCWinApp@@UAEPAXI@Z     00456ae3 f i nafxcw:appcore.obj
 0001:00055aff       ?InitApplication@CWinApp@@UAEHXZ 00456aff f   nafxcw:appcore.obj
 0001:00055b3f       ?InitInstance@CWinApp@@UAEHXZ 00456b3f f   nafxcw:appcore.obj
 0001:00055b43       ?ParseCommandLine@CWinApp@@QAEXAAVCCommandLineInfo@@@Z 00456b43 f   nafxcw:appcore.obj
 0001:00055b96       ??0CCommandLineInfo@@QAE@XZ 00456b96 f   nafxcw:appcore.obj
 0001:00055bd5       ??_GCCommandLineInfo@@UAEPAXI@Z 00456bd5 f i nafxcw:appcore.obj
 0001:00055bd5       ??_ECCommandLineInfo@@UAEPAXI@Z 00456bd5 f i nafxcw:appcore.obj
 0001:00055bf1       ??1CCommandLineInfo@@UAE@XZ 00456bf1 f   nafxcw:appcore.obj
 0001:00055c48       ?ParseParam@CCommandLineInfo@@UAEXPBDHH@Z 00456c48 f   nafxcw:appcore.obj
 0001:00055c71       ?ParseParamFlag@CCommandLineInfo@@IAEXPBD@Z 00456c71 f   nafxcw:appcore.obj
 0001:00055d2f       ?ParseParamNotFlag@CCommandLineInfo@@IAEXPBD@Z 00456d2f f   nafxcw:appcore.obj
 0001:00055d7f       ?ParseLast@CCommandLineInfo@@IAEXH@Z 00456d7f f   nafxcw:appcore.obj
 0001:00055dae       ??1CWinApp@@UAE@XZ         00456dae f   nafxcw:appcore.obj
 0001:00055ee4       ?SaveStdProfileSettings@CWinApp@@IAEXXZ 00456ee4 f   nafxcw:appcore.obj
 0001:00055f14       ?ExitInstance@CWinApp@@UAEHXZ 00456f14 f   nafxcw:appcore.obj
 0001:00055f4a       ?GetRuntimeClass@CWinApp@@UBEPAUCRuntimeClass@@XZ 00456f4a f   nafxcw:appcore.obj
 0001:00055f71       ??1?$CProcessLocal@V_AFX_CTL3D_STATE@@@@QAE@XZ 00456f71 f i nafxcw:appcore.obj
 0001:00055f71       ??1?$CProcessLocal@V_AFX_BASE_MODULE_STATE@@@@QAE@XZ 00456f71 f i nafxcw:appcore.obj
 0001:00055f71       ??1?$CProcessLocal@V_AFX_OLE_STATE@@@@QAE@XZ 00456f71 f i nafxcw:appcore.obj
 0001:00055f71       ??1?$CProcessLocal@V_AFX_WIN_STATE@@@@QAE@XZ 00456f71 f i nafxcw:appcore.obj
 0001:00055f76       ??_ECWinThread@@UAEPAXI@Z  00456f76 f i nafxcw:thrdcore.obj
 0001:00055f76       ??_GCWinThread@@UAEPAXI@Z  00456f76 f i nafxcw:thrdcore.obj
 0001:00055f92       ??0CWinThread@@QAE@XZ      00456f92 f   nafxcw:thrdcore.obj
 0001:00055fcf       ?CommonConstruct@CWinThread@@QAEXXZ 00456fcf f   nafxcw:thrdcore.obj
 0001:00056001       ?GetRuntimeClass@CWinThread@@UBEPAUCRuntimeClass@@XZ 00457001 f   nafxcw:thrdcore.obj
 0001:00056007       ?CreateObject@?$CThreadLocal@V_AFX_CTL3D_THREAD@@@@SGPAVCNoTrackObject@@XZ 00457007 f i nafxcw:thrdcore.obj
 0001:0005601c       ??_E_AFX_CTL3D_THREAD@@UAEPAXI@Z 0045701c f i nafxcw:thrdcore.obj
 0001:0005601c       ??_G_AFX_CTL3D_THREAD@@UAEPAXI@Z 0045701c f i nafxcw:thrdcore.obj
 0001:00056037       ?ProcessShellCommand@CWinApp@@QAEHAAVCCommandLineInfo@@@Z 00457037 f   nafxcw:appui2.obj
 0001:00056178       ?Unregister@CWinApp@@QAEHXZ 00457178 f   nafxcw:appui2.obj
 0001:000562a7       ?DelRegTree@CWinApp@@QAEJPAUHKEY__@@ABVCString@@@Z 004572a7 f   nafxcw:appui2.obj
 0001:000562b7       ?AfxDelRegTreeHelper@@YGJPAUHKEY__@@ABVCString@@@Z 004572b7 f   nafxcw:appui2.obj
 0001:00056389       ?UnregisterShellFileTypes@CWinApp@@IAEXXZ 00457389 f   nafxcw:appui2.obj
 0001:00056394       ?GetRuntimeClass@CSingleDocTemplate@@UBEPAUCRuntimeClass@@XZ 00457394 f   nafxcw:docsingl.obj
 0001:0005639a       ?Enable3dControlsStatic@CWinApp@@IAEHXZ 0045739a f   nafxcw:app3ds.obj
 0001:0005644b       ?CreateObject@CListView@@SGPAVCObject@@XZ 0045744b f   nafxcw:viewcmn.obj
 0001:00056493       ?GetRuntimeClass@CListView@@UBEPAUCRuntimeClass@@XZ 00457493 f   nafxcw:viewcmn.obj
 0001:00056499       ?CreateObject@CFrameWnd@@SGPAVCObject@@XZ 00457499 f   nafxcw:winfrm.obj
 0001:000564ce       ?GetRuntimeClass@CFrameWnd@@UBEPAUCRuntimeClass@@XZ 004574ce f   nafxcw:winfrm.obj
 0001:000564d4       ??0CControlBar@@IAE@XZ     004574d4 f   nafxcw:barcore.obj
 0001:00056520       ?SetBorders@CControlBar@@QAEXHHHH@Z 00457520 f   nafxcw:barcore.obj
 0001:0005653f       ?PreCreateWindow@CControlBar@@UAEHAAUtagCREATESTRUCTA@@@Z 0045753f f   nafxcw:barcore.obj
 0001:000565b2       ?SetBarStyle@CControlBar@@QAEXK@Z 004575b2 f   nafxcw:barcore.obj
 0001:000565e0       ?AllocElements@CControlBar@@QAEHHH@Z 004575e0 f   nafxcw:barcore.obj
 0001:00056619       ?AddHead@CSimpleList@@QAEXPAX@Z 00457619 f   nafxcw:afxtls.obj
 0001:0005662c       ?Remove@CSimpleList@@QAEHPAX@Z 0045762c f   nafxcw:afxtls.obj
 0001:00056672       ??2CNoTrackObject@@SGPAXI@Z 00457672 f   nafxcw:afxtls.obj
 0001:00056690       ??3CNoTrackObject@@SGXPAX@Z 00457690 f   nafxcw:afxtls.obj
 0001:000566a4       ??0CThreadSlotData@@QAE@XZ 004576a4 f   nafxcw:afxtls.obj
 0001:000566e6       ??1CThreadSlotData@@QAE@XZ 004576e6 f   nafxcw:afxtls.obj
 0001:0005673d       ?AllocSlot@CThreadSlotData@@QAEHXZ 0045773d f   nafxcw:afxtls.obj
 0001:0005684f       ?FreeSlot@CThreadSlotData@@QAEXH@Z 0045784f f   nafxcw:afxtls.obj
 0001:000568ac       ?SetValue@CThreadSlotData@@QAEXHPAX@Z 004578ac f   nafxcw:afxtls.obj
 0001:00056996       ??_GCThreadData@@UAEPAXI@Z 00457996 f i nafxcw:afxtls.obj
 0001:00056996       ??_ECThreadData@@UAEPAXI@Z 00457996 f i nafxcw:afxtls.obj
 0001:000569b1       ??1CThreadData@@UAE@XZ     004579b1 f i nafxcw:afxtls.obj
 0001:000569b2       ?DeleteValues@CThreadSlotData@@QAEXPAUCThreadData@@PAUHINSTANCE__@@@Z 004579b2 f   nafxcw:afxtls.obj
 0001:00056a4b       ?DeleteValues@CThreadSlotData@@QAEXPAUHINSTANCE__@@H@Z 00457a4b f   nafxcw:afxtls.obj
 0001:00056aa4       ?GetData@CThreadLocalObject@@QAEPAVCNoTrackObject@@P6GPAV2@XZ@Z 00457aa4 f   nafxcw:afxtls.obj
 0001:00056b1b       ??1CThreadLocalObject@@QAE@XZ 00457b1b f   nafxcw:afxtls.obj
 0001:00056b39       ?GetData@CProcessLocalObject@@QAEPAVCNoTrackObject@@P6GPAV2@XZ@Z 00457b39 f   nafxcw:afxtls.obj
 0001:00056b94       ??1CProcessLocalObject@@QAE@XZ 00457b94 f   nafxcw:afxtls.obj
 0001:00056bb9       ?AfxTermLocalData@@YGXPAUHINSTANCE__@@H@Z 00457bb9 f   nafxcw:afxtls.obj
 0001:00056bd3       ?AfxTlsRelease@@YGXXZ      00457bd3 f   nafxcw:afxtls.obj
 0001:00056bfb       ?GetRuntimeClass@CMapPtrToPtr@@UBEPAUCRuntimeClass@@XZ 00457bfb f   nafxcw:map_pp.obj
 0001:00056c01       ??1_AFX_CTL3D_STATE@@UAE@XZ 00457c01 f   nafxcw:app3d.obj
 0001:00056c42       ??1_AFX_CTL3D_THREAD@@UAE@XZ 00457c42 f   nafxcw:app3d.obj
 0001:00056c78       ?AfxGetCtl3dState@@YGPAV_AFX_CTL3D_STATE@@XZ 00457c78 f   nafxcw:app3d.obj
 0001:00056cf4       ?AfxEnableWin40Compatibility@@YGXXZ 00457cf4 f   nafxcw:auxdata.obj
 0001:00056d24       ?AfxEnableWin31Compatibility@@YGXXZ 00457d24 f   nafxcw:auxdata.obj
 0001:00056d46       ??0AUX_DATA@@QAE@XZ        00457d46 f   nafxcw:auxdata.obj
 0001:00056de1       ?_AfxInitDBCS@@YGHXZ       00457de1 f   nafxcw:afxdbcs.obj
 0001:00056e14       ?AfxCriticalInit@@YGHXZ    00457e14 f   nafxcw:afxcrit.obj
 0001:00056e59       ?AfxCriticalTerm@@YGXXZ    00457e59 f   nafxcw:afxcrit.obj
 0001:00056ea7       ?AfxLockGlobals@@YGXH@Z    00457ea7 f   nafxcw:afxcrit.obj
 0001:00056f17       ?AfxUnlockGlobals@@YGXH@Z  00457f17 f   nafxcw:afxcrit.obj
 0001:00056f38       ?GetRuntimeClass@CPtrList@@UBEPAUCRuntimeClass@@XZ 00457f38 f   nafxcw:list_p.obj
 0001:00056f3e       ?GetRuntimeClass@CMapStringToPtr@@UBEPAUCRuntimeClass@@XZ 00457f3e f   nafxcw:map_sp.obj
 0001:00056f44       ?GetRuntimeClass@CFileException@@UBEPAUCRuntimeClass@@XZ 00457f44 f   nafxcw:filex.obj
 0001:00056f4a       ?AfxWinInit@@YGHPAUHINSTANCE__@@0PADH@Z 00457f4a f   nafxcw:appinit.obj
 0001:00056fad       ?SetCurrentHandles@CWinApp@@QAEXXZ 00457fad f   nafxcw:appinit.obj
 0001:000570ca       ?AfxGetFileName@@YGIPBDPADI@Z 004580ca f   nafxcw:appinit.obj
 0001:00057120       ?GetRuntimeClass@CArchiveException@@UBEPAUCRuntimeClass@@XZ 00458120 f   nafxcw:arcex.obj
 0001:00057126       ?GetAppRegistryKey@CWinApp@@QAEPAUHKEY__@@XZ 00458126 f   nafxcw:appui3.obj
 0001:000571ba       ?GetSectionKey@CWinApp@@QAEPAUHKEY__@@PBD@Z 004581ba f   nafxcw:appui3.obj
 0001:00057200       ?_AfxDeleteRegKey@@YGHPBD@Z 00458200 f   nafxcw:docmgr.obj
 0001:00057296       ?_AfxSetRegKey@@YGHPBD00@Z 00458296 f   nafxcw:docmgr.obj
 0001:00057317       ??0CDocManager@@QAE@XZ     00458317 f   nafxcw:docmgr.obj
 0001:0005734b       ??_GCDocManager@@UAEPAXI@Z 0045834b f i nafxcw:docmgr.obj
 0001:0005734b       ??_ECDocManager@@UAEPAXI@Z 0045834b f i nafxcw:docmgr.obj
 0001:00057367       ?UnregisterShellFileTypes@CDocManager@@QAEXXZ 00458367 f   nafxcw:docmgr.obj
 0001:000575ce       ?RegisterShellFileTypes@CDocManager@@UAEXH@Z 004585ce f   nafxcw:docmgr.obj
 0001:00057a0b       ?GetRuntimeClass@CDocManager@@UBEPAUCRuntimeClass@@XZ 00458a0b f   nafxcw:docmgr.obj
 0001:00057a11       ?GetRuntimeClass@CMemFile@@UBEPAUCRuntimeClass@@XZ 00458a11 f   nafxcw:filemem.obj
 0001:00057a17       ?GetRuntimeClass@COleDispatchException@@UBEPAUCRuntimeClass@@XZ 00458a17 f   nafxcw:oledisp1.obj
 0001:00057a2c       ??0OLE_DATA@@QAE@XZ        00458a2c f   nafxcw:oleinit.obj
 0001:00057ab2       ?AfxOleInit@@YGHXZ         00458ab2 f   nafxcw:oleinit.obj
 0001:00057b4f       ?AfxOleTerm@@YGXH@Z        00458b4f f   nafxcw:oleinit.obj
 0001:00057baa       ?AfxOleTermOrFreeLib@@YGXHH@Z 00458baa f   nafxcw:oleinit.obj
 0001:00057bf9       ?AfxBSTR2CString@@YGXPAVCString@@PAG@Z 00458bf9 f   nafxcw:olecnvrt.obj
 0001:00057c3e       ?AfxBSTR2ABSTR@@YGPAGPAG@Z 00458c3e f   nafxcw:olecnvrt.obj
 0001:00057c8b       ?GetRuntimeClass@COleException@@UBEPAUCRuntimeClass@@XZ 00458c8b f   nafxcw:olemisc.obj
 0001:00057c91       ??0COleMessageFilter@@QAE@XZ 00458c91 f   nafxcw:olemsgf.obj
 0001:00057cd3       ??_ECOleMessageFilter@@UAEPAXI@Z 00458cd3 f i nafxcw:olemsgf.obj
 0001:00057cd3       ??_GCOleMessageFilter@@UAEPAXI@Z 00458cd3 f i nafxcw:olemsgf.obj
 0001:00057cef       ?Register@COleMessageFilter@@QAEHXZ 00458cef f   nafxcw:olemsgf.obj
 0001:00057d0e       ?GetRuntimeClass@COleBusyDialog@@UBEPAUCRuntimeClass@@XZ 00458d0e f   nafxcw:oledlgs2.obj
 0001:00057d14       ??0_AFX_OLE_STATE@@QAE@XZ  00458d14 f   nafxcw:oledata.obj
 0001:00057d1d       ??_G_AFX_OLE_STATE@@UAEPAXI@Z 00458d1d f i nafxcw:oledata.obj
 0001:00057d1d       ??_E_AFX_OLE_STATE@@UAEPAXI@Z 00458d1d f i nafxcw:oledata.obj
 0001:00057d38       ??1_AFX_OLE_STATE@@UAE@XZ  00458d38 f   nafxcw:oledata.obj
 0001:00057d60       ?GetRuntimeClass@CUIntArray@@UBEPAUCRuntimeClass@@XZ 00458d60 f   nafxcw:array_u.obj
 0001:00057d66       ?CreateObject@CStringArray@@SGPAVCObject@@XZ 00458d66 f   nafxcw:array_s.obj
 0001:00057d7d       ?GetRuntimeClass@CStringArray@@UBEPAUCRuntimeClass@@XZ 00458d7d f   nafxcw:array_s.obj
 0001:00057d93       ?_AfxRelease@@YGKPAPAUIUnknown@@@Z 00458d93 f   nafxcw:oleunk.obj
 0001:00057daf       ?ExternalAddRef@CCmdTarget@@QAEKXZ 00458daf f   nafxcw:oleunk.obj
 0001:00057dc8       ?InternalRelease@CCmdTarget@@QAEKXZ 00458dc8 f   nafxcw:oleunk.obj
 0001:00057df2       ?ExternalRelease@CCmdTarget@@QAEKXZ 00458df2 f   nafxcw:oleunk.obj
 0001:00057e05       ?GetInterface@CCmdTarget@@QAEPAUIUnknown@@PBX@Z 00458e05 f   nafxcw:oleunk.obj
 0001:00057eb3       ?QueryAggregates@CCmdTarget@@QAEPAUIUnknown@@PBX@Z 00458eb3 f   nafxcw:oleunk.obj
 0001:00057f13       ?InternalQueryInterface@CCmdTarget@@QAEKPBXPAPAX@Z 00458f13 f   nafxcw:oleunk.obj
 0001:00057f55       ?ExternalQueryInterface@CCmdTarget@@QAEKPBXPAPAX@Z 00458f55 f   nafxcw:oleunk.obj
 0001:00057f7b       ?AfxThrowOleException@@YGXJ@Z 00458f7b f   nafxcw:olemisc.obj
 0001:00057fcd       ?GetErrorMessage@COleException@@UAEHPADIPAI@Z 00458fcd f   nafxcw:olemisc.obj
 0001:00058023       ?AfxOleHookProc@@YGIPAUHWND__@@IIJ@Z 00459023 f   nafxcw:oledlgs2.obj
 0001:0005806e       ??0COleDialog@@QAE@PAVCWnd@@@Z 0045906e f   nafxcw:oledlgs2.obj
 0001:00058086       ?MapResult@COleDialog@@QAEHI@Z 00459086 f   nafxcw:oledlgs2.obj
 0001:000580a4       ??0COleBusyDialog@@QAE@PAUHTASK__@@HKPAVCWnd@@@Z 004590a4 f   nafxcw:oledlgs2.obj
 0001:000580f8       ??_GCOleBusyDialog@@UAEPAXI@Z 004590f8 f i nafxcw:oledlgs2.obj
 0001:000580f8       ??_ECOleBusyDialog@@UAEPAXI@Z 004590f8 f i nafxcw:oledlgs2.obj
 0001:00058114       ??1COleBusyDialog@@UAE@XZ  00459114 f   nafxcw:oledlgs2.obj
 0001:0005811f       ?DoModal@COleBusyDialog@@UAEHXZ 0045911f f   nafxcw:oledlgs2.obj
 0001:000581af       ??0CEnumArray@@QAE@IPBXIH@Z 004591af f   nafxcw:oleenum.obj
 0001:000581ee       ??_GCEnumArray@@UAEPAXI@Z  004591ee f i nafxcw:oleenum.obj
 0001:000581ee       ??_ECEnumArray@@UAEPAXI@Z  004591ee f i nafxcw:oleenum.obj
 0001:0005820a       ??1CEnumArray@@UAE@XZ      0045920a f   nafxcw:oleenum.obj
 0001:00058258       ?OnNext@CEnumArray@@MAEHPAX@Z 00459258 f   nafxcw:oleenum.obj
 0001:00058288       ?OnSkip@CEnumArray@@MAEHXZ 00459288 f   nafxcw:oleenum.obj
 0001:000582a0       ?OnReset@CEnumArray@@MAEXXZ 004592a0 f   nafxcw:oleenum.obj
 0001:000582a5       ?OnClone@CEnumArray@@MAEPAV1@XZ 004592a5 f   nafxcw:oleenum.obj
 0001:000582eb       ?AddRef@XEnumVOID@CEnumArray@@UAGKXZ 004592eb f   nafxcw:oleenum.obj
 0001:000582fa       ?Release@XEnumVOID@CEnumArray@@UAGKXZ 004592fa f   nafxcw:oleenum.obj
 0001:00058309       ?QueryInterface@XEnumVOID@CEnumArray@@UAGJABU_GUID@@PAPAX@Z 00459309 f   nafxcw:oleenum.obj
 0001:00058320       ?Next@XEnumVOID@CEnumArray@@UAGJKPAXPAK@Z 00459320 f   nafxcw:oleenum.obj
 0001:000583a8       ?Skip@XEnumVOID@CEnumArray@@UAGJK@Z 004593a8 f   nafxcw:oleenum.obj
 0001:00058406       ?Reset@XEnumVOID@CEnumArray@@UAGJXZ 00459406 f   nafxcw:oleenum.obj
 0001:00058418       ?Clone@XEnumVOID@CEnumArray@@UAGJPAPAUIEnumVOID@@@Z 00459418 f   nafxcw:oleenum.obj
 0001:00058490       ?FlushClipboard@COleDataSource@@SGXXZ 00459490 f   nafxcw:oledobj2.obj
 0001:000584a0       ?GetClipboardOwner@COleDataSource@@SGPAV1@XZ 004594a0 f   nafxcw:oledobj2.obj
 0001:000584db       ?CreateObject@?$CProcessLocal@V_AFX_OLE_STATE@@@@SGPAVCNoTrackObject@@XZ 004594db f i nafxcw:oledobj2.obj
 0001:0005850c       ?BeginBusyState@COleMessageFilter@@UAEXXZ 0045950c f   nafxcw:olemsgf.obj
 0001:00058510       ?EndBusyState@COleMessageFilter@@UAEXXZ 00459510 f   nafxcw:olemsgf.obj
 0001:0005851c       ?OnMessagePending@COleMessageFilter@@UAEHPBUtagMSG@@@Z 0045951c f   nafxcw:olemsgf.obj
 0001:00058564       ?IsSignificantMessage@COleMessageFilter@@UAEHPAUtagMSG@@@Z 00459564 f   nafxcw:olemsgf.obj
 0001:000585ba       ?OnBusyDialog@COleMessageFilter@@UAEHPAUHTASK__@@@Z 004595ba f   nafxcw:olemsgf.obj
 0001:00058635       ?OnNotRespondingDialog@COleMessageFilter@@UAEHPAUHTASK__@@@Z 00459635 f   nafxcw:olemsgf.obj
 0001:000586b1       ?GetInterfaceMap@COleMessageFilter@@MBEPBUAFX_INTERFACEMAP@@XZ 004596b1 f   nafxcw:olemsgf.obj
 0001:000586b7       ?AddRef@XMessageFilter@COleMessageFilter@@UAGKXZ 004596b7 f   nafxcw:olemsgf.obj
 0001:000586c6       ?Release@XMessageFilter@COleMessageFilter@@UAGKXZ 004596c6 f   nafxcw:olemsgf.obj
 0001:000586d5       ?QueryInterface@XMessageFilter@COleMessageFilter@@UAGJABU_GUID@@PAPAX@Z 004596d5 f   nafxcw:olemsgf.obj
 0001:000586ec       ?HandleInComingCall@XMessageFilter@COleMessageFilter@@UAGKKPAUHTASK__@@KPAUtagINTERFACEINFO@@@Z 004596ec f   nafxcw:olemsgf.obj
 0001:0005874e       ?RetryRejectedCall@XMessageFilter@COleMessageFilter@@UAGKPAUHTASK__@@KK@Z 0045974e f   nafxcw:olemsgf.obj
 0001:00058791       ?MessagePending@XMessageFilter@COleMessageFilter@@UAGKPAUHTASK__@@KK@Z 00459791 f   nafxcw:olemsgf.obj
 0001:00058866       ?AllocSysString@CString@@QBEPAGXZ 00459866 f   nafxcw:oledisp1.obj
 0001:000588af       ?GetStackSize@CCmdTarget@@KGIPBEG@Z 004598af f   nafxcw:oledisp1.obj
 0001:000588f2       ?PushStackArgs@CCmdTarget@@IAEJPAEPBEPAXGPAUtagDISPPARAMS@@PAIPAUtagVARIANT@@@Z 004598f2 f   nafxcw:oledisp1.obj
 0001:00058b71       ?CallMemberFunc@CCmdTarget@@IAEJPBUAFX_DISPMAP_ENTRY@@GPAUtagVARIANT@@PAUtagDISPPARAMS@@PAI@Z 00459b71 f   nafxcw:oledisp1.obj
 0001:00058e19       ??1COleDispatchException@@UAE@XZ 00459e19 f   nafxcw:oledisp1.obj
 0001:00058e64       ??_GCOleDispatchException@@UAEPAXI@Z 00459e64 f i nafxcw:oledisp1.obj
 0001:00058e64       ??_ECOleDispatchException@@UAEPAXI@Z 00459e64 f i nafxcw:oledisp1.obj
 0001:00058e80       ?Process@COleDispatchException@@SGXPAUtagEXCEPINFO@@PBVCException@@@Z 00459e80 f   nafxcw:oledisp1.obj
 0001:000590bc       ??0COleDispatchException@@QAE@PBDIG@Z 0045a0bc f   nafxcw:oledisp1.obj
 0001:0005914a       ?GetErrorMessage@COleDispatchException@@UAEHPADIPAI@Z 0045a14a f   nafxcw:oledisp1.obj
 0001:0005916c       ??0COleDispatchDriver@@QAE@XZ 0045a16c f   nafxcw:oledisp2.obj
 0001:00059179       ?AttachDispatch@COleDispatchDriver@@QAEXPAUIDispatch@@H@Z 0045a179 f   nafxcw:oledisp2.obj
 0001:00059192       ?ReleaseDispatch@COleDispatchDriver@@QAEXXZ 0045a192 f   nafxcw:oledisp2.obj
 0001:000591ac       ?InvokeHelperV@COleDispatchDriver@@QAEXJGGPAXPBEPAD@Z 0045a1ac f   nafxcw:oledisp2.obj
 0001:000596d3       __AfxDispatchCall@12       0045a6d3 f   nafxcw:olecall.obj
 0001:000596e4       ??1_AFX_WIN_STATE@@UAE@XZ  0045a6e4 f   nafxcw:appcore.obj
 0001:00059711       ?AfxPostQuitMessage@@YGXH@Z 0045a711 f   nafxcw:appcore.obj
 0001:00059734       ??1CWinThread@@UAE@XZ      0045a734 f   nafxcw:thrdcore.obj
 0001:00059783       ??1AUX_DATA@@QAE@XZ        0045a783 f   nafxcw:auxdata.obj
 0001:0005978d       ??1CDocManager@@UAE@XZ     0045a78d f   nafxcw:docmgr.obj
 0001:000597f8       ??1COleMessageFilter@@UAE@XZ 0045a7f8 f   nafxcw:olemsgf.obj
 0001:00059830       ?Revoke@COleMessageFilter@@QAEXXZ 0045a830 f   nafxcw:olemsgf.obj
 0001:00059849       ?Revoke@COleObjectFactory@@QAEXXZ 0045a849 f   nafxcw:olefact.obj
 0001:0005986a       ?RevokeAll@COleObjectFactory@@SGXXZ 0045a86a f   nafxcw:olefact.obj
 0001:00059895       ?AfxWinTerm@@YGXXZ         0045a895 f   nafxcw:appterm.obj
 0002:00000000       __imp__RegQueryValueExA@24 0045f000     advapi32:ADVAPI32.dll
 0002:00000004       __imp__RegCloseKey@4       0045f004     advapi32:ADVAPI32.dll
 0002:00000008       __imp__RegCreateKeyA@12    0045f008     advapi32:ADVAPI32.dll
 0002:0000000c       __imp__RegDeleteValueA@8   0045f00c     advapi32:ADVAPI32.dll
 0002:00000010       __imp__RegSetValueExA@24   0045f010     advapi32:ADVAPI32.dll
 0002:00000014       __imp__RegCreateKeyExA@36  0045f014     advapi32:ADVAPI32.dll
 0002:00000018       __imp__GetFileSecurityA@20 0045f018     advapi32:ADVAPI32.dll
 0002:0000001c       __imp__SetFileSecurityA@12 0045f01c     advapi32:ADVAPI32.dll
 0002:00000020       __imp__RegDeleteKeyA@8     0045f020     advapi32:ADVAPI32.dll
 0002:00000024       __imp__RegOpenKeyA@12      0045f024     advapi32:ADVAPI32.dll
 0002:00000028       __imp__RegOpenKeyExA@20    0045f028     advapi32:ADVAPI32.dll
 0002:0000002c       __imp__RegQueryValueA@16   0045f02c     advapi32:ADVAPI32.dll
 0002:00000030       __imp__RegEnumKeyA@16      0045f030     advapi32:ADVAPI32.dll
 0002:00000034       __imp__RegSetValueA@20     0045f034     advapi32:ADVAPI32.dll
 0002:00000038       \177ADVAPI32_NULL_THUNK_DATA 0045f038     advapi32:ADVAPI32.dll
 0002:0000003c       __imp__AVIStreamRelease@4  0045f03c     vfw32:AVIFIL32.dll
 0002:00000040       __imp__AVIFileRelease@4    0045f040     vfw32:AVIFIL32.dll
 0002:00000044       __imp__AVIStreamWrite@32   0045f044     vfw32:AVIFIL32.dll
 0002:00000048       __imp__AVIFileInit@0       0045f048     vfw32:AVIFIL32.dll
 0002:0000004c       __imp__AVIFileOpenA@16     0045f04c     vfw32:AVIFIL32.dll
 0002:00000050       __imp__AVIFileCreateStreamA@12 0045f050     vfw32:AVIFIL32.dll
 0002:00000054       __imp__AVIStreamSetFormat@16 0045f054     vfw32:AVIFIL32.dll
 0002:00000058       __imp__AVIFileExit@0       0045f058     vfw32:AVIFIL32.dll
 0002:0000005c       \177AVIFIL32_NULL_THUNK_DATA 0045f05c     vfw32:AVIFIL32.dll
 0002:00000060       __imp___TrackMouseEvent@4  0045f060     comctl32:COMCTL32.dll
 0002:00000064       __imp__ImageList_AddMasked@12 0045f064     comctl32:COMCTL32.dll
 0002:00000068       __imp__InitCommonControls@0 0045f068     comctl32:COMCTL32.dll
 0002:0000006c       __imp__ImageList_Destroy@4 0045f06c     comctl32:COMCTL32.dll
 0002:00000070       __imp__ImageList_Create@20 0045f070     comctl32:COMCTL32.dll
 0002:00000074       \177COMCTL32_NULL_THUNK_DATA 0045f074     comctl32:COMCTL32.dll
 0002:00000078       __imp__GetTextExtentPointA@16 0045f078     gdi32:GDI32.dll
 0002:0000007c       __imp__GetBkColor@4        0045f07c     gdi32:GDI32.dll
 0002:00000080       __imp__GetTextColor@4      0045f080     gdi32:GDI32.dll
 0002:00000084       __imp__CreateFontA@56      0045f084     gdi32:GDI32.dll
 0002:00000088       __imp__GetCharWidthA@16    0045f088     gdi32:GDI32.dll
 0002:0000008c       __imp__GetTextMetricsA@8   0045f08c     gdi32:GDI32.dll
 0002:00000090       __imp__GetTextExtentPoint32A@16 0045f090     gdi32:GDI32.dll
 0002:00000094       __imp__LPtoDP@12           0045f094     gdi32:GDI32.dll
 0002:00000098       __imp__DPtoLP@12           0045f098     gdi32:GDI32.dll
 0002:0000009c       __imp__CreateRectRgnIndirect@4 0045f09c     gdi32:GDI32.dll
 0002:000000a0       __imp__CombineRgn@16       0045f0a0     gdi32:GDI32.dll
 0002:000000a4       __imp__SetRectRgn@20       0045f0a4     gdi32:GDI32.dll
 0002:000000a8       __imp__PatBlt@24           0045f0a8     gdi32:GDI32.dll
 0002:000000ac       __imp__GetMapMode@4        0045f0ac     gdi32:GDI32.dll
 0002:000000b0       __imp__Escape@20           0045f0b0     gdi32:GDI32.dll
 0002:000000b4       __imp__RectVisible@8       0045f0b4     gdi32:GDI32.dll
 0002:000000b8       __imp__PtVisible@12        0045f0b8     gdi32:GDI32.dll
 0002:000000bc       __imp__CreatePatternBrush@4 0045f0bc     gdi32:GDI32.dll
 0002:000000c0       __imp__GetWindowExtEx@8    0045f0c0     gdi32:GDI32.dll
 0002:000000c4       __imp__GetViewportExtEx@8  0045f0c4     gdi32:GDI32.dll
 0002:000000c8       __imp__GetDeviceCaps@8     0045f0c8     gdi32:GDI32.dll
 0002:000000cc       __imp__CreateRectRgn@16    0045f0cc     gdi32:GDI32.dll
 0002:000000d0       __imp__LineTo@12           0045f0d0     gdi32:GDI32.dll
 0002:000000d4       __imp__MoveToEx@16         0045f0d4     gdi32:GDI32.dll
 0002:000000d8       __imp__IntersectClipRect@20 0045f0d8     gdi32:GDI32.dll
 0002:000000dc       __imp__ExcludeClipRect@20  0045f0dc     gdi32:GDI32.dll
 0002:000000e0       __imp__SelectClipRgn@8     0045f0e0     gdi32:GDI32.dll
 0002:000000e4       __imp__ScaleWindowExtEx@24 0045f0e4     gdi32:GDI32.dll
 0002:000000e8       __imp__SetWindowExtEx@16   0045f0e8     gdi32:GDI32.dll
 0002:000000ec       __imp__ScaleViewportExtEx@24 0045f0ec     gdi32:GDI32.dll
 0002:000000f0       __imp__SetViewportExtEx@16 0045f0f0     gdi32:GDI32.dll
 0002:000000f4       __imp__OffsetViewportOrgEx@16 0045f0f4     gdi32:GDI32.dll
 0002:000000f8       __imp__SetViewportOrgEx@16 0045f0f8     gdi32:GDI32.dll
 0002:000000fc       __imp__SetMapMode@8        0045f0fc     gdi32:GDI32.dll
 0002:00000100       __imp__RestoreDC@8         0045f100     gdi32:GDI32.dll
 0002:00000104       __imp__SaveDC@4            0045f104     gdi32:GDI32.dll
 0002:00000108       __imp__GetClipBox@8        0045f108     gdi32:GDI32.dll
 0002:0000010c       __imp__CreatePen@12        0045f10c     gdi32:GDI32.dll
 0002:00000110       __imp__RoundRect@28        0045f110     gdi32:GDI32.dll
 0002:00000114       __imp__SetBkMode@8         0045f114     gdi32:GDI32.dll
 0002:00000118       __imp__TextOutA@20         0045f118     gdi32:GDI32.dll
 0002:0000011c       __imp__CreateSolidBrush@4  0045f11c     gdi32:GDI32.dll
 0002:00000120       __imp__ExtTextOutA@32      0045f120     gdi32:GDI32.dll
 0002:00000124       __imp__StretchDIBits@52    0045f124     gdi32:GDI32.dll
 0002:00000128       __imp__CreateDIBSection@24 0045f128     gdi32:GDI32.dll
 0002:0000012c       __imp__StretchBlt@44       0045f12c     gdi32:GDI32.dll
 0002:00000130       __imp__PtInRegion@12       0045f130     gdi32:GDI32.dll
 0002:00000134       __imp__CreateFontIndirectA@4 0045f134     gdi32:GDI32.dll
 0002:00000138       __imp__Rectangle@20        0045f138     gdi32:GDI32.dll
 0002:0000013c       __imp__PlgBlt@40           0045f13c     gdi32:GDI32.dll
 0002:00000140       __imp__FillRgn@12          0045f140     gdi32:GDI32.dll
 0002:00000144       __imp__CreatePolygonRgn@12 0045f144     gdi32:GDI32.dll
 0002:00000148       __imp__GetObjectA@12       0045f148     gdi32:GDI32.dll
 0002:0000014c       __imp__GetPixel@12         0045f14c     gdi32:GDI32.dll
 0002:00000150       __imp__CreateBitmap@20     0045f150     gdi32:GDI32.dll
 0002:00000154       __imp__SelectObject@8      0045f154     gdi32:GDI32.dll
 0002:00000158       __imp__SetBkColor@8        0045f158     gdi32:GDI32.dll
 0002:0000015c       __imp__SetTextColor@8      0045f15c     gdi32:GDI32.dll
 0002:00000160       __imp__DeleteDC@4          0045f160     gdi32:GDI32.dll
 0002:00000164       __imp__BitBlt@36           0045f164     gdi32:GDI32.dll
 0002:00000168       __imp__CreateCompatibleDC@4 0045f168     gdi32:GDI32.dll
 0002:0000016c       __imp__CreateCompatibleBitmap@12 0045f16c     gdi32:GDI32.dll
 0002:00000170       __imp__GetStockObject@4    0045f170     gdi32:GDI32.dll
 0002:00000174       __imp__DeleteObject@4      0045f174     gdi32:GDI32.dll
 0002:00000178       __imp__CreateDIBitmap@24   0045f178     gdi32:GDI32.dll
 0002:0000017c       \177GDI32_NULL_THUNK_DATA  0045f17c     gdi32:GDI32.dll
 0002:00000180       __imp__SetErrorMode@4      0045f180     kernel32:KERNEL32.dll
 0002:00000184       __imp__GetCurrentDirectoryA@8 0045f184     kernel32:KERNEL32.dll
 0002:00000188       __imp__GetProfileStringA@20 0045f188     kernel32:KERNEL32.dll
 0002:0000018c       __imp__RtlUnwind@16        0045f18c     kernel32:KERNEL32.dll
 0002:00000190       __imp__RaiseException@16   0045f190     kernel32:KERNEL32.dll
 0002:00000194       __imp__GetStartupInfoA@4   0045f194     kernel32:KERNEL32.dll
 0002:00000198       __imp__GetCommandLineA@0   0045f198     kernel32:KERNEL32.dll
 0002:0000019c       __imp__ExitProcess@4       0045f19c     kernel32:KERNEL32.dll
 0002:000001a0       __imp__HeapAlloc@12        0045f1a0     kernel32:KERNEL32.dll
 0002:000001a4       __imp__HeapFree@12         0045f1a4     kernel32:KERNEL32.dll
 0002:000001a8       __imp__GetTimeZoneInformation@4 0045f1a8     kernel32:KERNEL32.dll
 0002:000001ac       __imp__GetSystemTime@4     0045f1ac     kernel32:KERNEL32.dll
 0002:000001b0       __imp__GetLocalTime@4      0045f1b0     kernel32:KERNEL32.dll
 0002:000001b4       __imp__GetACP@0            0045f1b4     kernel32:KERNEL32.dll
 0002:000001b8       __imp__TerminateProcess@8  0045f1b8     kernel32:KERNEL32.dll
 0002:000001bc       __imp__ExitThread@4        0045f1bc     kernel32:KERNEL32.dll
 0002:000001c0       __imp__HeapReAlloc@16      0045f1c0     kernel32:KERNEL32.dll
 0002:000001c4       __imp__HeapSize@12         0045f1c4     kernel32:KERNEL32.dll
 0002:000001c8       __imp__UnhandledExceptionFilter@4 0045f1c8     kernel32:KERNEL32.dll
 0002:000001cc       __imp__FreeEnvironmentStringsA@4 0045f1cc     kernel32:KERNEL32.dll
 0002:000001d0       __imp__FreeEnvironmentStringsW@4 0045f1d0     kernel32:KERNEL32.dll
 0002:000001d4       __imp__GetEnvironmentStrings@0 0045f1d4     kernel32:KERNEL32.dll
 0002:000001d8       __imp__GetEnvironmentStringsW@0 0045f1d8     kernel32:KERNEL32.dll
 0002:000001dc       __imp__SetHandleCount@4    0045f1dc     kernel32:KERNEL32.dll
 0002:000001e0       __imp__GetStdHandle@4      0045f1e0     kernel32:KERNEL32.dll
 0002:000001e4       __imp__GetFileType@4       0045f1e4     kernel32:KERNEL32.dll
 0002:000001e8       __imp__GetEnvironmentVariableA@12 0045f1e8     kernel32:KERNEL32.dll
 0002:000001ec       __imp__HeapDestroy@4       0045f1ec     kernel32:KERNEL32.dll
 0002:000001f0       __imp__HeapCreate@12       0045f1f0     kernel32:KERNEL32.dll
 0002:000001f4       __imp__IsBadWritePtr@8     0045f1f4     kernel32:KERNEL32.dll
 0002:000001f8       __imp__LCMapStringA@24     0045f1f8     kernel32:KERNEL32.dll
 0002:000001fc       __imp__SetEnvironmentVariableA@8 0045f1fc     kernel32:KERNEL32.dll
 0002:00000200       __imp__CompareStringW@24   0045f200     kernel32:KERNEL32.dll
 0002:00000204       __imp__CompareStringA@24   0045f204     kernel32:KERNEL32.dll
 0002:00000208       __imp__SetStdHandle@8      0045f208     kernel32:KERNEL32.dll
 0002:0000020c       __imp__CreateEventA@16     0045f20c     kernel32:KERNEL32.dll
 0002:00000210       __imp__CloseHandle@4       0045f210     kernel32:KERNEL32.dll
 0002:00000214       __imp__TerminateThread@8   0045f214     kernel32:KERNEL32.dll
 0002:00000218       __imp__WaitForSingleObject@8 0045f218     kernel32:KERNEL32.dll
 0002:0000021c       __imp__SetEvent@4          0045f21c     kernel32:KERNEL32.dll
 0002:00000220       __imp__ResumeThread@4      0045f220     kernel32:KERNEL32.dll
 0002:00000224       __imp__CreateThread@24     0045f224     kernel32:KERNEL32.dll
 0002:00000228       __imp__Sleep@4             0045f228     kernel32:KERNEL32.dll
 0002:0000022c       __imp__VirtualFree@12      0045f22c     kernel32:KERNEL32.dll
 0002:00000230       __imp__VirtualAlloc@16     0045f230     kernel32:KERNEL32.dll
 0002:00000234       __imp__EndUpdateResourceA@8 0045f234     kernel32:KERNEL32.dll
 0002:00000238       __imp__UpdateResourceA@24  0045f238     kernel32:KERNEL32.dll
 0002:0000023c       __imp__BeginUpdateResourceA@8 0045f23c     kernel32:KERNEL32.dll
 0002:00000240       __imp__ReadFile@20         0045f240     kernel32:KERNEL32.dll
 0002:00000244       __imp__GetFileSize@8       0045f244     kernel32:KERNEL32.dll
 0002:00000248       __imp__DeleteFileA@4       0045f248     kernel32:KERNEL32.dll
 0002:0000024c       __imp__CreateFileA@28      0045f24c     kernel32:KERNEL32.dll
 0002:00000250       __imp__CopyFileA@12        0045f250     kernel32:KERNEL32.dll
 0002:00000254       __imp__GetModuleFileNameA@12 0045f254     kernel32:KERNEL32.dll
 0002:00000258       __imp__LCMapStringW@24     0045f258     kernel32:KERNEL32.dll
 0002:0000025c       __imp__GetStringTypeA@20   0045f25c     kernel32:KERNEL32.dll
 0002:00000260       __imp__GetStringTypeW@16   0045f260     kernel32:KERNEL32.dll
 0002:00000264       __imp__GetDriveTypeA@4     0045f264     kernel32:KERNEL32.dll
 0002:00000268       __imp__IsBadReadPtr@8      0045f268     kernel32:KERNEL32.dll
 0002:0000026c       __imp__IsBadCodePtr@4      0045f26c     kernel32:KERNEL32.dll
 0002:00000270       __imp__GetTickCount@0      0045f270     kernel32:KERNEL32.dll
 0002:00000274       __imp__GetFileAttributesA@4 0045f274     kernel32:KERNEL32.dll
 0002:00000278       __imp__GetDiskFreeSpaceExA@16 0045f278     kernel32:KERNEL32.dll
 0002:0000027c       __imp__GetVolumeInformationA@32 0045f27c     kernel32:KERNEL32.dll
 0002:00000280       __imp__lstrlenA@4          0045f280     kernel32:KERNEL32.dll
 0002:00000284       __imp__GetLogicalDriveStringsA@8 0045f284     kernel32:KERNEL32.dll
 0002:00000288       __imp__LocalFree@4         0045f288     kernel32:KERNEL32.dll
 0002:0000028c       __imp__LocalAlloc@8        0045f28c     kernel32:KERNEL32.dll
 0002:00000290       __imp__lstrcpynA@12        0045f290     kernel32:KERNEL32.dll
 0002:00000294       __imp__FindClose@4         0045f294     kernel32:KERNEL32.dll
 0002:00000298       __imp__FindNextFileA@8     0045f298     kernel32:KERNEL32.dll
 0002:0000029c       __imp__FindFirstFileA@8    0045f29c     kernel32:KERNEL32.dll
 0002:000002a0       __imp__WriteFile@20        0045f2a0     kernel32:KERNEL32.dll
 0002:000002a4       __imp__SetFilePointer@16   0045f2a4     kernel32:KERNEL32.dll
 0002:000002a8       __imp__RemoveDirectoryA@4  0045f2a8     kernel32:KERNEL32.dll
 0002:000002ac       __imp__MoveFileA@8         0045f2ac     kernel32:KERNEL32.dll
 0002:000002b0       __imp__GetLastError@0      0045f2b0     kernel32:KERNEL32.dll
 0002:000002b4       __imp__CreateDirectoryA@8  0045f2b4     kernel32:KERNEL32.dll
 0002:000002b8       __imp__lstrcpyA@8          0045f2b8     kernel32:KERNEL32.dll
 0002:000002bc       __imp__GetProcAddress@8    0045f2bc     kernel32:KERNEL32.dll
 0002:000002c0       __imp__LoadLibraryA@4      0045f2c0     kernel32:KERNEL32.dll
 0002:000002c4       __imp__SetUnhandledExceptionFilter@4 0045f2c4     kernel32:KERNEL32.dll
 0002:000002c8       __imp__GetPrivateProfileStringA@24 0045f2c8     kernel32:KERNEL32.dll
 0002:000002cc       __imp__GetPrivateProfileIntA@16 0045f2cc     kernel32:KERNEL32.dll
 0002:000002d0       __imp__WritePrivateProfileStringA@16 0045f2d0     kernel32:KERNEL32.dll
 0002:000002d4       __imp__InitializeCriticalSection@4 0045f2d4     kernel32:KERNEL32.dll
 0002:000002d8       __imp__LeaveCriticalSection@4 0045f2d8     kernel32:KERNEL32.dll
 0002:000002dc       __imp__PostQueuedCompletionStatus@16 0045f2dc     kernel32:KERNEL32.dll
 0002:000002e0       __imp__EnterCriticalSection@4 0045f2e0     kernel32:KERNEL32.dll
 0002:000002e4       __imp__GetSystemInfo@4     0045f2e4     kernel32:KERNEL32.dll
 0002:000002e8       __imp__CreateIoCompletionPort@16 0045f2e8     kernel32:KERNEL32.dll
 0002:000002ec       __imp__GetQueuedCompletionStatus@20 0045f2ec     kernel32:KERNEL32.dll
 0002:000002f0       __imp__InterlockedDecrement@4 0045f2f0     kernel32:KERNEL32.dll
 0002:000002f4       __imp__InterlockedIncrement@4 0045f2f4     kernel32:KERNEL32.dll
 0002:000002f8       __imp__InterlockedExchange@8 0045f2f8     kernel32:KERNEL32.dll
 0002:000002fc       __imp__CancelIo@4          0045f2fc     kernel32:KERNEL32.dll
 0002:00000300       __imp__DeleteCriticalSection@4 0045f300     kernel32:KERNEL32.dll
 0002:00000304       __imp__lstrcatA@8          0045f304     kernel32:KERNEL32.dll
 0002:00000308       __imp__GetSystemDirectoryA@8 0045f308     kernel32:KERNEL32.dll
 0002:0000030c       __imp__GlobalFree@4        0045f30c     kernel32:KERNEL32.dll
 0002:00000310       __imp__GlobalUnlock@4      0045f310     kernel32:KERNEL32.dll
 0002:00000314       __imp__GlobalLock@4        0045f314     kernel32:KERNEL32.dll
 0002:00000318       __imp__GlobalAlloc@8       0045f318     kernel32:KERNEL32.dll
 0002:0000031c       __imp__GlobalSize@4        0045f31c     kernel32:KERNEL32.dll
 0002:00000320       __imp__LocalSize@4         0045f320     kernel32:KERNEL32.dll
 0002:00000324       __imp__FreeLibrary@4       0045f324     kernel32:KERNEL32.dll
 0002:00000328       __imp__GetVersionExA@4     0045f328     kernel32:KERNEL32.dll
 0002:0000032c       __imp__GetVersion@0        0045f32c     kernel32:KERNEL32.dll
 0002:00000330       __imp__LoadResource@8      0045f330     kernel32:KERNEL32.dll
 0002:00000334       __imp__FindResourceA@12    0045f334     kernel32:KERNEL32.dll
 0002:00000338       __imp__LockResource@4      0045f338     kernel32:KERNEL32.dll
 0002:0000033c       __imp__GetModuleHandleA@4  0045f33c     kernel32:KERNEL32.dll
 0002:00000340       __imp__GlobalDeleteAtom@4  0045f340     kernel32:KERNEL32.dll
 0002:00000344       __imp__GlobalFindAtomA@4   0045f344     kernel32:KERNEL32.dll
 0002:00000348       __imp__GlobalAddAtomA@4    0045f348     kernel32:KERNEL32.dll
 0002:0000034c       __imp__lstrcmpiA@8         0045f34c     kernel32:KERNEL32.dll
 0002:00000350       __imp__GlobalGetAtomNameA@12 0045f350     kernel32:KERNEL32.dll
 0002:00000354       __imp__GetCurrentThreadId@0 0045f354     kernel32:KERNEL32.dll
 0002:00000358       __imp__WideCharToMultiByte@32 0045f358     kernel32:KERNEL32.dll
 0002:0000035c       __imp__MultiByteToWideChar@24 0045f35c     kernel32:KERNEL32.dll
 0002:00000360       __imp__FormatMessageA@28   0045f360     kernel32:KERNEL32.dll
 0002:00000364       __imp__SetLastError@4      0045f364     kernel32:KERNEL32.dll
 0002:00000368       __imp__MulDiv@12           0045f368     kernel32:KERNEL32.dll
 0002:0000036c       __imp__DuplicateHandle@28  0045f36c     kernel32:KERNEL32.dll
 0002:00000370       __imp__GetCurrentProcess@0 0045f370     kernel32:KERNEL32.dll
 0002:00000374       __imp__FlushFileBuffers@4  0045f374     kernel32:KERNEL32.dll
 0002:00000378       __imp__LockFile@20         0045f378     kernel32:KERNEL32.dll
 0002:0000037c       __imp__UnlockFile@20       0045f37c     kernel32:KERNEL32.dll
 0002:00000380       __imp__SetEndOfFile@4      0045f380     kernel32:KERNEL32.dll
 0002:00000384       __imp__GetFullPathNameA@16 0045f384     kernel32:KERNEL32.dll
 0002:00000388       __imp__GetStringTypeExA@20 0045f388     kernel32:KERNEL32.dll
 0002:0000038c       __imp__GetThreadLocale@0   0045f38c     kernel32:KERNEL32.dll
 0002:00000390       __imp__GetShortPathNameA@12 0045f390     kernel32:KERNEL32.dll
 0002:00000394       __imp__lstrcmpA@8          0045f394     kernel32:KERNEL32.dll
 0002:00000398       __imp__FileTimeToSystemTime@8 0045f398     kernel32:KERNEL32.dll
 0002:0000039c       __imp__FileTimeToLocalFileTime@8 0045f39c     kernel32:KERNEL32.dll
 0002:000003a0       __imp__GetCurrentThread@0  0045f3a0     kernel32:KERNEL32.dll
 0002:000003a4       __imp__GetTempFileNameA@16 0045f3a4     kernel32:KERNEL32.dll
 0002:000003a8       __imp__SetFileTime@16      0045f3a8     kernel32:KERNEL32.dll
 0002:000003ac       __imp__GetFileTime@16      0045f3ac     kernel32:KERNEL32.dll
 0002:000003b0       __imp__GetDiskFreeSpaceA@20 0045f3b0     kernel32:KERNEL32.dll
 0002:000003b4       __imp__GlobalFlags@4       0045f3b4     kernel32:KERNEL32.dll
 0002:000003b8       __imp__SizeofResource@8    0045f3b8     kernel32:KERNEL32.dll
 0002:000003bc       __imp__TlsAlloc@0          0045f3bc     kernel32:KERNEL32.dll
 0002:000003c0       __imp__GlobalHandle@4      0045f3c0     kernel32:KERNEL32.dll
 0002:000003c4       __imp__TlsFree@4           0045f3c4     kernel32:KERNEL32.dll
 0002:000003c8       __imp__GlobalReAlloc@12    0045f3c8     kernel32:KERNEL32.dll
 0002:000003cc       __imp__TlsSetValue@8       0045f3cc     kernel32:KERNEL32.dll
 0002:000003d0       __imp__LocalReAlloc@12     0045f3d0     kernel32:KERNEL32.dll
 0002:000003d4       __imp__TlsGetValue@4       0045f3d4     kernel32:KERNEL32.dll
 0002:000003d8       __imp__GetProcessVersion@4 0045f3d8     kernel32:KERNEL32.dll
 0002:000003dc       __imp__GetCPInfo@8         0045f3dc     kernel32:KERNEL32.dll
 0002:000003e0       __imp__GetOEMCP@0          0045f3e0     kernel32:KERNEL32.dll
 0002:000003e4       __imp__LocalFileTimeToFileTime@8 0045f3e4     kernel32:KERNEL32.dll
 0002:000003e8       __imp__SystemTimeToFileTime@8 0045f3e8     kernel32:KERNEL32.dll
 0002:000003ec       \177KERNEL32_NULL_THUNK_DATA 0045f3ec     kernel32:KERNEL32.dll
 0002:000003f0       __imp__DrawDibClose@4      0045f3f0     vfw32:MSVFW32.dll
 0002:000003f4       __imp__ICDecompress        0045f3f4     vfw32:MSVFW32.dll
 0002:000003f8       __imp__ICSeqCompressFrameStart@8 0045f3f8     vfw32:MSVFW32.dll
 0002:000003fc       __imp__ICSendMessage@16    0045f3fc     vfw32:MSVFW32.dll
 0002:00000400       __imp__ICOpen@12           0045f400     vfw32:MSVFW32.dll
 0002:00000404       __imp__ICClose@4           0045f404     vfw32:MSVFW32.dll
 0002:00000408       __imp__ICCompressorFree@4  0045f408     vfw32:MSVFW32.dll
 0002:0000040c       __imp__ICSeqCompressFrameEnd@4 0045f40c     vfw32:MSVFW32.dll
 0002:00000410       __imp__DrawDibDraw@52      0045f410     vfw32:MSVFW32.dll
 0002:00000414       __imp__DrawDibOpen@0       0045f414     vfw32:MSVFW32.dll
 0002:00000418       \177MSVFW32_NULL_THUNK_DATA 0045f418     vfw32:MSVFW32.dll
 0002:0000041c       __imp__SysFreeString@4     0045f41c     oleaut32:OLEAUT32.dll
 0002:00000420       __imp__SysStringLen@4      0045f420     oleaut32:OLEAUT32.dll
 0002:00000424       __imp__SysAllocStringByteLen@8 0045f424     oleaut32:OLEAUT32.dll
 0002:00000428       __imp__SysAllocStringLen@8 0045f428     oleaut32:OLEAUT32.dll
 0002:0000042c       __imp__SysAllocString@4    0045f42c     oleaut32:OLEAUT32.dll
 0002:00000430       __imp__VariantChangeType@16 0045f430     oleaut32:OLEAUT32.dll
 0002:00000434       __imp__VariantCopy@8       0045f434     oleaut32:OLEAUT32.dll
 0002:00000438       __imp__VariantTimeToSystemTime@12 0045f438     oleaut32:OLEAUT32.dll
 0002:0000043c       __imp__VariantClear@4      0045f43c     oleaut32:OLEAUT32.dll
 0002:00000440       \177OLEAUT32_NULL_THUNK_DATA 0045f440     oleaut32:OLEAUT32.dll
 0002:00000444       __imp__OleCreateFontIndirect@12 0045f444     olepro32:OLEPRO32.DLL
 0002:00000448       \177OLEPRO32_NULL_THUNK_DATA 0045f448     olepro32:OLEPRO32.DLL
 0002:0000044c       __imp__SHGetFileInfoA@20   0045f44c     shell32:SHELL32.dll
 0002:00000450       __imp__ShellExecuteExA@4   0045f450     shell32:SHELL32.dll
 0002:00000454       __imp__DragQueryFileA@16   0045f454     shell32:SHELL32.dll
 0002:00000458       __imp__DragFinish@4        0045f458     shell32:SHELL32.dll
 0002:0000045c       __imp__Shell_NotifyIconA@8 0045f45c     shell32:SHELL32.dll
 0002:00000460       __imp__ExtractIconA@12     0045f460     shell32:SHELL32.dll
 0002:00000464       __imp__ShellExecuteA@24    0045f464     shell32:SHELL32.dll
 0002:00000468       __imp__Shell_GetImageLists@8 0045f468     shell32:SHELL32.dll
 0002:0000046c       \177SHELL32_NULL_THUNK_DATA 0045f46c     shell32:SHELL32.dll
 0002:00000470       __imp__PathRemoveFileSpecA@4 0045f470     Shlwapi:SHLWAPI.dll
 0002:00000474       __imp__SHAutoComplete@8    0045f474     Shlwapi:SHLWAPI.dll
 0002:00000478       \177SHLWAPI_NULL_THUNK_DATA 0045f478     Shlwapi:SHLWAPI.dll
 0002:0000047c       __imp__ScrollWindow@20     0045f47c     user32:USER32.dll
 0002:00000480       __imp__GetScrollInfo@12    0045f480     user32:USER32.dll
 0002:00000484       __imp__SetScrollInfo@16    0045f484     user32:USER32.dll
 0002:00000488       __imp__GetScrollRange@16   0045f488     user32:USER32.dll
 0002:0000048c       __imp__SetScrollRange@20   0045f48c     user32:USER32.dll
 0002:00000490       __imp__GetScrollPos@8      0045f490     user32:USER32.dll
 0002:00000494       __imp__SetScrollPos@16     0045f494     user32:USER32.dll
 0002:00000498       __imp__GetTopWindow@4      0045f498     user32:USER32.dll
 0002:0000049c       __imp__IsChild@8           0045f49c     user32:USER32.dll
 0002:000004a0       __imp__GetCapture@0        0045f4a0     user32:USER32.dll
 0002:000004a4       __imp__WinHelpA@16         0045f4a4     user32:USER32.dll
 0002:000004a8       __imp__RegisterClassA@4    0045f4a8     user32:USER32.dll
 0002:000004ac       __imp__GetMenu@4           0045f4ac     user32:USER32.dll
 0002:000004b0       __imp__GetWindowTextLengthA@4 0045f4b0     user32:USER32.dll
 0002:000004b4       __imp__GetWindowTextA@12   0045f4b4     user32:USER32.dll
 0002:000004b8       __imp__CreateWindowExA@48  0045f4b8     user32:USER32.dll
 0002:000004bc       __imp__SetWindowsHookExA@16 0045f4bc     user32:USER32.dll
 0002:000004c0       __imp__CallNextHookEx@16   0045f4c0     user32:USER32.dll
 0002:000004c4       __imp__GetClassLongA@8     0045f4c4     user32:USER32.dll
 0002:000004c8       __imp__SetPropA@12         0045f4c8     user32:USER32.dll
 0002:000004cc       __imp__UnhookWindowsHookEx@4 0045f4cc     user32:USER32.dll
 0002:000004d0       __imp__GetPropA@8          0045f4d0     user32:USER32.dll
 0002:000004d4       __imp__CallWindowProcA@20  0045f4d4     user32:USER32.dll
 0002:000004d8       __imp__RemovePropA@8       0045f4d8     user32:USER32.dll
 0002:000004dc       __imp__GetMessageTime@0    0045f4dc     user32:USER32.dll
 0002:000004e0       __imp__GetMessagePos@0     0045f4e0     user32:USER32.dll
 0002:000004e4       __imp__GetLastActivePopup@4 0045f4e4     user32:USER32.dll
 0002:000004e8       __imp__GetForegroundWindow@0 0045f4e8     user32:USER32.dll
 0002:000004ec       __imp__SetWindowLongA@12   0045f4ec     user32:USER32.dll
 0002:000004f0       __imp__RegisterWindowMessageA@4 0045f4f0     user32:USER32.dll
 0002:000004f4       __imp__IsIconic@4          0045f4f4     user32:USER32.dll
 0002:000004f8       __imp__GetWindowPlacement@8 0045f4f8     user32:USER32.dll
 0002:000004fc       __imp__EndDialog@8         0045f4fc     user32:USER32.dll
 0002:00000500       __imp__SetActiveWindow@4   0045f500     user32:USER32.dll
 0002:00000504       __imp__CreateDialogIndirectParamA@20 0045f504     user32:USER32.dll
 0002:00000508       __imp__DestroyWindow@4     0045f508     user32:USER32.dll
 0002:0000050c       __imp__GetDlgItem@8        0045f50c     user32:USER32.dll
 0002:00000510       __imp__IsWindowEnabled@4   0045f510     user32:USER32.dll
 0002:00000514       __imp__SetMenuDefaultItem@12 0045f514     user32:USER32.dll
 0002:00000518       __imp__TrackPopupMenu@28   0045f518     user32:USER32.dll
 0002:0000051c       __imp__GetMenuItemID@8     0045f51c     user32:USER32.dll
 0002:00000520       __imp__IsWindow@4          0045f520     user32:USER32.dll
 0002:00000524       __imp__LoadBitmapA@8       0045f524     user32:USER32.dll
 0002:00000528       __imp__GetClipboardData@4  0045f528     user32:USER32.dll
 0002:0000052c       __imp__OpenClipboard@4     0045f52c     user32:USER32.dll
 0002:00000530       __imp__EmptyClipboard@0    0045f530     user32:USER32.dll
 0002:00000534       __imp__SetClipboardData@8  0045f534     user32:USER32.dll
 0002:00000538       __imp__CloseClipboard@0    0045f538     user32:USER32.dll
 0002:0000053c       __imp__DrawTextA@20        0045f53c     user32:USER32.dll
 0002:00000540       __imp__GetMenuState@12     0045f540     user32:USER32.dll
 0002:00000544       __imp__ShowScrollBar@12    0045f544     user32:USER32.dll
 0002:00000548       __imp__DrawIconEx@36       0045f548     user32:USER32.dll
 0002:0000054c       __imp__IntersectRect@12    0045f54c     user32:USER32.dll
 0002:00000550       __imp__CheckMenuRadioItem@20 0045f550     user32:USER32.dll
 0002:00000554       __imp__SetClassLongA@12    0045f554     user32:USER32.dll
 0002:00000558       __imp__SetForegroundWindow@4 0045f558     user32:USER32.dll
 0002:0000055c       __imp__GetSystemMenu@8     0045f55c     user32:USER32.dll
 0002:00000560       __imp__AppendMenuA@16      0045f560     user32:USER32.dll
 0002:00000564       __imp__CheckMenuItem@12    0045f564     user32:USER32.dll
 0002:00000568       __imp__MessageBeep@4       0045f568     user32:USER32.dll
 0002:0000056c       __imp__GetSystemMetrics@4  0045f56c     user32:USER32.dll
 0002:00000570       __imp__DrawEdge@16         0045f570     user32:USER32.dll
 0002:00000574       __imp__RedrawWindow@16     0045f574     user32:USER32.dll
 0002:00000578       __imp__SetMenu@8           0045f578     user32:USER32.dll
 0002:0000057c       __imp__SystemParametersInfoA@16 0045f57c     user32:USER32.dll
 0002:00000580       __imp__CharNextA@4         0045f580     user32:USER32.dll
 0002:00000584       __imp__EndDeferWindowPos@4 0045f584     user32:USER32.dll
 0002:00000588       __imp__GetMenuItemCount@4  0045f588     user32:USER32.dll
 0002:0000058c       __imp__EnableMenuItem@12   0045f58c     user32:USER32.dll
 0002:00000590       __imp__GetCursorPos@4      0045f590     user32:USER32.dll
 0002:00000594       __imp__GetFocus@0          0045f594     user32:USER32.dll
 0002:00000598       __imp__MessageBoxA@16      0045f598     user32:USER32.dll
 0002:0000059c       __imp__GetDlgCtrlID@4      0045f59c     user32:USER32.dll
 0002:000005a0       __imp__SetWindowPos@28     0045f5a0     user32:USER32.dll
 0002:000005a4       __imp__IsWindowVisible@4   0045f5a4     user32:USER32.dll
 0002:000005a8       __imp__UpdateWindow@4      0045f5a8     user32:USER32.dll
 0002:000005ac       __imp__ScreenToClient@8    0045f5ac     user32:USER32.dll
 0002:000005b0       __imp__GetWindow@8         0045f5b0     user32:USER32.dll
 0002:000005b4       __imp__CopyIcon@4          0045f5b4     user32:USER32.dll
 0002:000005b8       __imp__PtInRect@12         0045f5b8     user32:USER32.dll
 0002:000005bc       __imp__KillTimer@8         0045f5bc     user32:USER32.dll
 0002:000005c0       __imp__GetKeyState@4       0045f5c0     user32:USER32.dll
 0002:000005c4       __imp__ReleaseCapture@0    0045f5c4     user32:USER32.dll
 0002:000005c8       __imp__SetCapture@4        0045f5c8     user32:USER32.dll
 0002:000005cc       __imp__SetTimer@16         0045f5cc     user32:USER32.dll
 0002:000005d0       __imp__SetRectEmpty@4      0045f5d0     user32:USER32.dll
 0002:000005d4       __imp__BeginDeferWindowPos@4 0045f5d4     user32:USER32.dll
 0002:000005d8       __imp__DeferWindowPos@32   0045f5d8     user32:USER32.dll
 0002:000005dc       __imp__EqualRect@8         0045f5dc     user32:USER32.dll
 0002:000005e0       __imp__AdjustWindowRectEx@16 0045f5e0     user32:USER32.dll
 0002:000005e4       __imp__SetFocus@4          0045f5e4     user32:USER32.dll
 0002:000005e8       __imp__PeekMessageA@20     0045f5e8     user32:USER32.dll
 0002:000005ec       __imp__MapWindowPoints@16  0045f5ec     user32:USER32.dll
 0002:000005f0       __imp__SendDlgItemMessageA@20 0045f5f0     user32:USER32.dll
 0002:000005f4       __imp__DrawFrameControl@16 0045f5f4     user32:USER32.dll
 0002:000005f8       __imp__GetCursor@0         0045f5f8     user32:USER32.dll
 0002:000005fc       __imp__GetClassInfoA@12    0045f5fc     user32:USER32.dll
 0002:00000600       __imp__DefWindowProcA@16   0045f600     user32:USER32.dll
 0002:00000604       __imp__LoadCursorA@8       0045f604     user32:USER32.dll
 0002:00000608       __imp__wsprintfA           0045f608     user32:USER32.dll
 0002:0000060c       __imp__FrameRect@12        0045f60c     user32:USER32.dll
 0002:00000610       __imp__LoadMenuA@8         0045f610     user32:USER32.dll
 0002:00000614       __imp__LoadImageA@24       0045f614     user32:USER32.dll
 0002:00000618       __imp__GetIconInfo@8       0045f618     user32:USER32.dll
 0002:0000061c       __imp__GetDC@4             0045f61c     user32:USER32.dll
 0002:00000620       __imp__ReleaseDC@8         0045f620     user32:USER32.dll
 0002:00000624       __imp__GetSysColor@4       0045f624     user32:USER32.dll
 0002:00000628       __imp__FillRect@12         0045f628     user32:USER32.dll
 0002:0000062c       __imp__DrawStateA@40       0045f62c     user32:USER32.dll
 0002:00000630       __imp__OffsetRect@12       0045f630     user32:USER32.dll
 0002:00000634       __imp__GetClientRect@8     0045f634     user32:USER32.dll
 0002:00000638       __imp__CopyRect@8          0045f638     user32:USER32.dll
 0002:0000063c       __imp__InflateRect@12      0045f63c     user32:USER32.dll
 0002:00000640       __imp__DrawFocusRect@8     0045f640     user32:USER32.dll
 0002:00000644       __imp__GetWindowRect@8     0045f644     user32:USER32.dll
 0002:00000648       __imp__GetSubMenu@8        0045f648     user32:USER32.dll
 0002:0000064c       __imp__TrackPopupMenuEx@24 0045f64c     user32:USER32.dll
 0002:00000650       __imp__PostMessageA@16     0045f650     user32:USER32.dll
 0002:00000654       __imp__ClientToScreen@8    0045f654     user32:USER32.dll
 0002:00000658       __imp__WindowFromPoint@8   0045f658     user32:USER32.dll
 0002:0000065c       __imp__GetActiveWindow@0   0045f65c     user32:USER32.dll
 0002:00000660       __imp__InvalidateRect@12   0045f660     user32:USER32.dll
 0002:00000664       __imp__SetCursor@4         0045f664     user32:USER32.dll
 0002:00000668       __imp__GetParent@4         0045f668     user32:USER32.dll
 0002:0000066c       __imp__GetNextDlgTabItem@12 0045f66c     user32:USER32.dll
 0002:00000670       __imp__GetWindowLongA@8    0045f670     user32:USER32.dll
 0002:00000674       __imp__DestroyIcon@4       0045f674     user32:USER32.dll
 0002:00000678       __imp__DestroyCursor@4     0045f678     user32:USER32.dll
 0002:0000067c       __imp__DestroyMenu@4       0045f67c     user32:USER32.dll
 0002:00000680       __imp__SetRect@20          0045f680     user32:USER32.dll
 0002:00000684       __imp__EnableWindow@8      0045f684     user32:USER32.dll
 0002:00000688       __imp__SendMessageA@16     0045f688     user32:USER32.dll
 0002:0000068c       __imp__LoadIconA@8         0045f68c     user32:USER32.dll
 0002:00000690       __imp__GetMessageA@16      0045f690     user32:USER32.dll
 0002:00000694       __imp__TranslateAcceleratorA@12 0045f694     user32:USER32.dll
 0002:00000698       __imp__TranslateMessage@4  0045f698     user32:USER32.dll
 0002:0000069c       __imp__LoadAcceleratorsA@8 0045f69c     user32:USER32.dll
 0002:000006a0       __imp__MapDialogRect@8     0045f6a0     user32:USER32.dll
 0002:000006a4       __imp__SetWindowContextHelpId@8 0045f6a4     user32:USER32.dll
 0002:000006a8       __imp__ValidateRect@8      0045f6a8     user32:USER32.dll
 0002:000006ac       __imp__ShowOwnedPopups@8   0045f6ac     user32:USER32.dll
 0002:000006b0       __imp__PostQuitMessage@4   0045f6b0     user32:USER32.dll
 0002:000006b4       __imp__SetDlgItemTextA@12  0045f6b4     user32:USER32.dll
 0002:000006b8       __imp__IsDialogMessageA@8  0045f6b8     user32:USER32.dll
 0002:000006bc       __imp__SetWindowTextA@8    0045f6bc     user32:USER32.dll
 0002:000006c0       __imp__MoveWindow@24       0045f6c0     user32:USER32.dll
 0002:000006c4       __imp__ShowWindow@8        0045f6c4     user32:USER32.dll
 0002:000006c8       __imp__SetMenuItemBitmaps@20 0045f6c8     user32:USER32.dll
 0002:000006cc       __imp__ModifyMenuA@20      0045f6cc     user32:USER32.dll
 0002:000006d0       __imp__GetMenuCheckMarkDimensions@0 0045f6d0     user32:USER32.dll
 0002:000006d4       __imp__wvsprintfA@12       0045f6d4     user32:USER32.dll
 0002:000006d8       __imp__GetWindowDC@4       0045f6d8     user32:USER32.dll
 0002:000006dc       __imp__BeginPaint@8        0045f6dc     user32:USER32.dll
 0002:000006e0       __imp__EndPaint@8          0045f6e0     user32:USER32.dll
 0002:000006e4       __imp__TabbedTextOutA@32   0045f6e4     user32:USER32.dll
 0002:000006e8       __imp__GrayStringA@36      0045f6e8     user32:USER32.dll
 0002:000006ec       __imp__LoadStringA@16      0045f6ec     user32:USER32.dll
 0002:000006f0       __imp__CharUpperA@4        0045f6f0     user32:USER32.dll
 0002:000006f4       __imp__PostThreadMessageA@16 0045f6f4     user32:USER32.dll
 0002:000006f8       __imp__SetParent@8         0045f6f8     user32:USER32.dll
 0002:000006fc       __imp__RegisterClipboardFormatA@4 0045f6fc     user32:USER32.dll
 0002:00000700       __imp__LockWindowUpdate@4  0045f700     user32:USER32.dll
 0002:00000704       __imp__GetDCEx@12          0045f704     user32:USER32.dll
 0002:00000708       __imp__GetNextDlgGroupItem@12 0045f708     user32:USER32.dll
 0002:0000070c       __imp__CopyAcceleratorTableA@12 0045f70c     user32:USER32.dll
 0002:00000710       __imp__GetSysColorBrush@4  0045f710     user32:USER32.dll
 0002:00000714       __imp__GetClassNameA@12    0045f714     user32:USER32.dll
 0002:00000718       __imp__BringWindowToTop@4  0045f718     user32:USER32.dll
 0002:0000071c       __imp__UnpackDDElParam@16  0045f71c     user32:USER32.dll
 0002:00000720       __imp__DeleteMenu@12       0045f720     user32:USER32.dll
 0002:00000724       __imp__ReuseDDElParam@20   0045f724     user32:USER32.dll
 0002:00000728       __imp__IsZoomed@4          0045f728     user32:USER32.dll
 0002:0000072c       __imp__GetDesktopWindow@0  0045f72c     user32:USER32.dll
 0002:00000730       __imp__FindWindowA@8       0045f730     user32:USER32.dll
 0002:00000734       __imp__DispatchMessageA@4  0045f734     user32:USER32.dll
 0002:00000738       __imp__IsWindowUnicode@4   0045f738     user32:USER32.dll
 0002:0000073c       __imp__DefDlgProcA@16      0045f73c     user32:USER32.dll
 0002:00000740       __imp__ExcludeUpdateRgn@8  0045f740     user32:USER32.dll
 0002:00000744       __imp__ShowCaret@4         0045f744     user32:USER32.dll
 0002:00000748       __imp__HideCaret@4         0045f748     user32:USER32.dll
 0002:0000074c       __imp__UnregisterClassA@8  0045f74c     user32:USER32.dll
 0002:00000750       \177USER32_NULL_THUNK_DATA 0045f750     user32:USER32.dll
 0002:00000754       __imp__waveOutClose@4      0045f754     Winmm:WINMM.dll
 0002:00000758       __imp__waveInUnprepareHeader@12 0045f758     Winmm:WINMM.dll
 0002:0000075c       __imp__waveInClose@4       0045f75c     Winmm:WINMM.dll
 0002:00000760       __imp__waveOutReset@4      0045f760     Winmm:WINMM.dll
 0002:00000764       __imp__PlaySoundA@12       0045f764     Winmm:WINMM.dll
 0002:00000768       __imp__waveOutGetNumDevs@0 0045f768     Winmm:WINMM.dll
 0002:0000076c       __imp__waveOutOpen@24      0045f76c     Winmm:WINMM.dll
 0002:00000770       __imp__waveOutPrepareHeader@12 0045f770     Winmm:WINMM.dll
 0002:00000774       __imp__waveInGetNumDevs@0  0045f774     Winmm:WINMM.dll
 0002:00000778       __imp__waveInOpen@24       0045f778     Winmm:WINMM.dll
 0002:0000077c       __imp__waveInPrepareHeader@12 0045f77c     Winmm:WINMM.dll
 0002:00000780       __imp__waveInAddBuffer@12  0045f780     Winmm:WINMM.dll
 0002:00000784       __imp__waveInStart@4       0045f784     Winmm:WINMM.dll
 0002:00000788       __imp__waveOutWrite@12     0045f788     Winmm:WINMM.dll
 0002:0000078c       __imp__waveOutUnprepareHeader@12 0045f78c     Winmm:WINMM.dll
 0002:00000790       __imp__waveInStop@4        0045f790     Winmm:WINMM.dll
 0002:00000794       __imp__waveInReset@4       0045f794     Winmm:WINMM.dll
 0002:00000798       \177WINMM_NULL_THUNK_DATA  0045f798     Winmm:WINMM.dll
 0002:0000079c       __imp__DocumentPropertiesA@24 0045f79c     winspool:WINSPOOL.DRV
 0002:000007a0       __imp__OpenPrinterA@12     0045f7a0     winspool:WINSPOOL.DRV
 0002:000007a4       __imp__ClosePrinter@4      0045f7a4     winspool:WINSPOOL.DRV
 0002:000007a8       \177WINSPOOL_NULL_THUNK_DATA 0045f7a8     winspool:WINSPOOL.DRV
 0002:000007ac       __imp__WSAWaitForMultipleEvents@20 0045f7ac     ws2_32:WS2_32.dll
 0002:000007b0       __imp__WSASocketA@24       0045f7b0     ws2_32:WS2_32.dll
 0002:000007b4       __imp__ioctlsocket@12      0045f7b4     ws2_32:WS2_32.dll
 0002:000007b8       __imp__WSAEventSelect@12   0045f7b8     ws2_32:WS2_32.dll
 0002:000007bc       __imp__htons@4             0045f7bc     ws2_32:WS2_32.dll
 0002:000007c0       __imp__bind@12             0045f7c0     ws2_32:WS2_32.dll
 0002:000007c4       __imp__listen@8            0045f7c4     ws2_32:WS2_32.dll
 0002:000007c8       __imp__WSACleanup@0        0045f7c8     ws2_32:WS2_32.dll
 0002:000007cc       __imp__WSAStartup@8        0045f7cc     ws2_32:WS2_32.dll
 0002:000007d0       __imp__closesocket@4       0045f7d0     ws2_32:WS2_32.dll
 0002:000007d4       __imp__getpeername@12      0045f7d4     ws2_32:WS2_32.dll
 0002:000007d8       __imp__inet_ntoa@4         0045f7d8     ws2_32:WS2_32.dll
 0002:000007dc       __imp__connect@12          0045f7dc     ws2_32:WS2_32.dll
 0002:000007e0       __imp__select@20           0045f7e0     ws2_32:WS2_32.dll
 0002:000007e4       __imp__send@16             0045f7e4     ws2_32:WS2_32.dll
 0002:000007e8       __imp__recv@16             0045f7e8     ws2_32:WS2_32.dll
 0002:000007ec       __imp__gethostname@8       0045f7ec     ws2_32:WS2_32.dll
 0002:000007f0       __imp__gethostbyname@4     0045f7f0     ws2_32:WS2_32.dll
 0002:000007f4       __imp__WSACloseEvent@4     0045f7f4     ws2_32:WS2_32.dll
 0002:000007f8       __imp__WSASend@28          0045f7f8     ws2_32:WS2_32.dll
 0002:000007fc       __imp__WSARecv@28          0045f7fc     ws2_32:WS2_32.dll
 0002:00000800       __imp__socket@12           0045f800     ws2_32:WS2_32.dll
 0002:00000804       __imp__accept@12           0045f804     ws2_32:WS2_32.dll
 0002:00000808       __imp__WSAGetLastError@0   0045f808     ws2_32:WS2_32.dll
 0002:0000080c       __imp__setsockopt@20       0045f80c     ws2_32:WS2_32.dll
 0002:00000810       __imp__WSAIoctl@36         0045f810     ws2_32:WS2_32.dll
 0002:00000814       __imp__WSAEnumNetworkEvents@12 0045f814     ws2_32:WS2_32.dll
 0002:00000818       __imp__WSACreateEvent@0    0045f818     ws2_32:WS2_32.dll
 0002:0000081c       \177WS2_32_NULL_THUNK_DATA 0045f81c     ws2_32:WS2_32.dll
 0002:00000820       __imp__GetFileTitleA@12    0045f820     comdlg32:comdlg32.dll
 0002:00000824       __imp__GetOpenFileNameA@4  0045f824     comdlg32:comdlg32.dll
 0002:00000828       __imp__GetSaveFileNameA@4  0045f828     comdlg32:comdlg32.dll
 0002:0000082c       \177comdlg32_NULL_THUNK_DATA 0045f82c     comdlg32:comdlg32.dll
 0002:00000830       __imp__OleUninitialize@0   0045f830     ole32:ole32.dll
 0002:00000834       __imp__OleInitialize@4     0045f834     ole32:ole32.dll
 0002:00000838       __imp__CoTaskMemAlloc@4    0045f838     ole32:ole32.dll
 0002:0000083c       __imp__CoTaskMemFree@4     0045f83c     ole32:ole32.dll
 0002:00000840       __imp__CreateILockBytesOnHGlobal@12 0045f840     ole32:ole32.dll
 0002:00000844       __imp__StgCreateDocfileOnILockBytes@16 0045f844     ole32:ole32.dll
 0002:00000848       __imp__StgOpenStorageOnILockBytes@24 0045f848     ole32:ole32.dll
 0002:0000084c       __imp__CoFreeUnusedLibraries@0 0045f84c     ole32:ole32.dll
 0002:00000850       __imp__CLSIDFromString@8   0045f850     ole32:ole32.dll
 0002:00000854       __imp__CLSIDFromProgID@8   0045f854     ole32:ole32.dll
 0002:00000858       __imp__CoUninitialize@0    0045f858     ole32:ole32.dll
 0002:0000085c       __imp__CoInitialize@4      0045f85c     ole32:ole32.dll
 0002:00000860       __imp__CoGetClassObject@20 0045f860     ole32:ole32.dll
 0002:00000864       __imp__CoRegisterMessageFilter@8 0045f864     ole32:ole32.dll
 0002:00000868       __imp__CoRevokeClassObject@4 0045f868     ole32:ole32.dll
 0002:0000086c       __imp__OleFlushClipboard@0 0045f86c     ole32:ole32.dll
 0002:00000870       __imp__OleIsCurrentClipboard@4 0045f870     ole32:ole32.dll
 0002:00000874       \177ole32_NULL_THUNK_DATA  0045f874     ole32:ole32.dll
 0002:00000878       __imp__OleUIBusyA@4        0045f878     oledlg:oledlg.dll
 0002:0000087c       \177oledlg_NULL_THUNK_DATA 0045f87c     oledlg:oledlg.dll
 0002:00000880       __imp__PdhOpenQueryA@12    0045f880     PDH:pdh.dll
 0002:00000884       __imp__PdhAddCounterA@16   0045f884     PDH:pdh.dll
 0002:00000888       __imp__PdhCloseQuery@4     0045f888     PDH:pdh.dll
 0002:0000088c       __imp__PdhGetFormattedCounterValue@16 0045f88c     PDH:pdh.dll
 0002:00000890       __imp__PdhCollectQueryData@4 0045f890     PDH:pdh.dll
 0002:00000894       \177pdh_NULL_THUNK_DATA    0045f894     PDH:pdh.dll
 0002:00000898       ??_7CAudio@@6B@            0045f898     Audio.obj
 0002:000008a0       ?messageMap@CAudioDlg@@1UAFX_MSGMAP@@B 0045f8a0     AudioDlg.obj
 0002:000008a8       ?_messageEntries@CAudioDlg@@0QBUAFX_MSGMAP_ENTRY@@B 0045f8a8     AudioDlg.obj
 0002:000008f0       ??_7CAudioDlg@@6B@         0045f8f0     AudioDlg.obj
 0002:000009c0       ??_7CBmpToAvi@@6B@         0045f9c0     BmpToAvi.obj
 0002:000009c8       ?messageMap@CButtonST@@1UAFX_MSGMAP@@B 0045f9c8     BtnST.obj
 0002:000009d0       ?_messageEntries@CButtonST@@0QBUAFX_MSGMAP_ENTRY@@B 0045f9d0     BtnST.obj
 0002:00000b38       ??_7CButtonST@@6B@         0045fb38     BtnST.obj
 0002:00000c08       ??_7CBitmap@@6B@           0045fc08     BtnST.obj
 0002:00000c14       ??_7CBuffer@@6B@           0045fc14     Buffer.obj
 0002:00000c18       __real@8@3ff58000000000000000 0045fc18     Buffer.obj
 0002:00000c20       ?classCBuildView@CBuildView@@2UCRuntimeClass@@B 0045fc20     BuildView.obj
 0002:00000c38       ?messageMap@CBuildView@@1UAFX_MSGMAP@@B 0045fc38     BuildView.obj
 0002:00000c40       ?_messageEntries@CBuildView@@0QBUAFX_MSGMAP_ENTRY@@B 0045fc40     BuildView.obj
 0002:00000c88       ??_7CBuildView@@6B@        0045fc88     BuildView.obj
 0002:00000db4       ??_7CCpuUsage@@6B@         0045fdb4     CpuUsage.obj
 0002:00000db8       ?messageMap@CCustomTabCtrl@@1UAFX_MSGMAP@@B 0045fdb8     CustomTabCtrl.obj
 0002:00000dc0       ?_messageEntries@CCustomTabCtrl@@0QBUAFX_MSGMAP_ENTRY@@B 0045fdc0     CustomTabCtrl.obj
 0002:00000f28       ??_7CCustomTabCtrl@@6B@    0045ff28     CustomTabCtrl.obj
 0002:00000fe0       ??_7?$CArray@PAVCCustomTabCtrlItem@@PAV1@@@6B@ 0045ffe0     CustomTabCtrl.obj
 0002:00000ff0       ?messageMap@CFileManagerDlg@@1UAFX_MSGMAP@@B 0045fff0     FileManagerDlg.obj
 0002:00000ff8       ?_messageEntries@CFileManagerDlg@@0QBUAFX_MSGMAP_ENTRY@@B 0045fff8     FileManagerDlg.obj
 0002:000014f0       ??_7CFileManagerDlg@@6B@   004604f0     FileManagerDlg.obj
 0002:000015c0       ??_7?$CList@VCString@@AAV1@@@6B@ 004605c0     FileManagerDlg.obj
 0002:000015cc       __real@4@3ff58000000000000000 004605cc     FileManagerDlg.obj
 0002:000015d0       ??_7CInputDialog@@6B@      004605d0     FileManagerDlg.obj
 0002:000016b0       ?messageMap@CFileTransferModeDlg@@1UAFX_MSGMAP@@B 004606b0     FileTransferModeDlg.obj
 0002:000016b8       ?_messageEntries@CFileTransferModeDlg@@0QBUAFX_MSGMAP_ENTRY@@B 004606b8     FileTransferModeDlg.obj
 0002:000016e8       ??_7CFileTransferModeDlg@@6B@ 004606e8     FileTransferModeDlg.obj
 0002:000017b8       ?messageMap@CGh0stApp@@1UAFX_MSGMAP@@B 004607b8     gh0st.obj
 0002:000017c0       ?_messageEntries@CGh0stApp@@0QBUAFX_MSGMAP_ENTRY@@B 004607c0     gh0st.obj
 0002:00001820       ?messageMap@CAboutDlg@@1UAFX_MSGMAP@@B 00460820     gh0st.obj
 0002:00001828       ?_messageEntries@CAboutDlg@@0QBUAFX_MSGMAP_ENTRY@@B 00460828     gh0st.obj
 0002:00001840       ??_7CGh0stApp@@6B@         00460840     gh0st.obj
 0002:000018dc       ??_7CAboutDlg@@6B@         004608dc     gh0st.obj
 0002:000019b0       ?classCGh0stDoc@CGh0stDoc@@2UCRuntimeClass@@B 004609b0     gh0stDoc.obj
 0002:000019c8       ?messageMap@CGh0stDoc@@1UAFX_MSGMAP@@B 004609c8     gh0stDoc.obj
 0002:000019d0       ?_messageEntries@CGh0stDoc@@0QBUAFX_MSGMAP_ENTRY@@B 004609d0     gh0stDoc.obj
 0002:000019e8       ??_7CGh0stDoc@@6B@         004609e8     gh0stDoc.obj
 0002:00001a98       ?classCGh0stView@CGh0stView@@2UCRuntimeClass@@B 00460a98     gh0stView.obj
 0002:00001ab0       ?messageMap@CGh0stView@@1UAFX_MSGMAP@@B 00460ab0     gh0stView.obj
 0002:00001ab8       ?_messageEntries@CGh0stView@@0QBUAFX_MSGMAP_ENTRY@@B 00460ab8     gh0stView.obj
 0002:00001dd0       ??_7CGh0stView@@6B@        00460dd0     gh0stView.obj
 0002:00001ee0       ?messageMap@CHoverEdit@@1UAFX_MSGMAP@@B 00460ee0     HoverEdit.obj
 0002:00001ee8       ?_messageEntries@CHoverEdit@@0QBUAFX_MSGMAP_ENTRY@@B 00460ee8     HoverEdit.obj
 0002:00001f18       ??_7CHoverEdit@@6B@        00460f18     HoverEdit.obj
 0002:00001fd8       ??_7?$CTrackControl@VCEdit@@@@6B@ 00460fd8     HoverEdit.obj
 0002:00002098       ??_7CIniFile@@6B@          00461098     IniFile.obj
 0002:0000209c       ??_7CIOCPServer@@6B@       0046109c     IOCPServer.obj
 0002:000020a0       ??_7?$CList@PAUClientContext@@PAU1@@@6B@ 004610a0     IOCPServer.obj
 0002:000020b0       __real@8@4002c000000000000000 004610b0     IOCPServer.obj
 0002:000020b8       __real@8@3fff8020c49ba5e35000 004610b8     IOCPServer.obj
 0002:000020c0       ?messageMap@CKeyBoardDlg@@1UAFX_MSGMAP@@B 004610c0     KeyBoardDlg.obj
 0002:000020c8       ?_messageEntries@CKeyBoardDlg@@0QBUAFX_MSGMAP_ENTRY@@B 004610c8     KeyBoardDlg.obj
 0002:00002128       ??_7CKeyBoardDlg@@6B@      00461128     KeyBoardDlg.obj
 0002:000021f8       ?classCMainFrame@CMainFrame@@2UCRuntimeClass@@B 004611f8     MainFrm.obj
 0002:00002210       ?messageMap@CMainFrame@@1UAFX_MSGMAP@@B 00461210     MainFrm.obj
 0002:00002218       ?_messageEntries@CMainFrame@@0QBUAFX_MSGMAP_ENTRY@@B 00461218     MainFrm.obj
 0002:00002380       ??_7CMainFrame@@6B@        00461380     MainFrm.obj
 0002:00002478       ?messageMap@CScreenSpyDlg@@1UAFX_MSGMAP@@B 00461478     ScreenSpyDlg.obj
 0002:00002480       ?_messageEntries@CScreenSpyDlg@@0QBUAFX_MSGMAP_ENTRY@@B 00461480     ScreenSpyDlg.obj
 0002:00002540       ??_7CScreenSpyDlg@@6B@     00461540     ScreenSpyDlg.obj
 0002:00002610       ??_7CCursorInfo@@6B@       00461610     ScreenSpyDlg.obj
 0002:00002618       ?classCSettingsView@CSettingsView@@2UCRuntimeClass@@B 00461618     SettingsView.obj
 0002:00002630       ?messageMap@CSettingsView@@1UAFX_MSGMAP@@B 00461630     SettingsView.obj
 0002:00002638       ?_messageEntries@CSettingsView@@0QBUAFX_MSGMAP_ENTRY@@B 00461638     SettingsView.obj
 0002:00002728       ??_7CSettingsView@@6B@     00461728     SettingsView.obj
 0002:00002830       ??_7SEU_QQwry@@6B@         00461830     SEU_QQwry.obj
 0002:00002838       ?messageMap@CShellDlg@@1UAFX_MSGMAP@@B 00461838     ShellDlg.obj
 0002:00002840       ?_messageEntries@CShellDlg@@0QBUAFX_MSGMAP_ENTRY@@B 00461840     ShellDlg.obj
 0002:000028b8       ??_7CShellDlg@@6B@         004618b8     ShellDlg.obj
 0002:00002988       ?messageMap@CSystemDlg@@1UAFX_MSGMAP@@B 00461988     SystemDlg.obj
 0002:00002990       ?_messageEntries@CSystemDlg@@0QBUAFX_MSGMAP_ENTRY@@B 00461990     SystemDlg.obj
 0002:00002a50       ??_7CSystemDlg@@6B@        00461a50     SystemDlg.obj
 0002:00002b20       ?classCTabSDIFrameWnd@CTabSDIFrameWnd@@2UCRuntimeClass@@B 00461b20     TabSDIFrameWnd.obj
 0002:00002b38       ?messageMap@CTabSDIFrameWnd@@1UAFX_MSGMAP@@B 00461b38     TabSDIFrameWnd.obj
 0002:00002b40       ?_messageEntries@CTabSDIFrameWnd@@0QBUAFX_MSGMAP_ENTRY@@B 00461b40     TabSDIFrameWnd.obj
 0002:00002b88       ??_7CTabSDIFrameWnd@@6B@   00461b88     TabSDIFrameWnd.obj
 0002:00002c7c       ??_7CThemeUtil@@6B@        00461c7c     ThemeUtil.obj
 0002:00002c80       ?classCTrayIcon@CTrayIcon@@2UCRuntimeClass@@B 00461c80     TrayIcon.obj
 0002:00002c98       ??_7CTrayIcon@@6B@         00461c98     TrayIcon.obj
 0002:00002ca8       ?messageMap@CTrueColorToolBar@@1UAFX_MSGMAP@@B 00461ca8     TrueColorToolBar.obj
 0002:00002cb0       ?_messageEntries@CTrueColorToolBar@@0QBUAFX_MSGMAP_ENTRY@@B 00461cb0     TrueColorToolBar.obj
 0002:00002ce0       ??_7CTrueColorToolBar@@6B@ 00461ce0     TrueColorToolBar.obj
 0002:00002dc4       ??_7?$CArray@UstDropDownInfo@CTrueColorToolBar@@AAU12@@@6B@ 00461dc4     TrueColorToolBar.obj
 0002:00002dd0       ?messageMap@CWebCamDlg@@1UAFX_MSGMAP@@B 00461dd0     WebCamDlg.obj
 0002:00002dd8       ?_messageEntries@CWebCamDlg@@0QBUAFX_MSGMAP_ENTRY@@B 00461dd8     WebCamDlg.obj
 0002:00002e80       ??_7CWebCamDlg@@6B@        00461e80     WebCamDlg.obj
 0002:00002f50       ??_7CVideoCodec@@6B@       00461f50     WebCamDlg.obj
 0002:00002f54       ??_7CWinXPButtonST@@6B@    00461f54     WinXPButtonST.obj
 0002:00003028       _deflate_copyright         00462028     zlib:deflate.obj
 0002:00003720       __dist_code                00462720     zlib:trees.obj
 0002:00003920       __length_code              00462920     zlib:trees.obj
 0002:00003b58       _inflate_copyright         00462b58     zlib:inftrees.obj
 0002:00003d70       ?classCDialog@CDialog@@2UCRuntimeClass@@B 00462d70     nafxcw:dlgcore.obj
 0002:00003d88       ??_C@_07IJJI@CDialog?$AA@  00462d88     nafxcw:dlgcore.obj
 0002:00003d90       ?messageMap@CDialog@@1UAFX_MSGMAP@@B 00462d90     nafxcw:dlgcore.obj
 0002:00003d98       ?_messageEntries@CDialog@@0QBUAFX_MSGMAP_ENTRY@@B 00462d98     nafxcw:dlgcore.obj
 0002:00003e70       ??_C@_04EDLP@Edit?$AA@     00462e70     nafxcw:dlgcore.obj
 0002:00003e7c       ??_7CDialog@@6B@           00462e7c     nafxcw:dlgcore.obj
 0002:00003f4c       ??_C@_04JCAN@Helv?$AA@     00462f4c     nafxcw:dlgcore.obj
 0002:00003f54       ??_C@_0O@JHLN@MS?5Sans?5Serif?$AA@ 00462f54     nafxcw:dlgcore.obj
 0002:00003f64       ??_C@_0N@KBJM@MS?5Shell?5Dlg?$AA@ 00462f64     nafxcw:dlgcore.obj
 0002:00003f78       ?classCTempWnd@CTempWnd@@2UCRuntimeClass@@B 00462f78     nafxcw:wincore.obj
 0002:00003f90       ??_C@_08EHJM@CTempWnd?$AA@ 00462f90     nafxcw:wincore.obj
 0002:00003fa0       ?classCWnd@CWnd@@2UCRuntimeClass@@B 00462fa0     nafxcw:wincore.obj
 0002:00003fb8       ??_C@_04MBPC@CWnd?$AA@     00462fb8     nafxcw:wincore.obj
 0002:00003fc0       ?messageMap@CWnd@@1UAFX_MSGMAP@@B 00462fc0     nafxcw:wincore.obj
 0002:00003fc8       ?_messageEntries@CWnd@@0QBUAFX_MSGMAP_ENTRY@@B 00462fc8     nafxcw:wincore.obj
 0002:00004268       ?_afxOldWndProc@@3QBDB     00463268     nafxcw:wincore.obj
 0002:0000427c       ?_afxWnd@@3QBDB            0046327c     nafxcw:wincore.obj
 0002:00004288       ?_afxWndControlBar@@3QBDB  00463288     nafxcw:wincore.obj
 0002:0000429c       ?_afxWndMDIFrame@@3QBDB    0046329c     nafxcw:wincore.obj
 0002:000042ac       ?_afxWndFrameOrView@@3QBDB 004632ac     nafxcw:wincore.obj
 0002:000042c0       ?_afxWndOleControl@@3QBDB  004632c0     nafxcw:wincore.obj
 0002:000042d4       ??_C@_0BA@LJCP@GetMonitorInfoA?$AA@ 004632d4     nafxcw:wincore.obj
 0002:000042e4       ??_C@_0BE@KPOG@EnumDisplayMonitors?$AA@ 004632e4     nafxcw:wincore.obj
 0002:000042f8       ??_C@_0BB@GJCM@MonitorFromPoint?$AA@ 004632f8     nafxcw:wincore.obj
 0002:0000430c       ??_C@_0BA@GOHF@MonitorFromRect?$AA@ 0046330c     nafxcw:wincore.obj
 0002:0000431c       ??_C@_0BC@COEH@MonitorFromWindow?$AA@ 0046331c     nafxcw:wincore.obj
 0002:00004330       ??_C@_0BB@NDAA@GetSystemMetrics?$AA@ 00463330     nafxcw:wincore.obj
 0002:00004344       ??_C@_06NEIN@USER32?$AA@   00463344     nafxcw:wincore.obj
 0002:0000434c       ??_C@_07LGIJ@DISPLAY?$AA@  0046334c     nafxcw:wincore.obj
 0002:00004354       ??_C@_0BF@CBLB@commctrl_DragListMsg?$AA@ 00463354     nafxcw:wincore.obj
 0002:00004370       ??_7CWnd@@6B@              00463370     nafxcw:wincore.obj
 0002:00004428       ??_C@_03HEJE@ime?$AA@      00463428     nafxcw:wincore.obj
 0002:0000442c       ??_C@_0BD@JBOB@Afx?3?$CFx?3?$CFx?3?$CFx?3?$CFx?3?$CFx?$AA@ 0046342c     nafxcw:wincore.obj
 0002:00004440       ??_C@_09NEO@Afx?3?$CFx?3?$CFx?$AA@ 00463440     nafxcw:wincore.obj
 0002:00004450       ??_7CTestCmdUI@@6B@        00463450     nafxcw:wincore.obj
 0002:00004460       ??_C@_0BF@CELH@InitCommonControlsEx?$AA@ 00463460     nafxcw:wincore.obj
 0002:00004478       ??_C@_0N@BMKC@COMCTL32?4DLL?$AA@ 00463478     nafxcw:wincore.obj
 0002:0000448c       ??_7CTempWnd@@6B@          0046348c     nafxcw:wincore.obj
 0002:00004548       ??_7_AFX_CTL3D_STATE@@6B@  00463548     nafxcw:wincore.obj
 0002:00004550       ?classCCmdTarget@CCmdTarget@@2UCRuntimeClass@@B 00463550     nafxcw:cmdtarg.obj
 0002:00004568       ??_C@_0L@MION@CCmdTarget?$AA@ 00463568     nafxcw:cmdtarg.obj
 0002:00004574       ?_afxDot@@3QBEB            00463574     nafxcw:cmdtarg.obj
 0002:00004580       ?messageMap@CCmdTarget@@1UAFX_MSGMAP@@B 00463580     nafxcw:cmdtarg.obj
 0002:00004588       ?_messageEntries@CCmdTarget@@0QBUAFX_MSGMAP_ENTRY@@B 00463588     nafxcw:cmdtarg.obj
 0002:000045a0       ?dispatchMap@CCmdTarget@@1UAFX_DISPMAP@@B 004635a0     nafxcw:cmdtarg.obj
 0002:000045b0       ?_dispatchEntries@CCmdTarget@@0QBUAFX_DISPMAP_ENTRY@@B 004635b0     nafxcw:cmdtarg.obj
 0002:000045d0       ?eventsinkMap@CCmdTarget@@1UAFX_EVENTSINKMAP@@B 004635d0     nafxcw:cmdtarg.obj
 0002:000045e0       ?_eventsinkEntries@CCmdTarget@@0QBUAFX_EVENTSINKMAP_ENTRY@@B 004635e0     nafxcw:cmdtarg.obj
 0002:00004608       ?interfaceMap@CCmdTarget@@1UAFX_INTERFACEMAP@@B 00463608     nafxcw:cmdtarg.obj
 0002:00004610       ?_interfaceEntries@CCmdTarget@@0QBUAFX_INTERFACEMAP_ENTRY@@B 00463610     nafxcw:cmdtarg.obj
 0002:00004620       ?connectionMap@CCmdTarget@@1UAFX_CONNECTIONMAP@@B 00463620     nafxcw:cmdtarg.obj
 0002:00004628       ?_connectionEntries@CCmdTarget@@0QBUAFX_CONNECTIONMAP_ENTRY@@B 00463628     nafxcw:cmdtarg.obj
 0002:00004630       ?commandMap@CCmdTarget@@1UAFX_OLECMDMAP@@B 00463630     nafxcw:cmdtarg.obj
 0002:00004638       ?_commandEntries@CCmdTarget@@0QBUAFX_OLECMDMAP_ENTRY@@B 00463638     nafxcw:cmdtarg.obj
 0002:00004648       ??_7CCmdUI@@6B@            00463648     nafxcw:cmdtarg.obj
 0002:0000465c       ??_7_AFX_THREAD_STATE@@6B@ 0046365c     nafxcw:afxstate.obj
 0002:00004664       ??_7AFX_MODULE_STATE@@6B@  00463664     nafxcw:afxstate.obj
 0002:0000466c       ??_7AFX_MODULE_THREAD_STATE@@6B@ 0046366c     nafxcw:afxstate.obj
 0002:00004674       ??_7_AFX_BASE_MODULE_STATE@@6B@ 00463674     nafxcw:afxstate.obj
 0002:00004678       ??_C@_03JGAL@?$CFlu?$AA@   00463678     nafxcw:dlgdata.obj
 0002:0000467c       ??_C@_05JFHK@?$CF?$CK?4?$CKf?$AA@ 0046367c     nafxcw:strex.obj
 0002:00004684       ??_C@_03NOMB@I64?$AA@      00463684     nafxcw:strex.obj
 0002:00004688       ?classCTempGdiObject@CTempGdiObject@@2UCRuntimeClass@@B 00463688     nafxcw:wingdi.obj
 0002:000046a0       ??_C@_0P@LOPC@CTempGdiObject?$AA@ 004636a0     nafxcw:wingdi.obj
 0002:000046b0       ?classCTempDC@CTempDC@@2UCRuntimeClass@@B 004636b0     nafxcw:wingdi.obj
 0002:000046c8       ??_C@_07LHDN@CTempDC?$AA@  004636c8     nafxcw:wingdi.obj
 0002:000046d0       ?classCRgn@CRgn@@2UCRuntimeClass@@B 004636d0     nafxcw:wingdi.obj
 0002:000046e8       ??_C@_04HJNG@CRgn?$AA@     004636e8     nafxcw:wingdi.obj
 0002:000046f0       ?classCBitmap@CBitmap@@2UCRuntimeClass@@B 004636f0     nafxcw:wingdi.obj
 0002:00004708       ??_C@_07HNEL@CBitmap?$AA@  00463708     nafxcw:wingdi.obj
 0002:00004710       ?classCFont@CFont@@2UCRuntimeClass@@B 00463710     nafxcw:wingdi.obj
 0002:00004728       ??_C@_05MCKJ@CFont?$AA@    00463728     nafxcw:wingdi.obj
 0002:00004730       ?classCBrush@CBrush@@2UCRuntimeClass@@B 00463730     nafxcw:wingdi.obj
 0002:00004748       ??_C@_06PNF@CBrush?$AA@    00463748     nafxcw:wingdi.obj
 0002:00004750       ?classCPen@CPen@@2UCRuntimeClass@@B 00463750     nafxcw:wingdi.obj
 0002:00004768       ??_C@_04PAKO@CPen?$AA@     00463768     nafxcw:wingdi.obj
 0002:00004770       ?classCGdiObject@CGdiObject@@2UCRuntimeClass@@B 00463770     nafxcw:wingdi.obj
 0002:00004788       ??_C@_0L@CNBG@CGdiObject?$AA@ 00463788     nafxcw:wingdi.obj
 0002:00004798       ?classCPaintDC@CPaintDC@@2UCRuntimeClass@@B 00463798     nafxcw:wingdi.obj
 0002:000047b0       ??_C@_08HFDK@CPaintDC?$AA@ 004637b0     nafxcw:wingdi.obj
 0002:000047c0       ?classCWindowDC@CWindowDC@@2UCRuntimeClass@@B 004637c0     nafxcw:wingdi.obj
 0002:000047d8       ??_C@_09NFPO@CWindowDC?$AA@ 004637d8     nafxcw:wingdi.obj
 0002:000047e8       ?classCClientDC@CClientDC@@2UCRuntimeClass@@B 004637e8     nafxcw:wingdi.obj
 0002:00004800       ??_C@_09HIEC@CClientDC?$AA@ 00463800     nafxcw:wingdi.obj
 0002:00004810       ?classCDC@CDC@@2UCRuntimeClass@@B 00463810     nafxcw:wingdi.obj
 0002:00004828       ??_C@_03NJOH@CDC?$AA@      00463828     nafxcw:wingdi.obj
 0002:00004830       ?classCUserException@CUserException@@2UCRuntimeClass@@B 00463830     nafxcw:wingdi.obj
 0002:00004848       ??_C@_0P@BHHD@CUserException?$AA@ 00463848     nafxcw:wingdi.obj
 0002:00004858       ?classCResourceException@CResourceException@@2UCRuntimeClass@@B 00463858     nafxcw:wingdi.obj
 0002:00004870       ??_C@_0BD@GMHI@CResourceException?$AA@ 00463870     nafxcw:wingdi.obj
 0002:00004888       ??_7CDC@@6B@               00463888     nafxcw:wingdi.obj
 0002:000048fc       ??_C@_09EBEO@GetLayout?$AA@ 004638fc     nafxcw:wingdi.obj
 0002:00004908       ??_C@_09JDFO@GDI32?4DLL?$AA@ 00463908     nafxcw:wingdi.obj
 0002:00004914       ??_C@_09GMOM@SetLayout?$AA@ 00463914     nafxcw:wingdi.obj
 0002:00004924       ??_7CClientDC@@6B@         00463924     nafxcw:wingdi.obj
 0002:0000499c       ??_7CWindowDC@@6B@         0046399c     nafxcw:wingdi.obj
 0002:00004a14       ??_7CPaintDC@@6B@          00463a14     nafxcw:wingdi.obj
 0002:00004a8c       ??_7CPen@@6B@              00463a8c     nafxcw:wingdi.obj
 0002:00004a9c       ??_7CBrush@@6B@            00463a9c     nafxcw:wingdi.obj
 0002:00004aac       ??_7CGdiObject@@6B@        00463aac     nafxcw:wingdi.obj
 0002:00004abc       ??_7CTempDC@@6B@           00463abc     nafxcw:wingdi.obj
 0002:00004b34       ??_7CTempGdiObject@@6B@    00463b34     nafxcw:wingdi.obj
 0002:00004b44       ??_7CResourceException@@6B@ 00463b44     nafxcw:wingdi.obj
 0002:00004b5c       ??_7CUserException@@6B@    00463b5c     nafxcw:wingdi.obj
 0002:00004b70       ?classCEdit@CEdit@@2UCRuntimeClass@@B 00463b70     nafxcw:winctrl1.obj
 0002:00004b88       ??_C@_05KKIE@CEdit?$AA@    00463b88     nafxcw:winctrl1.obj
 0002:00004b90       ?classCComboBox@CComboBox@@2UCRuntimeClass@@B 00463b90     nafxcw:winctrl1.obj
 0002:00004ba8       ??_C@_09JMHE@CComboBox?$AA@ 00463ba8     nafxcw:winctrl1.obj
 0002:00004bb8       ?classCButton@CButton@@2UCRuntimeClass@@B 00463bb8     nafxcw:winctrl1.obj
 0002:00004bd0       ??_C@_07NNHJ@CButton?$AA@  00463bd0     nafxcw:winctrl1.obj
 0002:00004bdc       ??_7CButton@@6B@           00463bdc     nafxcw:winctrl1.obj
 0002:00004c9c       ??_7CComboBox@@6B@         00463c9c     nafxcw:winctrl1.obj
 0002:00004d64       ??_C@_04IGNI@EDIT?$AA@     00463d64     nafxcw:winctrl1.obj
 0002:00004d70       ??_7CEdit@@6B@             00463d70     nafxcw:winctrl1.obj
 0002:00004e28       ?classCToolTipCtrl@CToolTipCtrl@@2UCRuntimeClass@@B 00463e28     nafxcw:tooltip.obj
 0002:00004e40       ??_C@_0N@OELH@CToolTipCtrl?$AA@ 00463e40     nafxcw:tooltip.obj
 0002:00004e50       ?messageMap@CToolTipCtrl@@1UAFX_MSGMAP@@B 00463e50     nafxcw:tooltip.obj
 0002:00004e58       ?_messageEntries@CToolTipCtrl@@0QBUAFX_MSGMAP_ENTRY@@B 00463e58     nafxcw:tooltip.obj
 0002:00004ed4       ??_7CToolTipCtrl@@6B@      00463ed4     nafxcw:tooltip.obj
 0002:00004f90       ??_C@_0BB@FNBH@tooltips_class32?$AA@ 00463f90     nafxcw:tooltip.obj
 0002:00004fa8       ??_7CRgn@@6B@              00463fa8     nafxcw:wingdix.obj
 0002:00004fb8       ?classCFile@CFile@@2UCRuntimeClass@@B 00463fb8     nafxcw:filecore.obj
 0002:00004fd0       ??_C@_05GM@CFile?$AA@      00463fd0     nafxcw:filecore.obj
 0002:00004fd8       _afxIID_IShellLinkA        00463fd8     nafxcw:filecore.obj
 0002:00004fe8       _afxCLSID_ShellLink        00463fe8     nafxcw:filecore.obj
 0002:00004ffc       ??_7CFile@@6B@             00463ffc     nafxcw:filecore.obj
 0002:00005054       ??_7CFileException@@6B@    00464054     nafxcw:filecore.obj
 0002:00005068       ??_C@_0BC@KFKC@DllGetClassObject?$AA@ 00464068     nafxcw:filecore.obj
 0002:0000507c       ??_C@_0DD@BIAF@?$HL?$CF08X?9?$CF04X?9?$CF04X?9?$CF02X?$CF02X?9?$CF02X?$CF02@ 0046407c     nafxcw:filecore.obj
 0002:000050b0       ??_C@_0P@DFLB@InProcServer32?$AA@ 004640b0     nafxcw:filecore.obj
 0002:000050c0       ??_C@_05FGFK@CLSID?$AA@    004640c0     nafxcw:filecore.obj
 0002:000050c8       ?classCFormView@CFormView@@2UCRuntimeClass@@B 004640c8     nafxcw:viewform.obj
 0002:000050e0       ??_C@_09MHPF@CFormView?$AA@ 004640e0     nafxcw:viewform.obj
 0002:000050f0       ?messageMap@CFormView@@1UAFX_MSGMAP@@B 004640f0     nafxcw:viewform.obj
 0002:000050f8       ?_messageEntries@CFormView@@0QBUAFX_MSGMAP_ENTRY@@B 004640f8     nafxcw:viewform.obj
 0002:00005174       ??_7CFormView@@6B@         00464174     nafxcw:viewform.obj
 0002:00005280       ?classCCtrlView@CCtrlView@@2UCRuntimeClass@@B 00464280     nafxcw:viewcore.obj
 0002:00005298       ??_C@_09OBAN@CCtrlView?$AA@ 00464298     nafxcw:viewcore.obj
 0002:000052a8       ?classCSplitterWnd@CSplitterWnd@@2UCRuntimeClass@@B 004642a8     nafxcw:viewcore.obj
 0002:000052c0       ??_C@_0N@JGP@CSplitterWnd?$AA@ 004642c0     nafxcw:viewcore.obj
 0002:000052d0       ?messageMap@CCtrlView@@1UAFX_MSGMAP@@B 004642d0     nafxcw:viewcore.obj
 0002:000052d8       ?_messageEntries@CCtrlView@@0QBUAFX_MSGMAP_ENTRY@@B 004642d8     nafxcw:viewcore.obj
 0002:00005308       ?messageMap@CView@@1UAFX_MSGMAP@@B 00464308     nafxcw:viewcore.obj
 0002:00005310       ?_messageEntries@CView@@0QBUAFX_MSGMAP_ENTRY@@B 00464310     nafxcw:viewcore.obj
 0002:00005430       ?classCScrollView@CScrollView@@2UCRuntimeClass@@B 00464430     nafxcw:viewscrl.obj
 0002:00005448       ??_C@_0M@DAH@CScrollView?$AA@ 00464448     nafxcw:viewscrl.obj
 0002:00005458       ?sizeDefault@CScrollView@@2UtagSIZE@@B 00464458     nafxcw:viewscrl.obj
 0002:00005460       ?messageMap@CScrollView@@1UAFX_MSGMAP@@B 00464460     nafxcw:viewscrl.obj
 0002:00005468       ?_messageEntries@CScrollView@@0QBUAFX_MSGMAP_ENTRY@@B 00464468     nafxcw:viewscrl.obj
 0002:000054e0       ??_C@_06FPAF@MouseZ?$AA@   004644e0     nafxcw:viewscrl.obj
 0002:000054e8       ??_C@_0BB@NAAD@Magellan?5MSWHEEL?$AA@ 004644e8     nafxcw:viewscrl.obj
 0002:000054fc       ??_C@_0BB@IMJB@WheelScrollLines?$AA@ 004644fc     nafxcw:viewscrl.obj
 0002:00005510       ??_C@_0BG@EBPD@Control?5Panel?2Desktop?$AA@ 00464510     nafxcw:viewscrl.obj
 0002:00005528       ??_C@_0BF@ODOJ@MSH_SCROLL_LINES_MSG?$AA@ 00464528     nafxcw:viewscrl.obj
 0002:00005544       ??_7CScrollView@@6B@       00464544     nafxcw:viewscrl.obj
 0002:00005650       ?classCFileDialog@CFileDialog@@2UCRuntimeClass@@B 00464650     nafxcw:dlgfile.obj
 0002:00005668       ??_C@_0M@JEJA@CFileDialog?$AA@ 00464668     nafxcw:dlgfile.obj
 0002:00005678       ??_7CFileDialog@@6B@       00464678     nafxcw:dlgfile.obj
 0002:00005768       ?classCObject@CObject@@2UCRuntimeClass@@B 00464768     nafxcw:objcore.obj
 0002:00005780       ??_C@_07EFMO@CObject?$AA@  00464780     nafxcw:objcore.obj
 0002:00005788       ?classCNotSupportedException@CNotSupportedException@@2UCRuntimeClass@@B 00464788     nafxcw:except.obj
 0002:000057a0       ??_C@_0BH@JODH@CNotSupportedException?$AA@ 004647a0     nafxcw:except.obj
 0002:000057b8       ?classCMemoryException@CMemoryException@@2UCRuntimeClass@@B 004647b8     nafxcw:except.obj
 0002:000057d0       ??_C@_0BB@NODM@CMemoryException?$AA@ 004647d0     nafxcw:except.obj
 0002:000057e8       ?classCException@CException@@2UCRuntimeClass@@B 004647e8     nafxcw:except.obj
 0002:00005800       ??_C@_0L@CMNH@CException?$AA@ 00464800     nafxcw:except.obj
 0002:00005810       ??_7CMemoryException@@6B@  00464810     nafxcw:except.obj
 0002:00005828       ??_7CNotSupportedException@@6B@ 00464828     nafxcw:except.obj
 0002:00005840       ?classCTempImageList@CTempImageList@@2UCRuntimeClass@@B 00464840     nafxcw:winctrl2.obj
 0002:00005858       ??_C@_0P@OCOD@CTempImageList?$AA@ 00464858     nafxcw:winctrl2.obj
 0002:00005868       ?classCImageList@CImageList@@2UCRuntimeClass@@B 00464868     nafxcw:winctrl2.obj
 0002:00005880       ??_C@_0L@HBAH@CImageList?$AA@ 00464880     nafxcw:winctrl2.obj
 0002:00005890       ?classCListCtrl@CListCtrl@@2UCRuntimeClass@@B 00464890     nafxcw:winctrl2.obj
 0002:000058a8       ??_C@_09IAHO@CListCtrl?$AA@ 004648a8     nafxcw:winctrl2.obj
 0002:000058b8       ?classCTabCtrl@CTabCtrl@@2UCRuntimeClass@@B 004648b8     nafxcw:winctrl2.obj
 0002:000058d0       ??_C@_08IFFI@CTabCtrl?$AA@ 004648d0     nafxcw:winctrl2.obj
 0002:000058e0       ?classCHeaderCtrl@CHeaderCtrl@@2UCRuntimeClass@@B 004648e0     nafxcw:winctrl2.obj
 0002:000058f8       ??_C@_0M@HNGK@CHeaderCtrl?$AA@ 004648f8     nafxcw:winctrl2.obj
 0002:00005908       ?classCProgressCtrl@CProgressCtrl@@2UCRuntimeClass@@B 00464908     nafxcw:winctrl2.obj
 0002:00005920       ??_C@_0O@ECFI@CProgressCtrl?$AA@ 00464920     nafxcw:winctrl2.obj
 0002:00005930       ?messageMap@CTabCtrl@@1UAFX_MSGMAP@@B 00464930     nafxcw:winctrl2.obj
 0002:00005938       ?_messageEntries@CTabCtrl@@0QBUAFX_MSGMAP_ENTRY@@B 00464938     nafxcw:winctrl2.obj
 0002:00005968       ?messageMap@CListCtrl@@1UAFX_MSGMAP@@B 00464968     nafxcw:winctrl2.obj
 0002:00005970       ?_messageEntries@CListCtrl@@0QBUAFX_MSGMAP_ENTRY@@B 00464970     nafxcw:winctrl2.obj
 0002:000059a0       ??_C@_0BA@PLIN@ToolbarWindow32?$AA@ 004649a0     nafxcw:winctrl2.obj
 0002:000059b0       ??_C@_0BD@BJDK@msctls_statusbar32?$AA@ 004649b0     nafxcw:winctrl2.obj
 0002:000059c4       ??_C@_0O@NFAI@SysListView32?$AA@ 004649c4     nafxcw:winctrl2.obj
 0002:000059d8       ??_7CListCtrl@@6B@         004649d8     nafxcw:winctrl2.obj
 0002:00005a94       ??_C@_0BC@DLJF@msctls_progress32?$AA@ 00464a94     nafxcw:winctrl2.obj
 0002:00005aac       ??_7CProgressCtrl@@6B@     00464aac     nafxcw:winctrl2.obj
 0002:00005b68       ??_7CHeaderCtrl@@6B@       00464b68     nafxcw:winctrl2.obj
 0002:00005c28       ??_7CTabCtrl@@6B@          00464c28     nafxcw:winctrl2.obj
 0002:00005ce8       ??_7CImageList@@6B@        00464ce8     nafxcw:winctrl2.obj
 0002:00005cf8       ??_7CTempImageList@@6B@    00464cf8     nafxcw:winctrl2.obj
 0002:00005d08       ?classCStatusBar@CStatusBar@@2UCRuntimeClass@@B 00464d08     nafxcw:barstat.obj
 0002:00005d20       ??_C@_0L@BNMI@CStatusBar?$AA@ 00464d20     nafxcw:barstat.obj
 0002:00005d30       ?messageMap@CStatusBar@@1UAFX_MSGMAP@@B 00464d30     nafxcw:barstat.obj
 0002:00005d38       ?_messageEntries@CStatusBar@@0QBUAFX_MSGMAP_ENTRY@@B 00464d38     nafxcw:barstat.obj
 0002:00005e44       ??_7CStatusBar@@6B@        00464e44     nafxcw:barstat.obj
 0002:00005f2c       ??_7CStatusCmdUI@@6B@      00464f2c     nafxcw:barstat.obj
 0002:00005f40       ?classCToolBar@CToolBar@@2UCRuntimeClass@@B 00464f40     nafxcw:bartool.obj
 0002:00005f58       ??_C@_08NCEL@CToolBar?$AA@ 00464f58     nafxcw:bartool.obj
 0002:00005f68       ?messageMap@CToolBar@@1UAFX_MSGMAP@@B 00464f68     nafxcw:bartool.obj
 0002:00005f70       ?_messageEntries@CToolBar@@0QBUAFX_MSGMAP_ENTRY@@B 00464f70     nafxcw:bartool.obj
 0002:000060a8       ?_afxSysColorMap@@3QBUAFX_COLORMAP@@B 004650a8     nafxcw:bartool.obj
 0002:000060c8       ??_C@_0O@CDEE@DllGetVersion?$AA@ 004650c8     nafxcw:bartool.obj
 0002:000060d8       ??_C@_07GEJO@Marlett?$AA@  004650d8     nafxcw:bartool.obj
 0002:000060e4       ??_7CToolBar@@6B@          004650e4     nafxcw:bartool.obj
 0002:000061cc       ??_7CToolCmdUI@@6B@        004651cc     nafxcw:bartool.obj
 0002:000061e0       ?classCFileFind@CFileFind@@2UCRuntimeClass@@B 004651e0     nafxcw:filefind.obj
 0002:000061f8       ??_C@_09CGCC@CFileFind?$AA@ 004651f8     nafxcw:filefind.obj
 0002:00006208       ??_7CFileFind@@6B@         00465208     nafxcw:filefind.obj
 0002:00006254       ??_C@_07LDFI@file?3?1?1?$AA@ 00465254     nafxcw:filefind.obj
 0002:00006260       ?classCTempMenu@CTempMenu@@2UCRuntimeClass@@B 00465260     nafxcw:winmenu.obj
 0002:00006278       ??_C@_09NDEG@CTempMenu?$AA@ 00465278     nafxcw:winmenu.obj
 0002:00006288       ?classCMenu@CMenu@@2UCRuntimeClass@@B 00465288     nafxcw:winmenu.obj
 0002:000062a0       ??_C@_05BJMA@CMenu?$AA@    004652a0     nafxcw:winmenu.obj
 0002:000062ac       ??_7CMenu@@6B@             004652ac     nafxcw:winmenu.obj
 0002:000062c4       ??_7CTempMenu@@6B@         004652c4     nafxcw:winmenu.obj
 0002:000062d8       ?classCWinApp@CWinApp@@2UCRuntimeClass@@B 004652d8     nafxcw:appcore.obj
 0002:000062f0       ??_C@_07DHEF@CWinApp?$AA@  004652f0     nafxcw:appcore.obj
 0002:000062f8       ?messageMap@CWinApp@@1UAFX_MSGMAP@@B 004652f8     nafxcw:appcore.obj
 0002:00006300       ?_messageEntries@CWinApp@@0QBUAFX_MSGMAP_ENTRY@@B 00465300     nafxcw:appcore.obj
 0002:00006360       ?_afxPreviewEntry@@3QBDB   00465360     nafxcw:appcore.obj
 0002:00006370       ?_afxPreviewSection@@3QBDB 00465370     nafxcw:appcore.obj
 0002:00006380       ??_7_AFX_WIN_STATE@@6B@    00465380     nafxcw:appcore.obj
 0002:00006388       ??_7CWinApp@@6B@           00465388     nafxcw:appcore.obj
 0002:00006428       ??_7CCommandLineInfo@@6B@  00465428     nafxcw:appcore.obj
 0002:00006438       ??_C@_0L@POJA@Automation?$AA@ 00465438     nafxcw:appcore.obj
 0002:00006444       ??_C@_09LHIP@Embedding?$AA@ 00465444     nafxcw:appcore.obj
 0002:00006450       ??_C@_03FNJD@dde?$AA@      00465450     nafxcw:appcore.obj
 0002:00006454       ??_C@_0M@HIDL@Unregserver?$AA@ 00465454     nafxcw:appcore.obj
 0002:00006460       ??_C@_0L@MNBE@Unregister?$AA@ 00465460     nafxcw:appcore.obj
 0002:0000646c       ??_C@_01FOFA@p?$AA@        0046546c     nafxcw:appcore.obj
 0002:00006470       ??_C@_02OBFC@pt?$AA@       00465470     nafxcw:appcore.obj
 0002:00006478       ?classCWinThread@CWinThread@@2UCRuntimeClass@@B 00465478     nafxcw:thrdcore.obj
 0002:00006490       ??_C@_0L@BKIL@CWinThread?$AA@ 00465490     nafxcw:thrdcore.obj
 0002:000064a0       ??_7CWinThread@@6B@        004654a0     nafxcw:thrdcore.obj
 0002:00006520       ??_7_AFX_CTL3D_THREAD@@6B@ 00465520     nafxcw:thrdcore.obj
 0002:00006524       ??_C@_09DAOK@Software?2?$AA@ 00465524     nafxcw:appui2.obj
 0002:00006530       ?classCSingleDocTemplate@CSingleDocTemplate@@2UCRuntimeClass@@B 00465530     nafxcw:docsingl.obj
 0002:00006548       ??_C@_0BD@BIBJ@CSingleDocTemplate?$AA@ 00465548     nafxcw:docsingl.obj
 0002:00006560       ??_7CSingleDocTemplate@@6B@ 00465560     nafxcw:docsingl.obj
 0002:000065f0       ??_7COccManager@@6B@       004655f0     nafxcw:occmgr.obj
 0002:00006618       ?classCDocument@CDocument@@2UCRuntimeClass@@B 00465618     nafxcw:doccore.obj
 0002:00006630       ??_C@_09IIIN@CDocument?$AA@ 00465630     nafxcw:doccore.obj
 0002:00006640       ?messageMap@CDocument@@1UAFX_MSGMAP@@B 00465640     nafxcw:doccore.obj
 0002:00006648       ?_messageEntries@CDocument@@0QBUAFX_MSGMAP_ENTRY@@B 00465648     nafxcw:doccore.obj
 0002:000066a8       ??_C@_06LMKP@?5?$CD?$CF?$DL?1?2?$AA@ 004656a8     nafxcw:doccore.obj
 0002:000066b0       ??_C@_03IIHA@MFC?$AA@      004656b0     nafxcw:doccore.obj
 0002:000066b4       ??_C@_0M@JIL@ReplaceFile?$AA@ 004656b4     nafxcw:doccore.obj
 0002:000066c0       ??_C@_08OBID@KERNEL32?$AA@ 004656c0     nafxcw:doccore.obj
 0002:000066d0       ??_7CMirrorFile@@6B@       004656d0     nafxcw:doccore.obj
 0002:00006728       ?classCListView@CListView@@2UCRuntimeClass@@B 00465728     nafxcw:viewcmn.obj
 0002:00006740       ??_C@_09MHFL@CListView?$AA@ 00465740     nafxcw:viewcmn.obj
 0002:00006750       ?messageMap@CListView@@1UAFX_MSGMAP@@B 00465750     nafxcw:viewcmn.obj
 0002:00006758       ?_messageEntries@CListView@@0QBUAFX_MSGMAP_ENTRY@@B 00465758     nafxcw:viewcmn.obj
 0002:0000678c       ??_7CListView@@6B@         0046578c     nafxcw:viewcmn.obj
 0002:00006898       ?classCControlBar@CControlBar@@2UCRuntimeClass@@B 00465898     nafxcw:winfrm.obj
 0002:000068b0       ??_C@_0M@GCON@CControlBar?$AA@ 004658b0     nafxcw:winfrm.obj
 0002:000068c0       ?classCView@CView@@2UCRuntimeClass@@B 004658c0     nafxcw:winfrm.obj
 0002:000068d8       ??_C@_05KON@CView?$AA@     004658d8     nafxcw:winfrm.obj
 0002:000068e0       ?classCFrameWnd@CFrameWnd@@2UCRuntimeClass@@B 004658e0     nafxcw:winfrm.obj
 0002:000068f8       ??_C@_09HNKJ@CFrameWnd?$AA@ 004658f8     nafxcw:winfrm.obj
 0002:00006908       ?messageMap@CFrameWnd@@1UAFX_MSGMAP@@B 00465908     nafxcw:winfrm.obj
 0002:00006910       ?_messageEntries@CFrameWnd@@0QBUAFX_MSGMAP_ENTRY@@B 00465910     nafxcw:winfrm.obj
 0002:00006d78       ??_C@_0BA@CLBL@MSWHEEL_ROLLMSG?$AA@ 00465d78     nafxcw:winfrm.obj
 0002:00006d8c       ??_7CFrameWnd@@6B@         00465d8c     nafxcw:winfrm.obj
 0002:00006e80       ??_C@_03DMDD@?5?9?5?$AA@   00465e80     nafxcw:winfrm.obj
 0002:00006e84       ??_C@_03JDAJ@?3?$CFd?$AA@  00465e84     nafxcw:winfrm.obj
 0002:00006e88       ?messageMap@CControlBar@@1UAFX_MSGMAP@@B 00465e88     nafxcw:barcore.obj
 0002:00006e90       ?_messageEntries@CControlBar@@0QBUAFX_MSGMAP_ENTRY@@B 00465e90     nafxcw:barcore.obj
 0002:00007040       ??_C@_08PKA@combobox?$AA@  00466040     nafxcw:winutil.obj
 0002:0000704c       ??_C@_06NILE@System?$AA@   0046604c     nafxcw:dlgtempl.obj
 0002:00007058       ??_7CThreadData@@6B@       00466058     nafxcw:afxtls.obj
 0002:00007060       ??_7CHandleMap@@6B@        00466060     nafxcw:winhand.obj
 0002:00007068       ?classCMapPtrToPtr@CMapPtrToPtr@@2UCRuntimeClass@@B 00466068     nafxcw:map_pp.obj
 0002:00007080       ??_C@_0N@EGND@CMapPtrToPtr?$AA@ 00466080     nafxcw:map_pp.obj
 0002:00007094       ??_7CMapPtrToPtr@@6B@      00466094     nafxcw:map_pp.obj
 0002:000070a0       ?classCPtrList@CPtrList@@2UCRuntimeClass@@B 004660a0     nafxcw:list_p.obj
 0002:000070b8       ??_C@_08DEKG@CPtrList?$AA@ 004660b8     nafxcw:list_p.obj
 0002:000070c8       ??_7CPtrList@@6B@          004660c8     nafxcw:list_p.obj
 0002:000070d8       ?classCMapStringToPtr@CMapStringToPtr@@2UCRuntimeClass@@B 004660d8     nafxcw:map_sp.obj
 0002:000070f0       ??_C@_0BA@PAMN@CMapStringToPtr?$AA@ 004660f0     nafxcw:map_sp.obj
 0002:00007104       ??_7CMapStringToPtr@@6B@   00466104     nafxcw:map_sp.obj
 0002:00007110       ?classCFileException@CFileException@@2UCRuntimeClass@@B 00466110     nafxcw:filex.obj
 0002:00007128       ??_C@_0P@HFKI@CFileException?$AA@ 00466128     nafxcw:filex.obj
 0002:00007138       ??_C@_04CLNG@?4INI?$AA@    00466138     nafxcw:appinit.obj
 0002:00007140       ??_C@_04DMK@?4HLP?$AA@     00466140     nafxcw:appinit.obj
 0002:00007148       ?messageMap@CCommonDialog@@1UAFX_MSGMAP@@B 00466148     nafxcw:dlgcomm.obj
 0002:00007150       ?_messageEntries@CCommonDialog@@0QBUAFX_MSGMAP_ENTRY@@B 00466150     nafxcw:dlgcomm.obj
 0002:00007180       ??_C@_0BE@PMME@commdlg_SetRGBColor?$AA@ 00466180     nafxcw:dlgcomm.obj
 0002:00007194       ??_C@_0N@IIFK@commdlg_help?$AA@ 00466194     nafxcw:dlgcomm.obj
 0002:000071a4       ??_C@_0BA@DHJO@commdlg_ColorOK?$AA@ 004661a4     nafxcw:dlgcomm.obj
 0002:000071b4       ??_C@_0BD@HNAP@commdlg_FileNameOK?$AA@ 004661b4     nafxcw:dlgcomm.obj
 0002:000071c8       ??_C@_0BH@KPHM@commdlg_ShareViolation?$AA@ 004661c8     nafxcw:dlgcomm.obj
 0002:000071e0       ??_C@_0BL@ODDK@commdlg_LBSelChangedNotify?$AA@ 004661e0     nafxcw:dlgcomm.obj
 0002:00007200       ?classCArchiveException@CArchiveException@@2UCRuntimeClass@@B 00466200     nafxcw:arcex.obj
 0002:00007218       ??_C@_0BC@BIF@CArchiveException?$AA@ 00466218     nafxcw:arcex.obj
 0002:00007230       ??_7CArchiveException@@6B@ 00466230     nafxcw:arcex.obj
 0002:00007248       ??_7CArchiveStream@@6B@    00466248     nafxcw:arcstrm.obj
 0002:00007280       ??_C@_08LLFG@software?$AA@ 00466280     nafxcw:appui3.obj
 0002:00007290       ?classCDocManager@CDocManager@@2UCRuntimeClass@@B 00466290     nafxcw:docmgr.obj
 0002:000072a8       ??_C@_0M@FJOK@CDocManager?$AA@ 004662a8     nafxcw:docmgr.obj
 0002:000072b8       ?messageMap@CNewTypeDlg@@1UAFX_MSGMAP@@B 004662b8     nafxcw:docmgr.obj
 0002:000072c0       ?_messageEntries@CNewTypeDlg@@0QBUAFX_MSGMAP_ENTRY@@B 004662c0     nafxcw:docmgr.obj
 0002:000072f0       ?_afxShellNewValue@@3QBDB  004662f0     nafxcw:docmgr.obj
 0002:000072f4       ?_afxShellNewValueName@@3QBDB 004662f4     nafxcw:docmgr.obj
 0002:00007300       ?_afxDDEPrintTo@@3QBDB     00466300     nafxcw:docmgr.obj
 0002:00007320       ?_afxDDEPrint@@3QBDB       00466320     nafxcw:docmgr.obj
 0002:00007330       ?_afxDDEOpen@@3QBDB        00466330     nafxcw:docmgr.obj
 0002:00007340       ?_afxDDEExec@@3QBDB        00466340     nafxcw:docmgr.obj
 0002:00007348       ?_afxDDEArg@@3QBDB         00466348     nafxcw:docmgr.obj
 0002:00007350       ?_afxPrintToArg@@3QBDB     00466350     nafxcw:docmgr.obj
 0002:0000736c       ?_afxPrintArg@@3QBDB       0046636c     nafxcw:docmgr.obj
 0002:00007378       ?_afxOpenArg@@3QBDB        00466378     nafxcw:docmgr.obj
 0002:00007380       ?_afxCommand@@3QBDB        00466380     nafxcw:docmgr.obj
 0002:00007388       ?_afxIconIndexFmt@@3QBDB   00466388     nafxcw:docmgr.obj
 0002:0000738c       ?_afxShellNewFmt@@3QBDB    0046638c     nafxcw:docmgr.obj
 0002:00007398       ?_afxDefaultIconFmt@@3QBDB 00466398     nafxcw:docmgr.obj
 0002:000073a8       ?_afxShellPrintToFmt@@3QBDB 004663a8     nafxcw:docmgr.obj
 0002:000073bc       ?_afxShellPrintFmt@@3QBDB  004663bc     nafxcw:docmgr.obj
 0002:000073d0       ?_afxShellOpenFmt@@3QBDB   004663d0     nafxcw:docmgr.obj
 0002:000073e8       ??_7CDocManager@@6B@       004663e8     nafxcw:docmgr.obj
 0002:00007424       ??_C@_03NLJK@?$CC?0?$CC?$AA@ 00466424     nafxcw:docmgr.obj
 0002:00007428       ??_C@_0L@BPHG@?$FLprintto?$CI?$CC?$AA@ 00466428     nafxcw:docmgr.obj
 0002:00007434       ??_C@_08ENEP@?$FLprint?$CI?$CC?$AA@ 00466434     nafxcw:docmgr.obj
 0002:00007440       ??_C@_07EPEO@?$FLopen?$CI?$CC?$AA@ 00466440     nafxcw:docmgr.obj
 0002:0000744c       ??_7CNewTypeDlg@@6B@       0046644c     nafxcw:docmgr.obj
 0002:00007520       ?classCDocTemplate@CDocTemplate@@2UCRuntimeClass@@B 00466520     nafxcw:doctempl.obj
 0002:00007538       ??_C@_0N@BKAE@CDocTemplate?$AA@ 00466538     nafxcw:doctempl.obj
 0002:00007548       ?interfaceMap@CEnumUnknown@@1UAFX_INTERFACEMAP@@B 00466548     nafxcw:occcont.obj
 0002:00007550       ?_interfaceEntries@CEnumUnknown@@0QBUAFX_INTERFACEMAP_ENTRY@@B 00466550     nafxcw:occcont.obj
 0002:00007560       ?dispatchMap@COleControlContainer@@1UAFX_DISPMAP@@B 00466560     nafxcw:occcont.obj
 0002:00007570       ?_dispatchEntries@COleControlContainer@@0QBUAFX_DISPMAP_ENTRY@@B 00466570     nafxcw:occcont.obj
 0002:00007590       ?interfaceMap@COleControlContainer@@1UAFX_INTERFACEMAP@@B 00466590     nafxcw:occcont.obj
 0002:00007598       ?_interfaceEntries@COleControlContainer@@0QBUAFX_INTERFACEMAP_ENTRY@@B 00466598     nafxcw:occcont.obj
 0002:000075b4       ??_7COleControlContainer@@6B@ 004665b4     nafxcw:occcont.obj
 0002:00007648       ??_7XOleContainer@COleControlContainer@@6B@ 00466648     nafxcw:occcont.obj
 0002:00007664       ??_7XOleIPFrame@COleControlContainer@@6B@ 00466664     nafxcw:occcont.obj
 0002:000076a4       ??_7CFont@@6B@             004666a4     nafxcw:occcont.obj
 0002:000076b4       ??_7CEnumUnknown@@6B@      004666b4     nafxcw:occcont.obj
 0002:00007718       _IID_IDataSourceListener   00466718     nafxcw:occsite.obj
 0002:00007728       _IID_IDataSource           00466728     nafxcw:occsite.obj
 0002:00007748       ?_afxAmbients@@3QBU__unnamed@@B 00466748     nafxcw:occsite.obj
 0002:00007788       ?interfaceMap@COleControlSite@@1UAFX_INTERFACEMAP@@B 00466788     nafxcw:occsite.obj
 0002:00007790       ?_interfaceEntries@COleControlSite@@0QBUAFX_INTERFACEMAP_ENTRY@@B 00466790     nafxcw:occsite.obj
 0002:000077d4       ??_7COleControlSite@@6B@   004667d4     nafxcw:occsite.obj
 0002:00007898       ??_7XRowsetNotify@COleControlSite@@6B@ 00466898     nafxcw:occsite.obj
 0002:000078b4       ??_7XNotifyDBEvents@COleControlSite@@6B@ 004668b4     nafxcw:occsite.obj
 0002:000078e0       ??_7XBoundObjectSite@COleControlSite@@6B@ 004668e0     nafxcw:occsite.obj
 0002:000078f4       ??_7XEventSink@COleControlSite@@6B@ 004668f4     nafxcw:occsite.obj
 0002:00007914       ??_7XPropertyNotifySink@COleControlSite@@6B@ 00466914     nafxcw:occsite.obj
 0002:0000792c       ??_7XAmbientProps@COleControlSite@@6B@ 0046692c     nafxcw:occsite.obj
 0002:0000794c       ??_7XOleControlSite@COleControlSite@@6B@ 0046694c     nafxcw:occsite.obj
 0002:00007978       ??_7XOleIPSite@COleControlSite@@6B@ 00466978     nafxcw:occsite.obj
 0002:000079b8       ??_7XOleClientSite@COleControlSite@@6B@ 004669b8     nafxcw:occsite.obj
 0002:000079e0       ??_7CDataSourceControl@@6B@ 004669e0     nafxcw:occsite.obj
 0002:000079f8       __real@8@3ffbccccccccccccd000 004669f8     nafxcw:occsite.obj
 0002:00007a00       ?classCMemFile@CMemFile@@2UCRuntimeClass@@B 00466a00     nafxcw:filemem.obj
 0002:00007a18       ??_C@_08EMMO@CMemFile?$AA@ 00466a18     nafxcw:filemem.obj
 0002:00007a28       ??_7CMemFile@@6B@          00466a28     nafxcw:filemem.obj
 0002:00007a94       ??_7CDockContext@@6B@      00466a94     nafxcw:dockcont.obj
 0002:00007aa0       ?classCOleDispatchException@COleDispatchException@@2UCRuntimeClass@@B 00466aa0     nafxcw:oledisp1.obj
 0002:00007ab8       ??_C@_0BG@OGI@COleDispatchException?$AA@ 00466ab8     nafxcw:oledisp1.obj
 0002:00007ad0       ?_afxRetVal@@3QBIB         00466ad0     nafxcw:oledisp1.obj
 0002:00007b0c       ?_afxByRef@@3QBIB          00466b0c     nafxcw:oledisp1.obj
 0002:00007b48       ?_afxByValue@@3QBIB        00466b48     nafxcw:oledisp1.obj
 0002:00007b88       ??_7COleDispatchException@@6B@ 00466b88     nafxcw:oledisp1.obj
 0002:00007ba0       __real@8@3feec22e450672894800 00466ba0     nafxcw:olevar.obj
 0002:00007ba8       __real@8@00000000000000000000 00466ba8     nafxcw:olevar.obj
 0002:00007bb4       ??_7CEnumArray@@6B@        00466bb4     nafxcw:oleenum.obj
 0002:00007c18       ??_7XEnumVOID@CEnumArray@@6B@ 00466c18     nafxcw:oleenum.obj
 0002:00007c34       ??_C@_0BK@CHHF@RichEdit?5Text?5and?5Objects?$AA@ 00466c34     nafxcw:oleinit.obj
 0002:00007c50       ??_C@_0BB@HIML@Rich?5Text?5Format?$AA@ 00466c50     nafxcw:oleinit.obj
 0002:00007c64       ??_C@_09IKIM@FileNameW?$AA@ 00466c64     nafxcw:oleinit.obj
 0002:00007c70       ??_C@_08NJLM@FileName?$AA@ 00466c70     nafxcw:oleinit.obj
 0002:00007c7c       ??_C@_0BH@FOOO@Link?5Source?5Descriptor?$AA@ 00466c7c     nafxcw:oleinit.obj
 0002:00007c94       ??_C@_0BC@GMEI@Object?5Descriptor?$AA@ 00466c94     nafxcw:oleinit.obj
 0002:00007ca8       ??_C@_0M@KPGD@Link?5Source?$AA@ 00466ca8     nafxcw:oleinit.obj
 0002:00007cb4       ??_C@_0N@LHIH@Embed?5Source?$AA@ 00466cb4     nafxcw:oleinit.obj
 0002:00007cc4       ??_C@_0BA@IEJA@Embedded?5Object?$AA@ 00466cc4     nafxcw:oleinit.obj
 0002:00007cd4       ??_C@_0L@KADP@ObjectLink?$AA@ 00466cd4     nafxcw:oleinit.obj
 0002:00007ce0       ??_C@_09NJ@OwnerLink?$AA@  00466ce0     nafxcw:oleinit.obj
 0002:00007cec       ??_C@_06LLCL@Native?$AA@   00466cec     nafxcw:oleinit.obj
 0002:00007cf4       ??_C@_0M@DLIA@Small?5Fonts?$AA@ 00466cf4     nafxcw:winmini.obj
 0002:00007d00       ??_C@_08OBOD@Terminal?$AA@ 00466d00     nafxcw:winmini.obj
 0002:00007d0c       ?dwDockBarMap@CFrameWnd@@1QAY01$$CBKA 00466d0c     nafxcw:winfrm2.obj
 0002:00007d30       ?classCOleException@COleException@@2UCRuntimeClass@@B 00466d30     nafxcw:olemisc.obj
 0002:00007d48       ??_C@_0O@EEPE@COleException?$AA@ 00466d48     nafxcw:olemisc.obj
 0002:00007d5c       ??_7COleException@@6B@     00466d5c     nafxcw:olemisc.obj
 0002:00007d70       ?interfaceMap@COleMessageFilter@@1UAFX_INTERFACEMAP@@B 00466d70     nafxcw:olemsgf.obj
 0002:00007d78       ?_interfaceEntries@COleMessageFilter@@0QBUAFX_INTERFACEMAP_ENTRY@@B 00466d78     nafxcw:olemsgf.obj
 0002:00007d88       ?_afxSignificantMsgs@@3QBIB 00466d88     nafxcw:olemsgf.obj
 0002:00007dc8       ??_7COleMessageFilter@@6B@ 00466dc8     nafxcw:olemsgf.obj
 0002:00007e34       ??_7XMessageFilter@COleMessageFilter@@6B@ 00466e34     nafxcw:olemsgf.obj
 0002:00007e50       ?classCOleBusyDialog@COleBusyDialog@@2UCRuntimeClass@@B 00466e50     nafxcw:oledlgs2.obj
 0002:00007e68       ??_C@_0P@CLOH@COleBusyDialog?$AA@ 00466e68     nafxcw:oledlgs2.obj
 0002:00007e78       ?classCOleDialog@COleDialog@@2UCRuntimeClass@@B 00466e78     nafxcw:oledlgs2.obj
 0002:00007e90       ??_C@_0L@HMIO@COleDialog?$AA@ 00466e90     nafxcw:oledlgs2.obj
 0002:00007ea0       ??_7COleBusyDialog@@6B@    00466ea0     nafxcw:oledlgs2.obj
 0002:00008304       ??_7_AFX_OLE_STATE@@6B@    00467304     nafxcw:oledata.obj
 0002:00008308       ?classCCJListView@CCJListView@@2UCRuntimeClass@@B 00467308     CJ60StaticLib:CJListView.obj
 0002:00008320       ?messageMap@CCJListView@@1UAFX_MSGMAP@@B 00467320     CJ60StaticLib:CJListView.obj
 0002:00008328       ?_messageEntries@CCJListView@@0QBUAFX_MSGMAP_ENTRY@@B 00467328     CJ60StaticLib:CJListView.obj
 0002:00008388       ??_7CCJListView@@6B@       00467388     CJ60StaticLib:CJListView.obj
 0002:00008498       ?messageMap@CCJListCtrl@@1UAFX_MSGMAP@@B 00467498     CJ60StaticLib:CJListCtrl.obj
 0002:000084a0       ?_messageEntries@CCJListCtrl@@0QBUAFX_MSGMAP_ENTRY@@B 004674a0     CJ60StaticLib:CJListCtrl.obj
 0002:00008518       ??_7CCJListCtrl@@6B@       00467518     CJ60StaticLib:CJListCtrl.obj
 0002:000085d8       ?messageMap@CCJFlatHeaderCtrl@@1UAFX_MSGMAP@@B 004675d8     CJ60StaticLib:CJFlatHeaderCtrl.obj
 0002:000085e0       ?_messageEntries@CCJFlatHeaderCtrl@@0QBUAFX_MSGMAP_ENTRY@@B 004675e0     CJ60StaticLib:CJFlatHeaderCtrl.obj
 0002:00008628       ??_7CCJFlatHeaderCtrl@@6B@ 00467628     CJ60StaticLib:CJFlatHeaderCtrl.obj
 0002:00008718       ??_7type_info@@6B@         00467718     LIBCMT:typinfo.obj
 0002:00008798       ??_C@_07CJME@H?3mm?3ss?$AA@ 00467798     LIBCMT:strftime.obj
 0002:000087a0       ??_C@_0BE@MHI@dddd?0?5MMMM?5dd?0?5yyyy?$AA@ 004677a0     LIBCMT:strftime.obj
 0002:000087b4       ??_C@_06HCAD@M?1d?1yy?$AA@ 004677b4     LIBCMT:strftime.obj
 0002:000087bc       ??_C@_02DBLP@PM?$AA@       004677bc     LIBCMT:strftime.obj
 0002:000087c0       ??_C@_02ENLM@AM?$AA@       004677c0     LIBCMT:strftime.obj
 0002:000087c4       ??_C@_08LIDF@December?$AA@ 004677c4     LIBCMT:strftime.obj
 0002:000087d0       ??_C@_08NJLI@November?$AA@ 004677d0     LIBCMT:strftime.obj
 0002:000087dc       ??_C@_07IAMM@October?$AA@  004677dc     LIBCMT:strftime.obj
 0002:000087e4       ??_C@_09MKGD@September?$AA@ 004677e4     LIBCMT:strftime.obj
 0002:000087f0       ??_C@_06PADP@August?$AA@   004677f0     LIBCMT:strftime.obj
 0002:000087f8       ??_C@_04PIJO@July?$AA@     004677f8     LIBCMT:strftime.obj
 0002:00008800       ??_C@_04ICFP@June?$AA@     00467800     LIBCMT:strftime.obj
 0002:00008808       ??_C@_05JFGC@April?$AA@    00467808     LIBCMT:strftime.obj
 0002:00008810       ??_C@_05FGPD@March?$AA@    00467810     LIBCMT:strftime.obj
 0002:00008818       ??_C@_08PGBA@February?$AA@ 00467818     LIBCMT:strftime.obj
 0002:00008824       ??_C@_07BPKJ@January?$AA@  00467824     LIBCMT:strftime.obj
 0002:0000882c       ??_C@_03PGJO@Dec?$AA@      0046782c     LIBCMT:strftime.obj
 0002:00008830       ??_C@_03PDLM@Nov?$AA@      00467830     LIBCMT:strftime.obj
 0002:00008834       ??_C@_03BLHK@Oct?$AA@      00467834     LIBCMT:strftime.obj
 0002:00008838       ??_C@_03DPFM@Sep?$AA@      00467838     LIBCMT:strftime.obj
 0002:0000883c       ??_C@_03CMCH@Aug?$AA@      0046783c     LIBCMT:strftime.obj
 0002:00008840       ??_C@_03OBKI@Jul?$AA@      00467840     LIBCMT:strftime.obj
 0002:00008844       ??_C@_03LEIG@Jun?$AA@      00467844     LIBCMT:strftime.obj
 0002:00008848       ??_C@_03MGHB@May?$AA@      00467848     LIBCMT:strftime.obj
 0002:0000884c       ??_C@_03MJJM@Apr?$AA@      0046784c     LIBCMT:strftime.obj
 0002:00008850       ??_C@_03GNHA@Mar?$AA@      00467850     LIBCMT:strftime.obj
 0002:00008854       ??_C@_03PICE@Feb?$AA@      00467854     LIBCMT:strftime.obj
 0002:00008858       ??_C@_03IEIF@Jan?$AA@      00467858     LIBCMT:strftime.obj
 0002:0000885c       ??_C@_08FAKH@Saturday?$AA@ 0046785c     LIBCMT:strftime.obj
 0002:00008868       ??_C@_06ONCK@Friday?$AA@   00467868     LIBCMT:strftime.obj
 0002:00008870       ??_C@_08CCFO@Thursday?$AA@ 00467870     LIBCMT:strftime.obj
 0002:0000887c       ??_C@_09PBIN@Wednesday?$AA@ 0046787c     LIBCMT:strftime.obj
 0002:00008888       ??_C@_07BMBC@Tuesday?$AA@  00467888     LIBCMT:strftime.obj
 0002:00008890       ??_C@_06CHLK@Monday?$AA@   00467890     LIBCMT:strftime.obj
 0002:00008898       ??_C@_06OOEM@Sunday?$AA@   00467898     LIBCMT:strftime.obj
 0002:000088a0       ??_C@_03MPKK@Sat?$AA@      004678a0     LIBCMT:strftime.obj
 0002:000088a4       ??_C@_03FINJ@Fri?$AA@      004678a4     LIBCMT:strftime.obj
 0002:000088a8       ??_C@_03HIKC@Thu?$AA@      004678a8     LIBCMT:strftime.obj
 0002:000088ac       ??_C@_03HECK@Wed?$AA@      004678ac     LIBCMT:strftime.obj
 0002:000088b0       ??_C@_03ECCP@Tue?$AA@      004678b0     LIBCMT:strftime.obj
 0002:000088b4       ??_C@_03PIEP@Mon?$AA@      004678b4     LIBCMT:strftime.obj
 0002:000088b8       ??_C@_03FHEP@Sun?$AA@      004678b8     LIBCMT:strftime.obj
 0002:000088bc       ??_C@_03MKGK@a?1p?$AA@     004678bc     LIBCMT:strftime.obj
 0002:000088c0       ??_C@_05BDJK@am?1pm?$AA@   004678c0     LIBCMT:strftime.obj
 0002:00008920       __real@8@3fff8000000000000000 00467920     LIBCMT:floor.obj
 0002:000089a0       __real@8@4015800bf60000000000 004679a0     LIBCMT:testfdiv.obj
 0002:000089a8       __real@8@4014bffffc0000000000 004679a8     LIBCMT:testfdiv.obj
 0002:000089b0       ??_C@_0BK@JEGK@IsProcessorFeaturePresent?$AA@ 004679b0     LIBCMT:testfdiv.obj
 0002:000089cc       ??_C@_05OFLO@e?$CL000?$AA@ 004679cc     LIBCMT:cvt.obj
 0002:000089d4       ??_C@_0BH@PHHF@__GLOBAL_HEAP_SELECTED?$AA@ 004679d4     LIBCMT:heapinit.obj
 0002:000089ec       ??_C@_0BF@BBGL@__MSVCRT_HEAP_SELECT?$AA@ 004679ec     LIBCMT:heapinit.obj
 0002:00008a04       ??_C@_0P@GGKG@runtime?5error?5?$AA@ 00467a04     LIBCMT:crt0msg.obj
 0002:00008a14       ??_C@_0O@DELO@TLOSS?5error?$AN?6?$AA@ 00467a14     LIBCMT:crt0msg.obj
 0002:00008a24       ??_C@_0N@OMLL@SING?5error?$AN?6?$AA@ 00467a24     LIBCMT:crt0msg.obj
 0002:00008a34       ??_C@_0P@OJAK@DOMAIN?5error?$AN?6?$AA@ 00467a34     LIBCMT:crt0msg.obj
 0002:00008a44       ??_C@_0CF@EANP@R6028?$AN?6?9?5unable?5to?5initialize?5he@ 00467a44     LIBCMT:crt0msg.obj
 0002:00008a6c       ??_C@_0DF@ECGN@R6027?$AN?6?9?5not?5enough?5space?5for?5lo@ 00467a6c     LIBCMT:crt0msg.obj
 0002:00008aa4       ??_C@_0DF@FKAC@R6026?$AN?6?9?5not?5enough?5space?5for?5st@ 00467aa4     LIBCMT:crt0msg.obj
 0002:00008adc       ??_C@_0CG@DPMN@R6025?$AN?6?9?5pure?5virtual?5function?5c@ 00467adc     LIBCMT:crt0msg.obj
 0002:00008b04       ??_C@_0DF@CKIP@R6024?$AN?6?9?5not?5enough?5space?5for?5_o@ 00467b04     LIBCMT:crt0msg.obj
 0002:00008b3c       ??_C@_0CJ@GGOE@R6019?$AN?6?9?5unable?5to?5open?5console?5@ 00467b3c     LIBCMT:crt0msg.obj
 0002:00008b68       ??_C@_0CB@LBOB@R6018?$AN?6?9?5unexpected?5heap?5error?$AN?6@ 00467b68     LIBCMT:crt0msg.obj
 0002:00008b8c       ??_C@_0CN@FPEG@R6017?$AN?6?9?5unexpected?5multithread?5@ 00467b8c     LIBCMT:crt0msg.obj
 0002:00008bbc       ??_C@_0CM@OBIC@R6016?$AN?6?9?5not?5enough?5space?5for?5th@ 00467bbc     LIBCMT:crt0msg.obj
 0002:00008be8       ??_C@_0CB@HPAL@?$AN?6abnormal?5program?5termination?$AN?6@ 00467be8     LIBCMT:crt0msg.obj
 0002:00008c0c       ??_C@_0CM@JOOB@R6009?$AN?6?9?5not?5enough?5space?5for?5en@ 00467c0c     LIBCMT:crt0msg.obj
 0002:00008c38       ??_C@_0CK@OIBL@R6008?$AN?6?9?5not?5enough?5space?5for?5ar@ 00467c38     LIBCMT:crt0msg.obj
 0002:00008c64       ??_C@_0CF@LKPB@R6002?$AN?6?9?5floating?5point?5not?5load@ 00467c64     LIBCMT:crt0msg.obj
 0002:00008c8c       ??_C@_0CF@JPDF@Microsoft?5Visual?5C?$CL?$CL?5Runtime?5Lib@ 00467c8c     LIBCMT:crt0msg.obj
 0002:00008cb4       ??_C@_02JJJH@?6?6?$AA@     00467cb4     LIBCMT:crt0msg.obj
 0002:00008cb8       ??_C@_0BK@DEOK@Runtime?5Error?$CB?6?6Program?3?5?$AA@ 00467cb8     LIBCMT:crt0msg.obj
 0002:00008cd4       ??_C@_03NAME@?4?4?4?$AA@   00467cd4     LIBCMT:crt0msg.obj
 0002:00008cd8       ??_C@_0BH@NNCD@?$DMprogram?5name?5unknown?$DO?$AA@ 00467cd8     LIBCMT:crt0msg.obj
 0002:00008cf0       ??_C@_01A@?$AA?$AA@        00467cf0     LIBCMT:a_map.obj
 0002:00008cf4       ??_C@_13A@?$AA?$AA?$AA?$AA@ 00467cf4     LIBCMT:a_map.obj
 0002:00008d10       ___lookuptable             00467d10     LIBCMT:output.obj
 0002:00008d6c       ??_C@_1O@POHA@?$AA?$CI?$AAn?$AAu?$AAl?$AAl?$AA?$CJ?$AA?$AA@ 00467d6c     LIBCMT:output.obj
 0002:00008d7c       ??_C@_06ONKE@?$CInull?$CJ?$AA@ 00467d7c     LIBCMT:output.obj
 0002:00008d94       ___dnames                  00467d94     LIBCMT:timeset.obj
 0002:00008dac       ___mnames                  00467dac     LIBCMT:timeset.obj
 0002:00008dd4       ??_C@_02JHIA@TZ?$AA@       00467dd4     LIBCMT:tzset.obj
 0002:00008dd8       ??_C@_03GAFO@_yn?$AA@      00467dd8     LIBCMT:fpexcept.obj
 0002:00008ddc       ??_C@_03GNLD@_y1?$AA@      00467ddc     LIBCMT:fpexcept.obj
 0002:00008de0       ??_C@_03MHCE@_y0?$AA@      00467de0     LIBCMT:fpexcept.obj
 0002:00008de4       ??_C@_05PAK@frexp?$AA@     00467de4     LIBCMT:fpexcept.obj
 0002:00008dec       ??_C@_04JKCH@fmod?$AA@     00467dec     LIBCMT:fpexcept.obj
 0002:00008df4       ??_C@_06GGHF@_hypot?$AA@   00467df4     LIBCMT:fpexcept.obj
 0002:00008dfc       ??_C@_05JNMC@_cabs?$AA@    00467dfc     LIBCMT:fpexcept.obj
 0002:00008e04       ??_C@_05MEKH@ldexp?$AA@    00467e04     LIBCMT:fpexcept.obj
 0002:00008e0c       ??_C@_04KAOJ@modf?$AA@     00467e0c     LIBCMT:fpexcept.obj
 0002:00008e14       ??_C@_04EHAJ@fabs?$AA@     00467e14     LIBCMT:fpexcept.obj
 0002:00008e1c       ??_C@_05MFBN@floor?$AA@    00467e1c     LIBCMT:fpexcept.obj
 0002:00008e24       ??_C@_04JJMP@ceil?$AA@     00467e24     LIBCMT:fpexcept.obj
 0002:00008e2c       ??_C@_03JLPI@tan?$AA@      00467e2c     LIBCMT:fpexcept.obj
 0002:00008e30       ??_C@_03DLFL@cos?$AA@      00467e30     LIBCMT:fpexcept.obj
 0002:00008e34       ??_C@_03JAMN@sin?$AA@      00467e34     LIBCMT:fpexcept.obj
 0002:00008e38       ??_C@_04LMBE@sqrt?$AA@     00467e38     LIBCMT:fpexcept.obj
 0002:00008e40       ??_C@_05BFPO@atan2?$AA@    00467e40     LIBCMT:fpexcept.obj
 0002:00008e48       ??_C@_04EAGN@atan?$AA@     00467e48     LIBCMT:fpexcept.obj
 0002:00008e50       ??_C@_04OAMO@acos?$AA@     00467e50     LIBCMT:fpexcept.obj
 0002:00008e58       ??_C@_04ELFI@asin?$AA@     00467e58     LIBCMT:fpexcept.obj
 0002:00008e60       ??_C@_04LFAD@tanh?$AA@     00467e60     LIBCMT:fpexcept.obj
 0002:00008e68       ??_C@_04PFKD@cosh?$AA@     00467e68     LIBCMT:fpexcept.obj
 0002:00008e70       ??_C@_04NPAI@sinh?$AA@     00467e70     LIBCMT:fpexcept.obj
 0002:00008e78       ??_C@_05IJHH@log10?$AA@    00467e78     LIBCMT:fpexcept.obj
 0002:00008e80       ??_C@_03BGKD@log?$AA@      00467e80     LIBCMT:fpexcept.obj
 0002:00008e84       ??_C@_03EGFG@pow?$AA@      00467e84     LIBCMT:fpexcept.obj
 0002:00008e88       ??_C@_03CDGJ@exp?$AA@      00467e88     LIBCMT:fpexcept.obj
 0002:00008e8c       ??_C@_0BD@NJFP@GetLastActivePopup?$AA@ 00467e8c     LIBCMT:crtmbox.obj
 0002:00008ea0       ??_C@_0BA@GILI@GetActiveWindow?$AA@ 00467ea0     LIBCMT:crtmbox.obj
 0002:00008eb0       ??_C@_0M@PKCK@MessageBoxA?$AA@ 00467eb0     LIBCMT:crtmbox.obj
 0002:00008ebc       ??_C@_06PAPI@1?$CDQNAN?$AA@ 00467ebc     LIBCMT:x10fout.obj
 0002:00008ec4       ??_C@_05BGNL@1?$CDINF?$AA@ 00467ec4     LIBCMT:x10fout.obj
 0002:00008ecc       ??_C@_05EDPF@1?$CDIND?$AA@ 00467ecc     LIBCMT:x10fout.obj
 0002:00008ed4       ??_C@_06LKFM@1?$CDSNAN?$AA@ 00467ed4     LIBCMT:x10fout.obj
 0002:00008ef8       _mpctcdef                  00467ef8     ctl3d32s:CTL3D.OBJ
 0002:00008fb8       _mpicvSysColor             00467fb8     ctl3d32s:CTL3D.OBJ
 0002:00008fc8       _IID_IDispatch             00467fc8     uuid:oaidl_i.obj
 0002:00008fd8       _IID_IClassFactory         00467fd8     uuid:unknwn_i.obj
 0002:00008fe8       _IID_IUnknown              00467fe8     uuid:unknwn_i.obj
 0002:00008ff8       _IID_IMessageFilter        00467ff8     uuid:objidl_i.obj
 0002:00009008       _IID_IDataObject           00468008     uuid:objidl_i.obj
 0002:00009018       _IID_IPersistStorage       00468018     uuid:objidl_i.obj
 0002:00009028       _IID_IPersistFile          00468028     uuid:objidl_i.obj
 0002:00009038       _IID_IStream               00468038     uuid:objidl_i.obj
 0002:00009048       _IID_ISequentialStream     00468048     uuid:objidl_i.obj
 0002:00009058       _IID_IEnumUnknown          00468058     uuid:objidl_i.obj
 0002:00009068       _IID_IOleInPlaceSite       00468068     uuid:oleidl_i.obj
 0002:00009078       _IID_IOleInPlaceObject     00468078     uuid:oleidl_i.obj
 0002:00009088       _IID_IOleInPlaceFrame      00468088     uuid:oleidl_i.obj
 0002:00009098       _IID_IOleObject            00468098     uuid:oleidl_i.obj
 0002:000090a8       _IID_IOleClientSite        004680a8     uuid:oleidl_i.obj
 0002:000090b8       _IID_IOleContainer         004680b8     uuid:oleidl_i.obj
 0002:000090c8       _IID_IQuickActivate        004680c8     uuid:ocidl_i.obj
 0002:000090d8       _IID_IFontDisp             004680d8     uuid:ocidl_i.obj
 0002:000090e8       _IID_IFont                 004680e8     uuid:ocidl_i.obj
 0002:000090f8       _IID_IPersistStreamInit    004680f8     uuid:ocidl_i.obj
 0002:00009108       _IID_IPersistMemory        00468108     uuid:ocidl_i.obj
 0002:00009118       _IID_IPropertyNotifySink   00468118     uuid:ocidl_i.obj
 0002:00009128       _IID_IOleControlSite       00468128     uuid:ocidl_i.obj
 0002:00009138       _IID_IOleControl           00468138     uuid:ocidl_i.obj
 0002:00009148       _IID_IProvideClassInfo2    00468148     uuid:ocidl_i.obj
 0002:00009158       _IID_IProvideClassInfo     00468158     uuid:ocidl_i.obj
 0002:00009168       _IID_IClassFactory2        00468168     uuid:ocidl_i.obj
 0002:00009178       _IID_IConnectionPointContainer 00468178     uuid:ocidl_i.obj
 0002:00009188       _IID_IAccessor             00468188     uuid:oledbiid.obj
 0002:00009198       _IID_IRowset               00468198     uuid:oledbiid.obj
 0002:000091a8       _IID_IRowsetInfo           004681a8     uuid:oledbiid.obj
 0002:000091b8       _IID_IRowsetLocate         004681b8     uuid:oledbiid.obj
 0002:000091c8       _IID_IRowsetResynch        004681c8     uuid:oledbiid.obj
 0002:000091d8       _IID_IRowsetScroll         004681d8     uuid:oledbiid.obj
 0002:000091e8       _IID_IChapteredRowset      004681e8     uuid:oledbiid.obj
 0002:000091f8       _IID_IRowsetFind           004681f8     uuid:oledbiid.obj
 0002:00009208       _IID_IRowPosition          00468208     uuid:oledbiid.obj
 0002:00009218       _IID_IRowPositionChange    00468218     uuid:oledbiid.obj
 0002:00009228       _IID_IViewRowset           00468228     uuid:oledbiid.obj
 0002:00009238       _IID_IViewChapter          00468238     uuid:oledbiid.obj
 0002:00009248       _IID_IViewSort             00468248     uuid:oledbiid.obj
 0002:00009258       _IID_IViewFilter           00468258     uuid:oledbiid.obj
 0002:00009268       _IID_IRowsetView           00468268     uuid:oledbiid.obj
 0002:00009278       _IID_IRowsetExactScroll    00468278     uuid:oledbiid.obj
 0002:00009288       _IID_IRowsetChange         00468288     uuid:oledbiid.obj
 0002:00009298       _IID_IRowsetUpdate         00468298     uuid:oledbiid.obj
 0002:000092a8       _IID_IRowsetIdentity       004682a8     uuid:oledbiid.obj
 0002:000092b8       _IID_IRowsetNotify         004682b8     uuid:oledbiid.obj
 0002:000092c8       _IID_IRowsetIndex          004682c8     uuid:oledbiid.obj
 0002:000092d8       _IID_ICommand              004682d8     uuid:oledbiid.obj
 0002:000092e8       _IID_IMultipleResults      004682e8     uuid:oledbiid.obj
 0002:000092f8       _IID_IConvertType          004682f8     uuid:oledbiid.obj
 0002:00009308       _IID_ICommandPrepare       00468308     uuid:oledbiid.obj
 0002:00009318       _IID_ICommandProperties    00468318     uuid:oledbiid.obj
 0002:00009328       _IID_ICommandText          00468328     uuid:oledbiid.obj
 0002:00009338       _IID_ICommandWithParameters 00468338     uuid:oledbiid.obj
 0002:00009348       _IID_IColumnsRowset        00468348     uuid:oledbiid.obj
 0002:00009358       _IID_IColumnsInfo          00468358     uuid:oledbiid.obj
 0002:00009368       _IID_IDBCreateCommand      00468368     uuid:oledbiid.obj
 0002:00009378       _IID_IDBCreateSession      00468378     uuid:oledbiid.obj
 0002:00009388       _IID_ISourcesRowset        00468388     uuid:oledbiid.obj
 0002:00009398       _IID_IDBProperties         00468398     uuid:oledbiid.obj
 0002:000093a8       _IID_IDBInitialize         004683a8     uuid:oledbiid.obj
 0002:000093b8       _IID_IDBInfo               004683b8     uuid:oledbiid.obj
 0002:000093c8       _IID_IDBDataSourceAdmin    004683c8     uuid:oledbiid.obj
 0002:000093d8       _IID_IDBAsynchNotify       004683d8     uuid:oledbiid.obj
 0002:000093e8       _IID_IDBAsynchStatus       004683e8     uuid:oledbiid.obj
 0002:000093f8       _IID_ISessionProperties    004683f8     uuid:oledbiid.obj
 0002:00009408       _IID_IIndexDefinition      00468408     uuid:oledbiid.obj
 0002:00009418       _IID_ITableDefinition      00468418     uuid:oledbiid.obj
 0002:00009428       _IID_IOpenRowset           00468428     uuid:oledbiid.obj
 0002:00009438       _IID_IDBSchemaRowset       00468438     uuid:oledbiid.obj
 0002:00009448       _IID_IMDDataset            00468448     uuid:oledbiid.obj
 0002:00009458       _IID_IMDFind               00468458     uuid:oledbiid.obj
 0002:00009468       _IID_IMDRangeRowset        00468468     uuid:oledbiid.obj
 0002:00009478       _IID_IAlterTable           00468478     uuid:oledbiid.obj
 0002:00009488       _IID_IAlterIndex           00468488     uuid:oledbiid.obj
 0002:00009498       _IID_IRowsetChapterMember  00468498     uuid:oledbiid.obj
 0002:000094a8       _IID_ICommandPersist       004684a8     uuid:oledbiid.obj
 0002:000094b8       _IID_IRowsetRefresh        004684b8     uuid:oledbiid.obj
 0002:000094c8       _IID_IParentRowset         004684c8     uuid:oledbiid.obj
 0002:000094d8       _IID_IErrorRecords         004684d8     uuid:oledbiid.obj
 0002:000094e8       _IID_IErrorLookup          004684e8     uuid:oledbiid.obj
 0002:000094f8       _IID_ISQLErrorInfo         004684f8     uuid:oledbiid.obj
 0002:00009508       _IID_IGetDataSource        00468508     uuid:oledbiid.obj
 0002:00009518       _IID_ITransactionLocal     00468518     uuid:oledbiid.obj
 0002:00009528       _IID_ITransactionJoin      00468528     uuid:oledbiid.obj
 0002:00009538       _IID_ITransactionObject    00468538     uuid:oledbiid.obj
 0002:00009548       _IID_ITrusteeAdmin         00468548     uuid:oledbiid.obj
 0002:00009558       _IID_ITrusteeGroupAdmin    00468558     uuid:oledbiid.obj
 0002:00009568       _IID_IObjectAccessControl  00468568     uuid:oledbiid.obj
 0002:00009578       _IID_ISecurityInfo         00468578     uuid:oledbiid.obj
 0002:00009588       _IID_ITableCreation        00468588     uuid:oledbiid.obj
 0002:00009598       _IID_ITableDefinitionWithConstraints 00468598     uuid:oledbiid.obj
 0002:000095a8       _IID_IRow                  004685a8     uuid:oledbiid.obj
 0002:000095b8       _IID_IRowChange            004685b8     uuid:oledbiid.obj
 0002:000095c8       _IID_IRowSchemaChange      004685c8     uuid:oledbiid.obj
 0002:000095d8       _IID_IGetRow               004685d8     uuid:oledbiid.obj
 0002:000095e8       _IID_IBindResource         004685e8     uuid:oledbiid.obj
 0002:000095f8       _IID_IScopedOperations     004685f8     uuid:oledbiid.obj
 0002:00009608       _IID_ICreateRow            00468608     uuid:oledbiid.obj
 0002:00009618       _IID_IDBBinderProperties   00468618     uuid:oledbiid.obj
 0002:00009628       _IID_IColumnsInfo2         00468628     uuid:oledbiid.obj
 0002:00009638       _IID_IRegisterProvider     00468638     uuid:oledbiid.obj
 0002:00009648       _IID_IGetSession           00468648     uuid:oledbiid.obj
 0002:00009658       _IID_IGetSourceRow         00468658     uuid:oledbiid.obj
 0002:00009668       _IID_IRowsetCurrentIndex   00468668     uuid:oledbiid.obj
 0002:00009678       _IID_ICommandStream        00468678     uuid:oledbiid.obj
 0002:00009688       _IID_IRowsetBookmark       00468688     uuid:oledbiid.obj
 0002:00009698       _IID_IBoundObjectSite      00468698     uuid:cguid_i.obj
 0002:000096a8       _IID_IBoundObject          004686a8     uuid:cguid_i.obj
 0002:000096b8       _IID_INotifyDBEvents       004686b8     uuid:cguid_i.obj
 0002:000096c8       _IID_ICursorUpdateARow     004686c8     uuid:cguid_i.obj
 0002:000096d8       _IID_ICursorMove           004686d8     uuid:cguid_i.obj
 0002:000096e8       _IID_ICursor               004686e8     uuid:cguid_i.obj
 0002:000096f8       _GUID_NULL                 004686f8     uuid:cguid_i.obj
 0002:00009708       _DBBMK_CURRENT             00468708     uuid:vcguids.obj
 0002:0000970c       _COLUMN_NAME               0046870c     uuid:vcguids.obj
 0002:00009724       _COLUMN_COLUMNID           00468724     uuid:vcguids.obj
 0002:00009740       ?classCUIntArray@CUIntArray@@2UCRuntimeClass@@B 00468740     nafxcw:array_u.obj
 0002:00009758       ??_C@_0L@OIGA@CUIntArray?$AA@ 00468758     nafxcw:array_u.obj
 0002:00009768       ??_7CUIntArray@@6B@        00468768     nafxcw:array_u.obj
 0002:00009774       ??_C@_0N@FMIP@CStringArray?$AA@ 00468774     nafxcw:array_s.obj
 0002:00009788       ??_7CStringArray@@6B@      00468788     nafxcw:array_s.obj
 0002:00009794       __imp___mbsnbcpy           00468794     <linker-defined>
 0002:00009798       __imp__memmove             00468798     <linker-defined>
 0002:0000979c       __imp__ceil                0046879c     <linker-defined>
 0002:000097a0       __imp__strstr              004687a0     <linker-defined>
 0002:000097a4       __imp___mbscmp             004687a4     <linker-defined>
 0002:000097a8       __imp__vsprintf            004687a8     <linker-defined>
 0002:000097ac       __imp__free                004687ac     <linker-defined>
 0002:000097b0       __imp__malloc              004687b0     <linker-defined>
 0002:000097b4       __imp__atol                004687b4     <linker-defined>
 0002:000097b8       __imp__wcslen              004687b8     <linker-defined>
 0002:000097bc       __imp__wcscpy              004687bc     <linker-defined>
 0002:000097c0       __imp___beginthreadex      004687c0     <linker-defined>
 0002:000097c4       __imp__atoi                004687c4     <linker-defined>
 0002:000097c8       ??_R1A@?0A@A@CObject@@8    004687c8     nafxcw:dlgcore.obj
 0002:000097e0       ??_R1A@?0A@A@CCmdTarget@@8 004687e0     nafxcw:dlgcore.obj
 0002:000097f8       ??_R1A@?0A@A@CWnd@@8       004687f8     nafxcw:dlgcore.obj
 0002:00009810       ??_R1A@?0A@A@CDialog@@8    00468810     nafxcw:dlgcore.obj
 0002:00009828       ??_R2CDialog@@8            00468828     nafxcw:dlgcore.obj
 0002:00009840       ??_R3CDialog@@8            00468840     nafxcw:dlgcore.obj
 0002:00009850       ??_R4CDialog@@6B@          00468850     nafxcw:dlgcore.obj
 0002:00009868       ??_R2CWnd@@8               00468868     nafxcw:wincore.obj
 0002:00009878       ??_R3CWnd@@8               00468878     nafxcw:wincore.obj
 0002:00009888       ??_R4CWnd@@6B@             00468888     nafxcw:wincore.obj
 0002:000098a0       ??_R1A@?0A@A@CCmdUI@@8     004688a0     nafxcw:wincore.obj
 0002:000098b8       ??_R1A@?0A@A@CTestCmdUI@@8 004688b8     nafxcw:wincore.obj
 0002:000098d0       ??_R2CTestCmdUI@@8         004688d0     nafxcw:wincore.obj
 0002:000098e0       ??_R3CTestCmdUI@@8         004688e0     nafxcw:wincore.obj
 0002:000098f0       ??_R4CTestCmdUI@@6B@       004688f0     nafxcw:wincore.obj
 0002:00009908       ??_R1A@?0A@A@CTempWnd@@8   00468908     nafxcw:wincore.obj
 0002:00009920       ??_R2CTempWnd@@8           00468920     nafxcw:wincore.obj
 0002:00009938       ??_R3CTempWnd@@8           00468938     nafxcw:wincore.obj
 0002:00009948       ??_R4CTempWnd@@6B@         00468948     nafxcw:wincore.obj
 0002:00009960       ??_R1A@?0A@A@CNoTrackObject@@8 00468960     nafxcw:wincore.obj
 0002:00009978       ??_R1A@?0A@A@_AFX_CTL3D_STATE@@8 00468978     nafxcw:wincore.obj
 0002:00009990       ??_R2_AFX_CTL3D_STATE@@8   00468990     nafxcw:wincore.obj
 0002:000099a0       ??_R3_AFX_CTL3D_STATE@@8   004689a0     nafxcw:wincore.obj
 0002:000099b0       ??_R4_AFX_CTL3D_STATE@@6B@ 004689b0     nafxcw:wincore.obj
 0002:000099c4       ??_R2CCmdUI@@8             004689c4     nafxcw:cmdtarg.obj
 0002:000099d0       ??_R3CCmdUI@@8             004689d0     nafxcw:cmdtarg.obj
 0002:000099e0       ??_R4CCmdUI@@6B@           004689e0     nafxcw:cmdtarg.obj
 0002:000099f8       ??_R1A@?0A@A@_AFX_THREAD_STATE@@8 004689f8     nafxcw:afxstate.obj
 0002:00009a10       ??_R2_AFX_THREAD_STATE@@8  00468a10     nafxcw:afxstate.obj
 0002:00009a20       ??_R3_AFX_THREAD_STATE@@8  00468a20     nafxcw:afxstate.obj
 0002:00009a30       ??_R4_AFX_THREAD_STATE@@6B@ 00468a30     nafxcw:afxstate.obj
 0002:00009a48       ??_R1A@?0A@A@AFX_MODULE_STATE@@8 00468a48     nafxcw:afxstate.obj
 0002:00009a60       ??_R2AFX_MODULE_STATE@@8   00468a60     nafxcw:afxstate.obj
 0002:00009a70       ??_R3AFX_MODULE_STATE@@8   00468a70     nafxcw:afxstate.obj
 0002:00009a80       ??_R4AFX_MODULE_STATE@@6B@ 00468a80     nafxcw:afxstate.obj
 0002:00009a98       ??_R1A@?0A@A@AFX_MODULE_THREAD_STATE@@8 00468a98     nafxcw:afxstate.obj
 0002:00009ab0       ??_R2AFX_MODULE_THREAD_STATE@@8 00468ab0     nafxcw:afxstate.obj
 0002:00009ac0       ??_R3AFX_MODULE_THREAD_STATE@@8 00468ac0     nafxcw:afxstate.obj
 0002:00009ad0       ??_R4AFX_MODULE_THREAD_STATE@@6B@ 00468ad0     nafxcw:afxstate.obj
 0002:00009ae8       ??_R1A@?0A@A@_AFX_BASE_MODULE_STATE@@8 00468ae8     nafxcw:afxstate.obj
 0002:00009b00       ??_R2_AFX_BASE_MODULE_STATE@@8 00468b00     nafxcw:afxstate.obj
 0002:00009b10       ??_R3_AFX_BASE_MODULE_STATE@@8 00468b10     nafxcw:afxstate.obj
 0002:00009b20       ??_R4_AFX_BASE_MODULE_STATE@@6B@ 00468b20     nafxcw:afxstate.obj
 0002:00009b38       ??_R1A@?0A@A@CDC@@8        00468b38     nafxcw:wingdi.obj
 0002:00009b50       ??_R2CDC@@8                00468b50     nafxcw:wingdi.obj
 0002:00009b60       ??_R3CDC@@8                00468b60     nafxcw:wingdi.obj
 0002:00009b70       ??_R4CDC@@6B@              00468b70     nafxcw:wingdi.obj
 0002:00009b88       ??_R1A@?0A@A@CClientDC@@8  00468b88     nafxcw:wingdi.obj
 0002:00009ba0       ??_R2CClientDC@@8          00468ba0     nafxcw:wingdi.obj
 0002:00009bb0       ??_R3CClientDC@@8          00468bb0     nafxcw:wingdi.obj
 0002:00009bc0       ??_R4CClientDC@@6B@        00468bc0     nafxcw:wingdi.obj
 0002:00009bd8       ??_R1A@?0A@A@CWindowDC@@8  00468bd8     nafxcw:wingdi.obj
 0002:00009bf0       ??_R2CWindowDC@@8          00468bf0     nafxcw:wingdi.obj
 0002:00009c00       ??_R3CWindowDC@@8          00468c00     nafxcw:wingdi.obj
 0002:00009c10       ??_R4CWindowDC@@6B@        00468c10     nafxcw:wingdi.obj
 0002:00009c28       ??_R1A@?0A@A@CPaintDC@@8   00468c28     nafxcw:wingdi.obj
 0002:00009c40       ??_R2CPaintDC@@8           00468c40     nafxcw:wingdi.obj
 0002:00009c50       ??_R3CPaintDC@@8           00468c50     nafxcw:wingdi.obj
 0002:00009c60       ??_R4CPaintDC@@6B@         00468c60     nafxcw:wingdi.obj
 0002:00009c78       ??_R1A@?0A@A@CGdiObject@@8 00468c78     nafxcw:wingdi.obj
 0002:00009c90       ??_R1A@?0A@A@CPen@@8       00468c90     nafxcw:wingdi.obj
 0002:00009ca8       ??_R2CPen@@8               00468ca8     nafxcw:wingdi.obj
 0002:00009cb8       ??_R3CPen@@8               00468cb8     nafxcw:wingdi.obj
 0002:00009cc8       ??_R4CPen@@6B@             00468cc8     nafxcw:wingdi.obj
 0002:00009ce0       ??_R1A@?0A@A@CBrush@@8     00468ce0     nafxcw:wingdi.obj
 0002:00009cf8       ??_R2CBrush@@8             00468cf8     nafxcw:wingdi.obj
 0002:00009d08       ??_R3CBrush@@8             00468d08     nafxcw:wingdi.obj
 0002:00009d18       ??_R4CBrush@@6B@           00468d18     nafxcw:wingdi.obj
 0002:00009d30       ??_R2CGdiObject@@8         00468d30     nafxcw:wingdi.obj
 0002:00009d40       ??_R3CGdiObject@@8         00468d40     nafxcw:wingdi.obj
 0002:00009d50       ??_R4CGdiObject@@6B@       00468d50     nafxcw:wingdi.obj
 0002:00009d68       ??_R1A@?0A@A@CTempDC@@8    00468d68     nafxcw:wingdi.obj
 0002:00009d80       ??_R2CTempDC@@8            00468d80     nafxcw:wingdi.obj
 0002:00009d90       ??_R3CTempDC@@8            00468d90     nafxcw:wingdi.obj
 0002:00009da0       ??_R4CTempDC@@6B@          00468da0     nafxcw:wingdi.obj
 0002:00009db8       ??_R1A@?0A@A@CTempGdiObject@@8 00468db8     nafxcw:wingdi.obj
 0002:00009dd0       ??_R2CTempGdiObject@@8     00468dd0     nafxcw:wingdi.obj
 0002:00009de0       ??_R3CTempGdiObject@@8     00468de0     nafxcw:wingdi.obj
 0002:00009df0       ??_R4CTempGdiObject@@6B@   00468df0     nafxcw:wingdi.obj
 0002:00009e08       ??_R1A@?0A@A@CException@@8 00468e08     nafxcw:wingdi.obj
 0002:00009e20       ??_R1A@?0A@A@CSimpleException@@8 00468e20     nafxcw:wingdi.obj
 0002:00009e38       ??_R1A@?0A@A@CResourceException@@8 00468e38     nafxcw:wingdi.obj
 0002:00009e50       ??_R2CResourceException@@8 00468e50     nafxcw:wingdi.obj
 0002:00009e68       ??_R3CResourceException@@8 00468e68     nafxcw:wingdi.obj
 0002:00009e78       ??_R4CResourceException@@6B@ 00468e78     nafxcw:wingdi.obj
 0002:00009e90       ??_R1A@?0A@A@CUserException@@8 00468e90     nafxcw:wingdi.obj
 0002:00009ea8       ??_R2CUserException@@8     00468ea8     nafxcw:wingdi.obj
 0002:00009ec0       ??_R3CUserException@@8     00468ec0     nafxcw:wingdi.obj
 0002:00009ed0       ??_R4CUserException@@6B@   00468ed0     nafxcw:wingdi.obj
 0002:00009ee8       ??_R1A@?0A@A@CButton@@8    00468ee8     nafxcw:winctrl1.obj
 0002:00009f00       ??_R2CButton@@8            00468f00     nafxcw:winctrl1.obj
 0002:00009f18       ??_R3CButton@@8            00468f18     nafxcw:winctrl1.obj
 0002:00009f28       ??_R4CButton@@6B@          00468f28     nafxcw:winctrl1.obj
 0002:00009f40       ??_R1A@?0A@A@CComboBox@@8  00468f40     nafxcw:winctrl1.obj
 0002:00009f58       ??_R2CComboBox@@8          00468f58     nafxcw:winctrl1.obj
 0002:00009f70       ??_R3CComboBox@@8          00468f70     nafxcw:winctrl1.obj
 0002:00009f80       ??_R4CComboBox@@6B@        00468f80     nafxcw:winctrl1.obj
 0002:00009f98       ??_R1A@?0A@A@CEdit@@8      00468f98     nafxcw:winctrl1.obj
 0002:00009fb0       ??_R2CEdit@@8              00468fb0     nafxcw:winctrl1.obj
 0002:00009fc8       ??_R3CEdit@@8              00468fc8     nafxcw:winctrl1.obj
 0002:00009fd8       ??_R4CEdit@@6B@            00468fd8     nafxcw:winctrl1.obj
 0002:00009ff0       ??_R1A@?0A@A@CToolTipCtrl@@8 00468ff0     nafxcw:tooltip.obj
 0002:0000a008       ??_R2CToolTipCtrl@@8       00469008     nafxcw:tooltip.obj
 0002:0000a020       ??_R3CToolTipCtrl@@8       00469020     nafxcw:tooltip.obj
 0002:0000a030       ??_R4CToolTipCtrl@@6B@     00469030     nafxcw:tooltip.obj
 0002:0000a048       ??_R1A@?0A@A@CRgn@@8       00469048     nafxcw:wingdix.obj
 0002:0000a060       ??_R2CRgn@@8               00469060     nafxcw:wingdix.obj
 0002:0000a070       ??_R3CRgn@@8               00469070     nafxcw:wingdix.obj
 0002:0000a080       ??_R4CRgn@@6B@             00469080     nafxcw:wingdix.obj
 0002:0000a098       ??_R1A@?0A@A@CFile@@8      00469098     nafxcw:filecore.obj
 0002:0000a0b0       ??_R2CFile@@8              004690b0     nafxcw:filecore.obj
 0002:0000a0c0       ??_R3CFile@@8              004690c0     nafxcw:filecore.obj
 0002:0000a0d0       ??_R4CFile@@6B@            004690d0     nafxcw:filecore.obj
 0002:0000a0e8       ??_R1A@?0A@A@CFileException@@8 004690e8     nafxcw:filecore.obj
 0002:0000a100       ??_R2CFileException@@8     00469100     nafxcw:filecore.obj
 0002:0000a110       ??_R3CFileException@@8     00469110     nafxcw:filecore.obj
 0002:0000a120       ??_R4CFileException@@6B@   00469120     nafxcw:filecore.obj
 0002:0000a138       ??_R1A@?0A@A@CView@@8      00469138     nafxcw:viewform.obj
 0002:0000a150       ??_R1A@?0A@A@CScrollView@@8 00469150     nafxcw:viewform.obj
 0002:0000a168       ??_R1A@?0A@A@CFormView@@8  00469168     nafxcw:viewform.obj
 0002:0000a180       ??_R2CFormView@@8          00469180     nafxcw:viewform.obj
 0002:0000a1a0       ??_R3CFormView@@8          004691a0     nafxcw:viewform.obj
 0002:0000a1b0       ??_R4CFormView@@6B@        004691b0     nafxcw:viewform.obj
 0002:0000a1c8       ??_R2CScrollView@@8        004691c8     nafxcw:viewscrl.obj
 0002:0000a1e0       ??_R3CScrollView@@8        004691e0     nafxcw:viewscrl.obj
 0002:0000a1f0       ??_R4CScrollView@@6B@      004691f0     nafxcw:viewscrl.obj
 0002:0000a208       ??_R1A@?0A@A@CCommonDialog@@8 00469208     nafxcw:dlgfile.obj
 0002:0000a220       ??_R1A@?0A@A@CFileDialog@@8 00469220     nafxcw:dlgfile.obj
 0002:0000a238       ??_R2CFileDialog@@8        00469238     nafxcw:dlgfile.obj
 0002:0000a258       ??_R3CFileDialog@@8        00469258     nafxcw:dlgfile.obj
 0002:0000a268       ??_R4CFileDialog@@6B@      00469268     nafxcw:dlgfile.obj
 0002:0000a280       ??_R1A@?0A@A@CMemoryException@@8 00469280     nafxcw:except.obj
 0002:0000a298       ??_R2CMemoryException@@8   00469298     nafxcw:except.obj
 0002:0000a2b0       ??_R3CMemoryException@@8   004692b0     nafxcw:except.obj
 0002:0000a2c0       ??_R4CMemoryException@@6B@ 004692c0     nafxcw:except.obj
 0002:0000a2d8       ??_R1A@?0A@A@CNotSupportedException@@8 004692d8     nafxcw:except.obj
 0002:0000a2f0       ??_R2CNotSupportedException@@8 004692f0     nafxcw:except.obj
 0002:0000a308       ??_R3CNotSupportedException@@8 00469308     nafxcw:except.obj
 0002:0000a318       ??_R4CNotSupportedException@@6B@ 00469318     nafxcw:except.obj
 0002:0000a330       ??_R1A@?0A@A@CListCtrl@@8  00469330     nafxcw:winctrl2.obj
 0002:0000a348       ??_R2CListCtrl@@8          00469348     nafxcw:winctrl2.obj
 0002:0000a360       ??_R3CListCtrl@@8          00469360     nafxcw:winctrl2.obj
 0002:0000a370       ??_R4CListCtrl@@6B@        00469370     nafxcw:winctrl2.obj
 0002:0000a388       ??_R1A@?0A@A@CProgressCtrl@@8 00469388     nafxcw:winctrl2.obj
 0002:0000a3a0       ??_R2CProgressCtrl@@8      004693a0     nafxcw:winctrl2.obj
 0002:0000a3b8       ??_R3CProgressCtrl@@8      004693b8     nafxcw:winctrl2.obj
 0002:0000a3c8       ??_R4CProgressCtrl@@6B@    004693c8     nafxcw:winctrl2.obj
 0002:0000a3e0       ??_R1A@?0A@A@CHeaderCtrl@@8 004693e0     nafxcw:winctrl2.obj
 0002:0000a3f8       ??_R2CHeaderCtrl@@8        004693f8     nafxcw:winctrl2.obj
 0002:0000a410       ??_R3CHeaderCtrl@@8        00469410     nafxcw:winctrl2.obj
 0002:0000a420       ??_R4CHeaderCtrl@@6B@      00469420     nafxcw:winctrl2.obj
 0002:0000a438       ??_R1A@?0A@A@CTabCtrl@@8   00469438     nafxcw:winctrl2.obj
 0002:0000a450       ??_R2CTabCtrl@@8           00469450     nafxcw:winctrl2.obj
 0002:0000a468       ??_R3CTabCtrl@@8           00469468     nafxcw:winctrl2.obj
 0002:0000a478       ??_R4CTabCtrl@@6B@         00469478     nafxcw:winctrl2.obj
 0002:0000a490       ??_R1A@?0A@A@CImageList@@8 00469490     nafxcw:winctrl2.obj
 0002:0000a4a8       ??_R2CImageList@@8         004694a8     nafxcw:winctrl2.obj
 0002:0000a4b8       ??_R3CImageList@@8         004694b8     nafxcw:winctrl2.obj
 0002:0000a4c8       ??_R4CImageList@@6B@       004694c8     nafxcw:winctrl2.obj
 0002:0000a4e0       ??_R1A@?0A@A@CTempImageList@@8 004694e0     nafxcw:winctrl2.obj
 0002:0000a4f8       ??_R2CTempImageList@@8     004694f8     nafxcw:winctrl2.obj
 0002:0000a508       ??_R3CTempImageList@@8     00469508     nafxcw:winctrl2.obj
 0002:0000a518       ??_R4CTempImageList@@6B@   00469518     nafxcw:winctrl2.obj
 0002:0000a530       ??_R1A@?0A@A@CControlBar@@8 00469530     nafxcw:barstat.obj
 0002:0000a548       ??_R1A@?0A@A@CStatusBar@@8 00469548     nafxcw:barstat.obj
 0002:0000a560       ??_R2CStatusBar@@8         00469560     nafxcw:barstat.obj
 0002:0000a578       ??_R3CStatusBar@@8         00469578     nafxcw:barstat.obj
 0002:0000a588       ??_R4CStatusBar@@6B@       00469588     nafxcw:barstat.obj
 0002:0000a5a0       ??_R1A@?0A@A@CStatusCmdUI@@8 004695a0     nafxcw:barstat.obj
 0002:0000a5b8       ??_R2CStatusCmdUI@@8       004695b8     nafxcw:barstat.obj
 0002:0000a5c8       ??_R3CStatusCmdUI@@8       004695c8     nafxcw:barstat.obj
 0002:0000a5d8       ??_R4CStatusCmdUI@@6B@     004695d8     nafxcw:barstat.obj
 0002:0000a5f0       ??_R1A@?0A@A@CToolBar@@8   004695f0     nafxcw:bartool.obj
 0002:0000a608       ??_R2CToolBar@@8           00469608     nafxcw:bartool.obj
 0002:0000a620       ??_R3CToolBar@@8           00469620     nafxcw:bartool.obj
 0002:0000a630       ??_R4CToolBar@@6B@         00469630     nafxcw:bartool.obj
 0002:0000a648       ??_R1A@?0A@A@CToolCmdUI@@8 00469648     nafxcw:bartool.obj
 0002:0000a660       ??_R2CToolCmdUI@@8         00469660     nafxcw:bartool.obj
 0002:0000a670       ??_R3CToolCmdUI@@8         00469670     nafxcw:bartool.obj
 0002:0000a680       ??_R4CToolCmdUI@@6B@       00469680     nafxcw:bartool.obj
 0002:0000a698       ??_R1A@?0A@A@CFileFind@@8  00469698     nafxcw:filefind.obj
 0002:0000a6b0       ??_R2CFileFind@@8          004696b0     nafxcw:filefind.obj
 0002:0000a6c0       ??_R3CFileFind@@8          004696c0     nafxcw:filefind.obj
 0002:0000a6d0       ??_R4CFileFind@@6B@        004696d0     nafxcw:filefind.obj
 0002:0000a6e8       ??_R1A@?0A@A@CMenu@@8      004696e8     nafxcw:winmenu.obj
 0002:0000a700       ??_R2CMenu@@8              00469700     nafxcw:winmenu.obj
 0002:0000a710       ??_R3CMenu@@8              00469710     nafxcw:winmenu.obj
 0002:0000a720       ??_R4CMenu@@6B@            00469720     nafxcw:winmenu.obj
 0002:0000a738       ??_R1A@?0A@A@CTempMenu@@8  00469738     nafxcw:winmenu.obj
 0002:0000a750       ??_R2CTempMenu@@8          00469750     nafxcw:winmenu.obj
 0002:0000a760       ??_R3CTempMenu@@8          00469760     nafxcw:winmenu.obj
 0002:0000a770       ??_R4CTempMenu@@6B@        00469770     nafxcw:winmenu.obj
 0002:0000a788       ??_R1A@?0A@A@_AFX_WIN_STATE@@8 00469788     nafxcw:appcore.obj
 0002:0000a7a0       ??_R2_AFX_WIN_STATE@@8     004697a0     nafxcw:appcore.obj
 0002:0000a7b0       ??_R3_AFX_WIN_STATE@@8     004697b0     nafxcw:appcore.obj
 0002:0000a7c0       ??_R4_AFX_WIN_STATE@@6B@   004697c0     nafxcw:appcore.obj
 0002:0000a7d8       ??_R1A@?0A@A@CWinThread@@8 004697d8     nafxcw:appcore.obj
 0002:0000a7f0       ??_R1A@?0A@A@CWinApp@@8    004697f0     nafxcw:appcore.obj
 0002:0000a808       ??_R2CWinApp@@8            00469808     nafxcw:appcore.obj
 0002:0000a820       ??_R3CWinApp@@8            00469820     nafxcw:appcore.obj
 0002:0000a830       ??_R4CWinApp@@6B@          00469830     nafxcw:appcore.obj
 0002:0000a848       ??_R1A@?0A@A@CCommandLineInfo@@8 00469848     nafxcw:appcore.obj
 0002:0000a860       ??_R2CCommandLineInfo@@8   00469860     nafxcw:appcore.obj
 0002:0000a870       ??_R3CCommandLineInfo@@8   00469870     nafxcw:appcore.obj
 0002:0000a880       ??_R4CCommandLineInfo@@6B@ 00469880     nafxcw:appcore.obj
 0002:0000a898       ??_R2CWinThread@@8         00469898     nafxcw:thrdcore.obj
 0002:0000a8a8       ??_R3CWinThread@@8         004698a8     nafxcw:thrdcore.obj
 0002:0000a8b8       ??_R4CWinThread@@6B@       004698b8     nafxcw:thrdcore.obj
 0002:0000a8d0       ??_R1A@?0A@A@_AFX_CTL3D_THREAD@@8 004698d0     nafxcw:thrdcore.obj
 0002:0000a8e8       ??_R2_AFX_CTL3D_THREAD@@8  004698e8     nafxcw:thrdcore.obj
 0002:0000a8f8       ??_R3_AFX_CTL3D_THREAD@@8  004698f8     nafxcw:thrdcore.obj
 0002:0000a908       ??_R4_AFX_CTL3D_THREAD@@6B@ 00469908     nafxcw:thrdcore.obj
 0002:0000a920       ??_R1A@?0A@A@CDocTemplate@@8 00469920     nafxcw:docsingl.obj
 0002:0000a938       ??_R1A@?0A@A@CSingleDocTemplate@@8 00469938     nafxcw:docsingl.obj
 0002:0000a950       ??_R2CSingleDocTemplate@@8 00469950     nafxcw:docsingl.obj
 0002:0000a968       ??_R3CSingleDocTemplate@@8 00469968     nafxcw:docsingl.obj
 0002:0000a978       ??_R4CSingleDocTemplate@@6B@ 00469978     nafxcw:docsingl.obj
 0002:0000a990       ??_R1A@?0A@A@COccManager@@8 00469990     nafxcw:occmgr.obj
 0002:0000a9a8       ??_R2COccManager@@8        004699a8     nafxcw:occmgr.obj
 0002:0000a9b8       ??_R3COccManager@@8        004699b8     nafxcw:occmgr.obj
 0002:0000a9c8       ??_R4COccManager@@6B@      004699c8     nafxcw:occmgr.obj
 0002:0000a9e0       ??_R1A@?0A@A@CMirrorFile@@8 004699e0     nafxcw:doccore.obj
 0002:0000a9f8       ??_R2CMirrorFile@@8        004699f8     nafxcw:doccore.obj
 0002:0000aa08       ??_R3CMirrorFile@@8        00469a08     nafxcw:doccore.obj
 0002:0000aa18       ??_R4CMirrorFile@@6B@      00469a18     nafxcw:doccore.obj
 0002:0000aa30       ??_R1A@?0A@A@CCtrlView@@8  00469a30     nafxcw:viewcmn.obj
 0002:0000aa48       ??_R1A@?0A@A@CListView@@8  00469a48     nafxcw:viewcmn.obj
 0002:0000aa60       ??_R2CListView@@8          00469a60     nafxcw:viewcmn.obj
 0002:0000aa80       ??_R3CListView@@8          00469a80     nafxcw:viewcmn.obj
 0002:0000aa90       ??_R4CListView@@6B@        00469a90     nafxcw:viewcmn.obj
 0002:0000aaa8       ??_R1A@?0A@A@CFrameWnd@@8  00469aa8     nafxcw:winfrm.obj
 0002:0000aac0       ??_R2CFrameWnd@@8          00469ac0     nafxcw:winfrm.obj
 0002:0000aad8       ??_R3CFrameWnd@@8          00469ad8     nafxcw:winfrm.obj
 0002:0000aae8       ??_R4CFrameWnd@@6B@        00469ae8     nafxcw:winfrm.obj
 0002:0000ab00       ??_R1A@?0A@A@CThreadData@@8 00469b00     nafxcw:afxtls.obj
 0002:0000ab18       ??_R2CThreadData@@8        00469b18     nafxcw:afxtls.obj
 0002:0000ab28       ??_R3CThreadData@@8        00469b28     nafxcw:afxtls.obj
 0002:0000ab38       ??_R4CThreadData@@6B@      00469b38     nafxcw:afxtls.obj
 0002:0000ab50       ??_R1A@?0A@A@CHandleMap@@8 00469b50     nafxcw:winhand.obj
 0002:0000ab68       ??_R2CHandleMap@@8         00469b68     nafxcw:winhand.obj
 0002:0000ab70       ??_R3CHandleMap@@8         00469b70     nafxcw:winhand.obj
 0002:0000ab80       ??_R4CHandleMap@@6B@       00469b80     nafxcw:winhand.obj
 0002:0000ab98       ??_R1A@?0A@A@CMapPtrToPtr@@8 00469b98     nafxcw:map_pp.obj
 0002:0000abb0       ??_R2CMapPtrToPtr@@8       00469bb0     nafxcw:map_pp.obj
 0002:0000abc0       ??_R3CMapPtrToPtr@@8       00469bc0     nafxcw:map_pp.obj
 0002:0000abd0       ??_R4CMapPtrToPtr@@6B@     00469bd0     nafxcw:map_pp.obj
 0002:0000abe8       ??_R1A@?0A@A@CPtrList@@8   00469be8     nafxcw:list_p.obj
 0002:0000ac00       ??_R2CPtrList@@8           00469c00     nafxcw:list_p.obj
 0002:0000ac10       ??_R3CPtrList@@8           00469c10     nafxcw:list_p.obj
 0002:0000ac20       ??_R4CPtrList@@6B@         00469c20     nafxcw:list_p.obj
 0002:0000ac38       ??_R1A@?0A@A@CMapStringToPtr@@8 00469c38     nafxcw:map_sp.obj
 0002:0000ac50       ??_R2CMapStringToPtr@@8    00469c50     nafxcw:map_sp.obj
 0002:0000ac60       ??_R3CMapStringToPtr@@8    00469c60     nafxcw:map_sp.obj
 0002:0000ac70       ??_R4CMapStringToPtr@@6B@  00469c70     nafxcw:map_sp.obj
 0002:0000ac88       ??_R1A@?0A@A@CArchiveException@@8 00469c88     nafxcw:arcex.obj
 0002:0000aca0       ??_R2CArchiveException@@8  00469ca0     nafxcw:arcex.obj
 0002:0000acb0       ??_R3CArchiveException@@8  00469cb0     nafxcw:arcex.obj
 0002:0000acc0       ??_R4CArchiveException@@6B@ 00469cc0     nafxcw:arcex.obj
 0002:0000acd8       ??_R1A@?0A@A@IUnknown@@8   00469cd8     nafxcw:arcstrm.obj
 0002:0000acf0       ??_R1A@?0A@A@ISequentialStream@@8 00469cf0     nafxcw:arcstrm.obj
 0002:0000ad08       ??_R1A@?0A@A@IStream@@8    00469d08     nafxcw:arcstrm.obj
 0002:0000ad20       ??_R1A@?0A@A@CArchiveStream@@8 00469d20     nafxcw:arcstrm.obj
 0002:0000ad38       ??_R2CArchiveStream@@8     00469d38     nafxcw:arcstrm.obj
 0002:0000ad50       ??_R3CArchiveStream@@8     00469d50     nafxcw:arcstrm.obj
 0002:0000ad60       ??_R4CArchiveStream@@6B@   00469d60     nafxcw:arcstrm.obj
 0002:0000ad78       ??_R1A@?0A@A@CDocManager@@8 00469d78     nafxcw:docmgr.obj
 0002:0000ad90       ??_R2CDocManager@@8        00469d90     nafxcw:docmgr.obj
 0002:0000ada0       ??_R3CDocManager@@8        00469da0     nafxcw:docmgr.obj
 0002:0000adb0       ??_R4CDocManager@@6B@      00469db0     nafxcw:docmgr.obj
 0002:0000adc8       ??_R1A@?0A@A@CNewTypeDlg@@8 00469dc8     nafxcw:docmgr.obj
 0002:0000ade0       ??_R2CNewTypeDlg@@8        00469de0     nafxcw:docmgr.obj
 0002:0000adf8       ??_R3CNewTypeDlg@@8        00469df8     nafxcw:docmgr.obj
 0002:0000ae08       ??_R4CNewTypeDlg@@6B@      00469e08     nafxcw:docmgr.obj
 0002:0000ae20       ??_R1A@?0A@A@IOleWindow@@8 00469e20     nafxcw:occcont.obj
 0002:0000ae38       ??_R1A@?0A@A@IOleInPlaceUIWindow@@8 00469e38     nafxcw:occcont.obj
 0002:0000ae50       ??_R1A@?0A@A@IOleInPlaceFrame@@8 00469e50     nafxcw:occcont.obj
 0002:0000ae68       ??_R1A@?0A@A@XOleIPFrame@COleControlContainer@@8 00469e68     nafxcw:occcont.obj
 0002:0000ae80       ??_R2XOleIPFrame@COleControlContainer@@8 00469e80     nafxcw:occcont.obj
 0002:0000ae98       ??_R3XOleIPFrame@COleControlContainer@@8 00469e98     nafxcw:occcont.obj
 0002:0000aea8       ??_R4XOleIPFrame@COleControlContainer@@6B@ 00469ea8     nafxcw:occcont.obj
 0002:0000aec0       ??_R1A@?0A@A@COleControlContainer@@8 00469ec0     nafxcw:occcont.obj
 0002:0000aed8       ??_R2COleControlContainer@@8 00469ed8     nafxcw:occcont.obj
 0002:0000aee8       ??_R3COleControlContainer@@8 00469ee8     nafxcw:occcont.obj
 0002:0000aef8       ??_R4COleControlContainer@@6B@ 00469ef8     nafxcw:occcont.obj
 0002:0000af10       ??_R1A@?0A@A@IParseDisplayName@@8 00469f10     nafxcw:occcont.obj
 0002:0000af28       ??_R1A@?0A@A@IOleContainer@@8 00469f28     nafxcw:occcont.obj
 0002:0000af40       ??_R1A@?0A@A@XOleContainer@COleControlContainer@@8 00469f40     nafxcw:occcont.obj
 0002:0000af58       ??_R2XOleContainer@COleControlContainer@@8 00469f58     nafxcw:occcont.obj
 0002:0000af70       ??_R3XOleContainer@COleControlContainer@@8 00469f70     nafxcw:occcont.obj
 0002:0000af80       ??_R4XOleContainer@COleControlContainer@@6B@ 00469f80     nafxcw:occcont.obj
 0002:0000af98       ??_R1A@?0A@A@CFont@@8      00469f98     nafxcw:occcont.obj
 0002:0000afb0       ??_R2CFont@@8              00469fb0     nafxcw:occcont.obj
 0002:0000afc0       ??_R3CFont@@8              00469fc0     nafxcw:occcont.obj
 0002:0000afd0       ??_R4CFont@@6B@            00469fd0     nafxcw:occcont.obj
 0002:0000afe8       ??_R1A@?0A@A@CEnumArray@@8 00469fe8     nafxcw:occcont.obj
 0002:0000b000       ??_R1A@?0A@A@CEnumUnknown@@8 0046a000     nafxcw:occcont.obj
 0002:0000b018       ??_R2CEnumUnknown@@8       0046a018     nafxcw:occcont.obj
 0002:0000b030       ??_R3CEnumUnknown@@8       0046a030     nafxcw:occcont.obj
 0002:0000b040       ??_R4CEnumUnknown@@6B@     0046a040     nafxcw:occcont.obj
 0002:0000b058       ??_R1A@?0A@A@IRowsetNotify@@8 0046a058     nafxcw:occsite.obj
 0002:0000b070       ??_R1A@?0A@A@XRowsetNotify@COleControlSite@@8 0046a070     nafxcw:occsite.obj
 0002:0000b088       ??_R2XRowsetNotify@COleControlSite@@8 0046a088     nafxcw:occsite.obj
 0002:0000b098       ??_R3XRowsetNotify@COleControlSite@@8 0046a098     nafxcw:occsite.obj
 0002:0000b0a8       ??_R4XRowsetNotify@COleControlSite@@6B@ 0046a0a8     nafxcw:occsite.obj
 0002:0000b0c0       ??_R1A@?0A@A@IOleInPlaceSite@@8 0046a0c0     nafxcw:occsite.obj
 0002:0000b0d8       ??_R1A@?0A@A@XOleIPSite@COleControlSite@@8 0046a0d8     nafxcw:occsite.obj
 0002:0000b0f0       ??_R2XOleIPSite@COleControlSite@@8 0046a0f0     nafxcw:occsite.obj
 0002:0000b108       ??_R3XOleIPSite@COleControlSite@@8 0046a108     nafxcw:occsite.obj
 0002:0000b118       ??_R4XOleIPSite@COleControlSite@@6B@ 0046a118     nafxcw:occsite.obj
 0002:0000b130       ??_R1A@?0A@A@INotifyDBEvents@@8 0046a130     nafxcw:occsite.obj
 0002:0000b148       ??_R1A@?0A@A@XNotifyDBEvents@COleControlSite@@8 0046a148     nafxcw:occsite.obj
 0002:0000b160       ??_R2XNotifyDBEvents@COleControlSite@@8 0046a160     nafxcw:occsite.obj
 0002:0000b170       ??_R3XNotifyDBEvents@COleControlSite@@8 0046a170     nafxcw:occsite.obj
 0002:0000b180       ??_R4XNotifyDBEvents@COleControlSite@@6B@ 0046a180     nafxcw:occsite.obj
 0002:0000b198       ??_R1A@?0A@A@IOleClientSite@@8 0046a198     nafxcw:occsite.obj
 0002:0000b1b0       ??_R1A@?0A@A@XOleClientSite@COleControlSite@@8 0046a1b0     nafxcw:occsite.obj
 0002:0000b1c8       ??_R2XOleClientSite@COleControlSite@@8 0046a1c8     nafxcw:occsite.obj
 0002:0000b1d8       ??_R3XOleClientSite@COleControlSite@@8 0046a1d8     nafxcw:occsite.obj
 0002:0000b1e8       ??_R4XOleClientSite@COleControlSite@@6B@ 0046a1e8     nafxcw:occsite.obj
 0002:0000b200       ??_R1A@?0A@A@IBoundObjectSite@@8 0046a200     nafxcw:occsite.obj
 0002:0000b218       ??_R1A@?0A@A@XBoundObjectSite@COleControlSite@@8 0046a218     nafxcw:occsite.obj
 0002:0000b230       ??_R2XBoundObjectSite@COleControlSite@@8 0046a230     nafxcw:occsite.obj
 0002:0000b240       ??_R3XBoundObjectSite@COleControlSite@@8 0046a240     nafxcw:occsite.obj
 0002:0000b250       ??_R4XBoundObjectSite@COleControlSite@@6B@ 0046a250     nafxcw:occsite.obj
 0002:0000b268       ??_R1A@?0A@A@XEventSink@COleControlSite@@8 0046a268     nafxcw:occsite.obj
 0002:0000b280       ??_R2XEventSink@COleControlSite@@8 0046a280     nafxcw:occsite.obj
 0002:0000b290       ??_R3XEventSink@COleControlSite@@8 0046a290     nafxcw:occsite.obj
 0002:0000b2a0       ??_R4XEventSink@COleControlSite@@6B@ 0046a2a0     nafxcw:occsite.obj
 0002:0000b2b8       ??_R1A@?0A@A@COleControlSite@@8 0046a2b8     nafxcw:occsite.obj
 0002:0000b2d0       ??_R2COleControlSite@@8    0046a2d0     nafxcw:occsite.obj
 0002:0000b2e0       ??_R3COleControlSite@@8    0046a2e0     nafxcw:occsite.obj
 0002:0000b2f0       ??_R4COleControlSite@@6B@  0046a2f0     nafxcw:occsite.obj
 0002:0000b308       ??_R1A@?0A@A@IPropertyNotifySink@@8 0046a308     nafxcw:occsite.obj
 0002:0000b320       ??_R1A@?0A@A@XPropertyNotifySink@COleControlSite@@8 0046a320     nafxcw:occsite.obj
 0002:0000b338       ??_R2XPropertyNotifySink@COleControlSite@@8 0046a338     nafxcw:occsite.obj
 0002:0000b348       ??_R3XPropertyNotifySink@COleControlSite@@8 0046a348     nafxcw:occsite.obj
 0002:0000b358       ??_R4XPropertyNotifySink@COleControlSite@@6B@ 0046a358     nafxcw:occsite.obj
 0002:0000b370       ??_R1A@?0A@A@IDispatch@@8  0046a370     nafxcw:occsite.obj
 0002:0000b388       ??_R1A@?0A@A@XAmbientProps@COleControlSite@@8 0046a388     nafxcw:occsite.obj
 0002:0000b3a0       ??_R2XAmbientProps@COleControlSite@@8 0046a3a0     nafxcw:occsite.obj
 0002:0000b3b0       ??_R3XAmbientProps@COleControlSite@@8 0046a3b0     nafxcw:occsite.obj
 0002:0000b3c0       ??_R4XAmbientProps@COleControlSite@@6B@ 0046a3c0     nafxcw:occsite.obj
 0002:0000b3d8       ??_R1A@?0A@A@IOleControlSite@@8 0046a3d8     nafxcw:occsite.obj
 0002:0000b3f0       ??_R1A@?0A@A@XOleControlSite@COleControlSite@@8 0046a3f0     nafxcw:occsite.obj
 0002:0000b408       ??_R2XOleControlSite@COleControlSite@@8 0046a408     nafxcw:occsite.obj
 0002:0000b418       ??_R3XOleControlSite@COleControlSite@@8 0046a418     nafxcw:occsite.obj
 0002:0000b428       ??_R4XOleControlSite@COleControlSite@@6B@ 0046a428     nafxcw:occsite.obj
 0002:0000b440       ??_R1A@?0A@A@CDataSourceControl@@8 0046a440     nafxcw:occsite.obj
 0002:0000b458       ??_R2CDataSourceControl@@8 0046a458     nafxcw:occsite.obj
 0002:0000b460       ??_R3CDataSourceControl@@8 0046a460     nafxcw:occsite.obj
 0002:0000b470       ??_R4CDataSourceControl@@6B@ 0046a470     nafxcw:occsite.obj
 0002:0000b488       ??_R1A@?0A@A@CMemFile@@8   0046a488     nafxcw:filemem.obj
 0002:0000b4a0       ??_R2CMemFile@@8           0046a4a0     nafxcw:filemem.obj
 0002:0000b4b0       ??_R3CMemFile@@8           0046a4b0     nafxcw:filemem.obj
 0002:0000b4c0       ??_R4CMemFile@@6B@         0046a4c0     nafxcw:filemem.obj
 0002:0000b4d8       ??_R1A@?0A@A@CDockContext@@8 0046a4d8     nafxcw:dockcont.obj
 0002:0000b4f0       ??_R2CDockContext@@8       0046a4f0     nafxcw:dockcont.obj
 0002:0000b4f8       ??_R3CDockContext@@8       0046a4f8     nafxcw:dockcont.obj
 0002:0000b508       ??_R4CDockContext@@6B@     0046a508     nafxcw:dockcont.obj
 0002:0000b520       ??_R1A@?0A@A@COleDispatchException@@8 0046a520     nafxcw:oledisp1.obj
 0002:0000b538       ??_R2COleDispatchException@@8 0046a538     nafxcw:oledisp1.obj
 0002:0000b548       ??_R3COleDispatchException@@8 0046a548     nafxcw:oledisp1.obj
 0002:0000b558       ??_R4COleDispatchException@@6B@ 0046a558     nafxcw:oledisp1.obj
 0002:0000b570       ??_R1A@?0A@A@IEnumVOID@@8  0046a570     nafxcw:oleenum.obj
 0002:0000b588       ??_R1A@?0A@A@XEnumVOID@CEnumArray@@8 0046a588     nafxcw:oleenum.obj
 0002:0000b5a0       ??_R2XEnumVOID@CEnumArray@@8 0046a5a0     nafxcw:oleenum.obj
 0002:0000b5b0       ??_R3XEnumVOID@CEnumArray@@8 0046a5b0     nafxcw:oleenum.obj
 0002:0000b5c0       ??_R4XEnumVOID@CEnumArray@@6B@ 0046a5c0     nafxcw:oleenum.obj
 0002:0000b5d8       ??_R2CEnumArray@@8         0046a5d8     nafxcw:oleenum.obj
 0002:0000b5e8       ??_R3CEnumArray@@8         0046a5e8     nafxcw:oleenum.obj
 0002:0000b5f8       ??_R4CEnumArray@@6B@       0046a5f8     nafxcw:oleenum.obj
 0002:0000b610       ??_R1A@?0A@A@COleException@@8 0046a610     nafxcw:olemisc.obj
 0002:0000b628       ??_R2COleException@@8      0046a628     nafxcw:olemisc.obj
 0002:0000b638       ??_R3COleException@@8      0046a638     nafxcw:olemisc.obj
 0002:0000b648       ??_R4COleException@@6B@    0046a648     nafxcw:olemisc.obj
 0002:0000b660       ??_R1A@?0A@A@COleMessageFilter@@8 0046a660     nafxcw:olemsgf.obj
 0002:0000b678       ??_R2COleMessageFilter@@8  0046a678     nafxcw:olemsgf.obj
 0002:0000b688       ??_R3COleMessageFilter@@8  0046a688     nafxcw:olemsgf.obj
 0002:0000b698       ??_R4COleMessageFilter@@6B@ 0046a698     nafxcw:olemsgf.obj
 0002:0000b6b0       ??_R1A@?0A@A@IMessageFilter@@8 0046a6b0     nafxcw:olemsgf.obj
 0002:0000b6c8       ??_R1A@?0A@A@XMessageFilter@COleMessageFilter@@8 0046a6c8     nafxcw:olemsgf.obj
 0002:0000b6e0       ??_R2XMessageFilter@COleMessageFilter@@8 0046a6e0     nafxcw:olemsgf.obj
 0002:0000b6f0       ??_R3XMessageFilter@COleMessageFilter@@8 0046a6f0     nafxcw:olemsgf.obj
 0002:0000b700       ??_R4XMessageFilter@COleMessageFilter@@6B@ 0046a700     nafxcw:olemsgf.obj
 0002:0000b718       ??_R1A@?0A@A@COleDialog@@8 0046a718     nafxcw:oledlgs2.obj
 0002:0000b730       ??_R1A@?0A@A@COleBusyDialog@@8 0046a730     nafxcw:oledlgs2.obj
 0002:0000b748       ??_R2COleBusyDialog@@8     0046a748     nafxcw:oledlgs2.obj
 0002:0000b768       ??_R3COleBusyDialog@@8     0046a768     nafxcw:oledlgs2.obj
 0002:0000b778       ??_R4COleBusyDialog@@6B@   0046a778     nafxcw:oledlgs2.obj
 0002:0000b790       ??_R1A@?0A@A@_AFX_OLE_STATE@@8 0046a790     nafxcw:oledata.obj
 0002:0000b7a8       ??_R2_AFX_OLE_STATE@@8     0046a7a8     nafxcw:oledata.obj
 0002:0000b7b8       ??_R3_AFX_OLE_STATE@@8     0046a7b8     nafxcw:oledata.obj
 0002:0000b7c8       ??_R4_AFX_OLE_STATE@@6B@   0046a7c8     nafxcw:oledata.obj
 0002:0000b7e0       ??_R1A@?0A@A@type_info@@8  0046a7e0     LIBCMT:typinfo.obj
 0002:0000b7f8       ??_R2type_info@@8          0046a7f8     LIBCMT:typinfo.obj
 0002:0000b800       ??_R3type_info@@8          0046a800     LIBCMT:typinfo.obj
 0002:0000b810       ??_R4type_info@@6B@        0046a810     LIBCMT:typinfo.obj
 0002:0000b828       ??_R1A@?0A@A@CUIntArray@@8 0046a828     nafxcw:array_u.obj
 0002:0000b840       ??_R2CUIntArray@@8         0046a840     nafxcw:array_u.obj
 0002:0000b850       ??_R3CUIntArray@@8         0046a850     nafxcw:array_u.obj
 0002:0000b860       ??_R4CUIntArray@@6B@       0046a860     nafxcw:array_u.obj
 0002:0000b878       ??_R1A@?0A@A@CStringArray@@8 0046a878     nafxcw:array_s.obj
 0002:0000b890       ??_R2CStringArray@@8       0046a890     nafxcw:array_s.obj
 0002:0000b8a0       ??_R3CStringArray@@8       0046a8a0     nafxcw:array_s.obj
 0002:0000b8b0       ??_R4CStringArray@@6B@     0046a8b0     nafxcw:array_s.obj
 0002:0000d5c8       __CT??_R0PAX@84            0046c5c8     IOCPServer.obj
 0002:0000d5e8       __CT??_R0PAD@84            0046c5e8     IOCPServer.obj
 0002:0000d608       __CTA2PAD                  0046c608     IOCPServer.obj
 0002:0000d618       __TI2PAD                   0046c618     IOCPServer.obj
 0002:0000f0f0       __CT??_R0PAVCObject@@@84   0046e0f0     nafxcw:wingdi.obj
 0002:0000f110       __CT??_R0PAVCException@@@84 0046e110     nafxcw:wingdi.obj
 0002:0000f130       __CT??_R0PAVCSimpleException@@@84 0046e130     nafxcw:wingdi.obj
 0002:0000f150       __CT??_R0PAVCResourceException@@@84 0046e150     nafxcw:wingdi.obj
 0002:0000f170       __CTA5PAVCResourceException@@ 0046e170     nafxcw:wingdi.obj
 0002:0000f188       __TI5PAVCResourceException@@ 0046e188     nafxcw:wingdi.obj
 0002:0000f198       __CT??_R0PAVCUserException@@@84 0046e198     nafxcw:wingdi.obj
 0002:0000f1b8       __CTA5PAVCUserException@@  0046e1b8     nafxcw:wingdi.obj
 0002:0000f1d0       __TI5PAVCUserException@@   0046e1d0     nafxcw:wingdi.obj
 0002:0000f5a0       __CT??_R0PAVCMemoryException@@@84 0046e5a0     nafxcw:except.obj
 0002:0000f5c0       __CTA5PAVCMemoryException@@ 0046e5c0     nafxcw:except.obj
 0002:0000f5d8       __TI5PAVCMemoryException@@ 0046e5d8     nafxcw:except.obj
 0002:0000f5e8       __CT??_R0PAVCNotSupportedException@@@84 0046e5e8     nafxcw:except.obj
 0002:0000f608       __CTA5PAVCNotSupportedException@@ 0046e608     nafxcw:except.obj
 0002:0000f620       __TI5PAVCNotSupportedException@@ 0046e620     nafxcw:except.obj
 0002:00010500       __CT??_R0PAVCFileException@@@84 0046f500     nafxcw:filex.obj
 0002:00010520       __CTA4PAVCFileException@@  0046f520     nafxcw:filex.obj
 0002:00010538       __TI4PAVCFileException@@   0046f538     nafxcw:filex.obj
 0002:000105b0       __CT??_R0PAVCArchiveException@@@84 0046f5b0     nafxcw:arcex.obj
 0002:000105d0       __CTA4PAVCArchiveException@@ 0046f5d0     nafxcw:arcex.obj
 0002:000105e8       __TI4PAVCArchiveException@@ 0046f5e8     nafxcw:arcex.obj
 0002:00011648       __CT??_R0PAVCOleDispatchException@@@84 00470648     nafxcw:oledisp1.obj
 0002:00011668       __CTA4PAVCOleDispatchException@@ 00470668     nafxcw:oledisp1.obj
 0002:00011680       __TI4PAVCOleDispatchException@@ 00470680     nafxcw:oledisp1.obj
 0002:00011860       __CT??_R0PAVCOleException@@@84 00470860     nafxcw:olemisc.obj
 0002:00011880       __CTA4PAVCOleException@@   00470880     nafxcw:olemisc.obj
 0002:00011898       __TI4PAVCOleException@@    00470898     nafxcw:olemisc.obj
 0002:00011ee0       __IMPORT_DESCRIPTOR_WINMM  00470ee0     Winmm:WINMM.dll
 0002:00011ef4       __IMPORT_DESCRIPTOR_KERNEL32 00470ef4     kernel32:KERNEL32.dll
 0002:00011f08       __IMPORT_DESCRIPTOR_USER32 00470f08     user32:USER32.dll
 0002:00011f1c       __IMPORT_DESCRIPTOR_GDI32  00470f1c     gdi32:GDI32.dll
 0002:00011f30       __IMPORT_DESCRIPTOR_comdlg32 00470f30     comdlg32:comdlg32.dll
 0002:00011f44       __IMPORT_DESCRIPTOR_WINSPOOL 00470f44     winspool:WINSPOOL.DRV
 0002:00011f58       __IMPORT_DESCRIPTOR_ADVAPI32 00470f58     advapi32:ADVAPI32.dll
 0002:00011f6c       __IMPORT_DESCRIPTOR_SHELL32 00470f6c     shell32:SHELL32.dll
 0002:00011f80       __IMPORT_DESCRIPTOR_COMCTL32 00470f80     comctl32:COMCTL32.dll
 0002:00011f94       __IMPORT_DESCRIPTOR_oledlg 00470f94     oledlg:oledlg.dll
 0002:00011fa8       __IMPORT_DESCRIPTOR_ole32  00470fa8     ole32:ole32.dll
 0002:00011fbc       __IMPORT_DESCRIPTOR_OLEPRO32 00470fbc     olepro32:OLEPRO32.DLL
 0002:00011fd0       __IMPORT_DESCRIPTOR_OLEAUT32 00470fd0     oleaut32:OLEAUT32.dll
 0002:00011fe4       __IMPORT_DESCRIPTOR_SHLWAPI 00470fe4     Shlwapi:SHLWAPI.dll
 0002:00011ff8       __IMPORT_DESCRIPTOR_WS2_32 00470ff8     ws2_32:WS2_32.dll
 0002:0001200c       __IMPORT_DESCRIPTOR_pdh    0047100c     PDH:pdh.dll
 0002:00012020       __IMPORT_DESCRIPTOR_AVIFIL32 00471020     vfw32:AVIFIL32.dll
 0002:00012034       __IMPORT_DESCRIPTOR_MSVFW32 00471034     vfw32:MSVFW32.dll
 0002:00012048       __NULL_IMPORT_DESCRIPTOR   00471048     Winmm:WINMM.dll
 0003:00000000       ___xc_a                    00474000     LIBCMT:crt0init.obj
 0003:00000098       ___xc_z                    00474098     LIBCMT:crt0init.obj
 0003:0000009c       ___xi_a                    0047409c     LIBCMT:crt0init.obj
 0003:000000b0       ___xi_z                    004740b0     LIBCMT:crt0init.obj
 0003:000000b4       ___xp_a                    004740b4     LIBCMT:crt0init.obj
 0003:000000bc       ___xp_z                    004740bc     LIBCMT:crt0init.obj
 0003:000000c0       ___xt_a                    004740c0     LIBCMT:crt0init.obj
 0003:000000c8       ___xt_z                    004740c8     LIBCMT:crt0init.obj
 0003:000000d0       ??_C@_0BA@FBKF@?2?2?$CFs?5?9?5?S?o?R?t?$LM?$OA?L?$PN?$AA@ 004740d0     AudioDlg.obj
 0003:000000e0       ??_C@_0BC@IPAB@Receive?5?$CFd?5KBytes?$AA@ 004740e0     AudioDlg.obj
 0003:000000f4       ??_C@_04KHOB@open?$AA@     004740f4     BtnST.obj
 0003:000000fc       ??_C@_0L@PGJA@CBuildView?$AA@ 004740fc     BuildView.obj
 0003:00000108       ??_C@_0L@HKL@user32?4dll?$AA@ 00474108     BuildView.obj
 0003:00000114       ??_C@_05JKEL@Build?$AA@    00474114     BuildView.obj
 0003:0000011c       ??_C@_0L@PBDP@enablehttp?$AA@ 0047411c     BuildView.obj
 0003:00000128       ??_C@_0CB@LMNH@?G?k?M?j?U?$PL?L?n?P?$LE?$LH?$PO?N?q?O?T?J?$LO?C?$PL?$LD?F?$LK?M?C?h?J?v?5?9?3?$CI@ 00474128     BuildView.obj
 0003:0000014c       ??_C@_0BI@IHFM@?N?D?$LM?$PO?$LB?$KD?$LE?f?J?$KH?$LA?$NM?$KD?$KM?G?k?$LM?l?$LC?i?4?4?4?$AA@ 0047414c     BuildView.obj
 0003:00000164       ??_C@_0BA@JFGL@?$LH?$PO?N?q?$LG?K?R?Q?I?z?$LD?I?$LF?$LN?3?$AA@ 00474164     BuildView.obj
 0003:00000174       ??_C@_03CGNG@BIN?$AA@      00474174     BuildView.obj
 0003:00000178       ??_C@_03NDIP@DLL?$AA@      00474178     BuildView.obj
 0003:0000017c       ??_C@_06FANC@PPPPPP?$AA@   0047417c     BuildView.obj
 0003:00000184       ??_C@_06LAAA@OOOOOO?$AA@   00474184     BuildView.obj
 0003:0000018c       ??_C@_04KAFP@?L?a?J?$LO?$AA@ 0047418c     BuildView.obj
 0003:00000194       ??_C@_08CKFD@?$CFs?$CFs?$CFs?$CFs?$AA@ 00474194     BuildView.obj
 0003:000001a0       ??_C@_01HMO@?$CC?$AA@      004741a0     BuildView.obj
 0003:000001a4       ??_C@_0L@MAEA@?5?N?D?$LM?$PO?$LG?$KK?J?$KH?$CB?$AA@ 004741a4     BuildView.obj
 0003:000001b0       ??_C@_0BA@PDGF@?2update?2dll?4bak?$AA@ 004741b0     BuildView.obj
 0003:000001c0       ??_C@_0BC@DFCG@?2update?2Cache?4bak?$AA@ 004741c0     BuildView.obj
 0003:000001d4       ??_C@_0BB@EJNG@?2update?2core?4dll?$AA@ 004741d4     BuildView.obj
 0003:000001e8       ??_C@_04DCMN@?$CFs?$CFs?$AA@ 004741e8     BuildView.obj
 0003:000001f0       ??_C@_0BB@ENEK@?2update?2core?4dat?$AA@ 004741f0     BuildView.obj
 0003:00000204       ??_C@_03IKNC@exe?$AA@      00474204     BuildView.obj
 0003:00000208       ??_C@_0L@JEMH@server?4exe?$AA@ 00474208     BuildView.obj
 0003:00000214       ??_C@_0BB@IHPA@?$LP?I?V?$LE?P?P?N?D?$LM?$PO?$HM?$CK?4exe?$AA@ 00474214     BuildView.obj
 0003:00000228       ??_C@_0BJ@NNI@?S?r?C?$PL?I?O?O?$NP?W?V?$LE?$KO?$LI?q?J?$LN?$LD?v?$LE?m?5?9?3?$CI?$AA@ 00474228     BuildView.obj
 0003:00000244       ??_C@_04BFDD@AAAA?$AA@     00474244     BuildView.obj
 0003:0000024c       ??_C@_07DKLA@httpurl?$AA@  0047424c     BuildView.obj
 0003:00000254       ??_C@_0M@DKEL@Description?$AA@ 00474254     BuildView.obj
 0003:00000260       ??_C@_0M@NOPI@DisplayName?$AA@ 00474260     BuildView.obj
 0003:0000026c       ??_C@_0CH@EJKN@?$LM?$OA?$LC?b?$LK?M?$LM?$OA?J?S?P?B?S?$LC?$LM?$PO?I?h?$LB?$LI?$LC?$KC?W?T?$LG?$KP?$LI?$PM?P?B?I?h@ 0047426c     BuildView.obj
 0003:00000294       ??_C@_0BJ@PMOM@Microsoft?5Device?5Manager?$AA@ 00474294     BuildView.obj
 0003:000002b0       ??_C@_0BK@HONA@http?3?1?1www?4xxx?4com?1ip?4jpg?$AA@ 004742b0     BuildView.obj
 0003:000002d0       ?lf_default@CCustomTabCtrl@@0UtagLOGFONTA@@A 004742d0     CustomTabCtrl.obj
 0003:0000030c       ?m_bBitsGlyphs@CCustomTabCtrl@@0PAEA 0047430c     CustomTabCtrl.obj
 0003:00000338       ??_C@_0P@MGEC@CCustomTabCtrl?$AA@ 00474338     CustomTabCtrl.obj
 0003:00000348       ??_R0PAVCUserException@@@8 00474348     CustomTabCtrl.obj
 0003:00000368       ??_C@_19ONFA@?$AAS?$AAP?$AAI?$AAN?$AA?$AA@ 00474368     CustomTabCtrl.obj
 0003:00000378       ??_R0PAVCMemoryException@@@8 00474378     CustomTabCtrl.obj
 0003:00000398       ??_C@_06MJDJ@?$CFs?$CI?$CFd?$CJ?$AA@ 00474398     CustomTabCtrl.obj
 0003:000003a0       ??_C@_07CLOL@?$CFs?5?$CI?$CFd?$CJ?$AA@ 004743a0     CustomTabCtrl.obj
 0003:000003a8       ??_C@_01FIAI@X?$AA@        004743a8     CustomTabCtrl.obj
 0003:000003ac       ??_C@_02NNKG@?2?2?$AA@     004743ac     FileManagerDlg.obj
 0003:000003b0       ??_C@_0BA@CPGD@?2?2?$CFs?5?9?5?N?D?$LM?$PO?$LJ?$NM?$MA?m?$AA@ 004743b0     FileManagerDlg.obj
 0003:000003c0       ??_C@_0BH@JLDK@?$LB?$LO?$LF?X?$KD?$LK?W?$LA?T?X?D?$LP?B?$LM?5?$CFs?5?M?j?$LD?I?$AA@ 004743c0     FileManagerDlg.obj
 0003:000003d8       ??_C@_09OMGJ@?$CF10?41f?5GB?$AA@ 004743d8     FileManagerDlg.obj
 0003:000003e4       ??_C@_08BLAK@?$LP?I?S?C?$LP?U?$LM?d?$AA@ 004743e4     FileManagerDlg.obj
 0003:000003f0       ??_C@_06GMIF@?W?$NM?$LE?s?P?$KB?$AA@ 004743f0     FileManagerDlg.obj
 0003:000003f8       ??_C@_04BONA@?$MA?$OA?P?M?$AA@ 004743f8     FileManagerDlg.obj
 0003:00000400       ??_C@_04NJML@?C?$PL?$LD?F?$AA@ 00474400     FileManagerDlg.obj
 0003:00000408       ??_C@_0P@ICLN@?$CFY?9?$CFm?9?$CFd?5?$CFH?3?$CFM?$AA@ 00474408     FileManagerDlg.obj
 0003:00000418       ??_C@_07MGJE@?$CF10d?5KB?$AA@ 00474418     FileManagerDlg.obj
 0003:00000420       ??_C@_03DCMC@?$CK?4?$CK?$AA@ 00474420     FileManagerDlg.obj
 0003:00000424       ??_C@_08KPDJ@?P?$NO?$LI?D?H?U?F?Z?$AA@ 00474424     FileManagerDlg.obj
 0003:00000430       ??_C@_04POOL@?$LE?s?P?$KB?$AA@ 00474430     FileManagerDlg.obj
 0003:00000438       ??_C@_01PCFE@?2?$AA@       00474438     FileManagerDlg.obj
 0003:0000043c       ??_C@_01PJCK@?4?$AA@       0047443c     FileManagerDlg.obj
 0003:00000440       ??_C@_02OOND@?4?4?$AA@     00474440     FileManagerDlg.obj
 0003:00000444       ??_C@_0BH@MOOA@?T?$LG?$LD?L?$KD?$LK?W?$LA?T?X?D?$LP?B?$LM?5?$CFs?5?M?j?$LD?I?$AA@ 00474444     FileManagerDlg.obj
 0003:0000045c       ??_C@_04POLC@?$CFc?3?2?$AA@ 0047445c     FileManagerDlg.obj
 0003:00000464       ??_C@_06KKCN@?$CFs?$CFs?$CFs?$AA@ 00474464     FileManagerDlg.obj
 0003:0000046c       ??_C@_07KMFA@?$CFs?$CFs?$CK?4?$CK?$AA@ 0047446c     FileManagerDlg.obj
 0003:00000474       ??_C@_0L@JGLB@?N?D?$LM?$PO?$LM?P?N?$KK?$LP?U?$AA@ 00474474     FileManagerDlg.obj
 0003:00000480       ??_C@_04NIHG@?$LO?$KP?$LI?f?$AA@ 00474480     FileManagerDlg.obj
 0003:00000488       ??_C@_0BH@PNFE@?T?$LG?$LD?L?$KD?$LK?I?$LO?$LD?$PN?N?D?$LM?$PO?5?$CFs?5?M?j?$LD?I?$AA@ 00474488     FileManagerDlg.obj
 0003:000004a0       ??_C@_0BL@JBPH@?T?$LG?$LD?L?$KD?$LK?I?$LO?$LD?$PN?D?$LP?B?$LM?5?$CFs?2?$CK?4?$CK?5?M?j?$LD?I?$AA@ 004744a0     FileManagerDlg.obj
 0003:000004bc       ??_C@_0O@KOE@?5?N?D?$LM?$PO?$LE?$LE?$LN?$KI?J?$KH?$LA?$NM?$AA@ 004744bc     FileManagerDlg.obj
 0003:000004cc       ??_C@_0O@IIDN@?5?N?D?$LM?$PO?P?$LE?H?k?J?$KH?$LA?$NM?$AA@ 004744cc     FileManagerDlg.obj
 0003:000004dc       ??_C@_0BL@FLKB@?$LB?$LO?$LF?X?$KD?$LK?W?$LA?T?X?D?$LP?B?$LM?5?$CFs?2?$CK?4?$CK?5?M?j?$LD?I?$AA@ 004744dc     FileManagerDlg.obj
 0003:000004f8       ??_C@_0BL@MHOP@?T?$LG?$LD?L?$KD?$LK?W?$LA?T?X?D?$LP?B?$LM?5?$CFs?2?$CK?4?$CK?5?M?j?$LD?I?$AA@ 004744f8     FileManagerDlg.obj
 0003:00000514       ??_C@_0BC@FFBC@?$CFs?5?$CFs?5?$CFdKB?5?$CI?$CFd?$CF?$CF?$CJ?$AA@ 00474514     FileManagerDlg.obj
 0003:00000528       ??_C@_08LOIM@?$LN?S?J?U?N?D?$LM?$PO?$AA@ 00474528     FileManagerDlg.obj
 0003:00000534       ??_C@_08MLCC@?$LE?$KL?K?M?N?D?$LM?$PO?$AA@ 00474534     FileManagerDlg.obj
 0003:00000540       ??_C@_08PMPC@?H?$LH?H?O?I?$LO?$LD?$PN?$AA@ 00474540     FileManagerDlg.obj
 0003:0000054c       ??_C@_0BG@HFIE@?H?$LH?J?$LF?R?$KK?$LA?Q?$KB?$LA?$CFs?$KB?$LB?I?$LO?$LD?$PN?B?p?$DP?$AA@ 0047454c     FileManagerDlg.obj
 0003:00000564       ??_C@_0CK@HMOC@?H?$LH?J?$LF?R?$KK?I?$LO?$LD?$PN?N?D?$LM?$PO?$LM?P?$KB?$LA?$CFs?$KB?$LB?$LC?$KC?$LN?$KL?K?y?S?P?D?Z@ 00474564     FileManagerDlg.obj
 0003:00000590       ??_C@_0BI@PGFM@?H?$LH?$LG?$KI?R?$KK?$LN?$KL?U?b?5?$CFd?5?O?n?I?$LO?$LD?$PN?B?p?$DP?$AA@ 00474590     FileManagerDlg.obj
 0003:000005a8       ??_C@_05KEJO@?$CFs?2?$CFs?$AA@ 004745a8     FileManagerDlg.obj
 0003:000005b0       ??_C@_06BEFO@?$CFs?2?$CK?4?$CK?$AA@ 004745b0     FileManagerDlg.obj
 0003:000005b8       ??_C@_08NJDO@?P?B?$LN?$KI?D?$LP?B?$LM?$AA@ 004745b8     FileManagerDlg.obj
 0003:000005c4       ??_C@_0BA@CGCM@?G?k?J?d?H?k?D?$LP?B?$LM?C?$PL?$LD?F?3?$AA@ 004745c4     FileManagerDlg.obj
 0003:000005d4       ??_C@_01BJG@?6?$AA@        004745d4     FileTransferModeDlg.obj
 0003:000005d8       ??_C@_0CD@GDLE@?$LE?K?N?D?$LM?$PO?$LM?P?R?Q?$LA?$PM?$LK?$KM?R?$LL?$LI?v?C?$PL?N?$KK?$KB?$LA?$CFs?$KB?$LB?$LF?D?N?D@ 004745d8     FileTransferModeDlg.obj
 0003:000005fc       ??_C@_0BE@NIHE@Gh0st?5RAT?5Exception?$AA@ 004745fc     gh0st.obj
 0003:00000610       ??_C@_0IL@LFGN@CRASH?5CODE?30x?$CF?48x?5ADDR?$DN0x?$CF?48x?5FL@ 00474610     gh0st.obj
 0003:0000069c       ??_C@_08BIGC@Settings?$AA@ 0047469c     gh0st.obj
 0003:000006a8       ??_C@_07PPHC@PopTips?$AA@  004746a8     gh0st.obj
 0003:000006b0       ??_C@_09KMGM@QQwry?4dat?$AA@ 004746b0     gh0st.obj
 0003:000006bc       ??_C@_0M@IKNA@shell32?4dll?$AA@ 004746bc     gh0st.obj
 0003:000006c8       ??_C@_0BC@EABH@MaxConnectionAuto?$AA@ 004746c8     gh0st.obj
 0003:000006dc       ??_C@_0O@KDAE@MaxConnection?$AA@ 004746dc     gh0st.obj
 0003:000006ec       ??_C@_0L@DNJN@ListenPort?$AA@ 004746ec     gh0st.obj
 0003:000006f8       ??_C@_09HFDN@CGh0stDoc?$AA@ 004746f8     gh0stDoc.obj
 0003:00000704       ??_C@_0L@JNMN@CGh0stView?$AA@ 00474704     gh0stView.obj
 0003:00000710       ?g_Column_Data@@3PAUCOLUMNSTRUCT@@A 00474710     gh0stView.obj
 0003:00000758       ??_C@_04JEID@?G?x?S?r?$AA@ 00474758     gh0stView.obj
 0003:00000760       ??_C@_06ODL@?I?c?O?q?M?$LH?$AA@ 00474760     gh0stView.obj
 0003:00000768       ??_C@_04BLOB@Ping?$AA@     00474768     gh0stView.obj
 0003:00000770       ??_C@_03LPOG@CPU?$AA@      00474770     gh0stView.obj
 0003:00000774       ??_C@_08DNGC@?$LC?Y?W?w?O?$LF?M?$LD?$AA@ 00474774     gh0stView.obj
 0003:00000780       ??_C@_0O@IONO@?$LM?F?K?c?$LL?z?C?$PL?1?$LB?$LI?W?$KC?$AA@ 00474780     gh0stView.obj
 0003:00000790       ??_C@_03OPEA@LAN?$AA@      00474790     gh0stView.obj
 0003:00000794       ??_C@_03KIKE@WAN?$AA@      00474794     gh0stView.obj
 0003:00000798       ??_C@_02GMH@ID?$AA@        00474798     gh0stView.obj
 0003:0000079c       ??_C@_09DMAN@QQWry?4Dat?$AA@ 0047479c     gh0stView.obj
 0003:000007a8       ??_C@_0P@DJCA@?5?5?I?z?$LD?I?$LH?$PO?N?q?$LG?K?5?5?$AA@ 004747a8     gh0stView.obj
 0003:000007b8       ??_C@_0L@DFIH@?I?z?$LD?I?$LH?$PO?N?q?$LG?K?$AA@ 004747b8     gh0stView.obj
 0003:000007c4       ??_C@_0N@ODII@?5?5?$LH?$PO?N?q?I?h?V?C?5?5?$AA@ 004747c4     gh0stView.obj
 0003:000007d4       ??_C@_08KHFB@?$LH?$PO?N?q?I?h?V?C?$AA@ 004747d4     gh0stView.obj
 0003:000007e0       ??_C@_0N@FGNK@?5?5?I?O?O?$NP?V?w?$LL?z?5?5?$AA@ 004747e0     gh0stView.obj
 0003:000007f0       ??_C@_08JGHF@?I?O?O?$NP?V?w?$LL?z?$AA@ 004747f0     gh0stView.obj
 0003:000007fc       ??_C@_07DFGA@?6Area?3?5?$AA@ 004747fc     gh0stView.obj
 0003:00000804       ??_C@_0DP@KJII@New?5Connection?5Information?3?6Host@ 00474804     gh0stView.obj
 0003:00000844       ??_C@_02CKJF@?9?9?$AA@     00474844     gh0stView.obj
 0003:00000848       ??_C@_02OJII@?S?P?$AA@     00474848     gh0stView.obj
 0003:0000084c       ??_C@_05PB@?$CFdMHz?$AA@   0047484c     gh0stView.obj
 0003:00000854       ??_C@_0BD@FCDJ@?$CFs?5SP?$CFd?5?$CIBuild?5?$CFd?$CJ?$AA@ 00474854     gh0stView.obj
 0003:00000868       ??_C@_05DILG@Vista?$AA@    00474868     gh0stView.obj
 0003:00000870       ??_C@_04GNKK@2003?$AA@     00474870     gh0stView.obj
 0003:00000878       ??_C@_02HJOI@XP?$AA@       00474878     gh0stView.obj
 0003:0000087c       ??_C@_04JCBD@2000?$AA@     0047487c     gh0stView.obj
 0003:00000884       ??_C@_02MOOC@NT?$AA@       00474884     gh0stView.obj
 0003:00000888       ??_C@_02MECO@?$CFd?$AA@    00474888     gh0stView.obj
 0003:0000088c       ??_C@_0BB@MOAN@?J?d?H?k?$LF?D?M?x?V?$LH?$LC?$LL?$LK?O?$LH?$KI?$AA@ 0047488c     gh0stView.obj
 0003:000008a0       ??_C@_04FCNP@?$LE?m?N?s?$AA@ 004748a0     gh0stView.obj
 0003:000008a8       ??_C@_07PCOP@http?3?1?1?$AA@ 004748a8     gh0stView.obj
 0003:000008b0       ??_C@_06DLCA@?O?B?T?X?U?$NP?$AA@ 004748b0     gh0stView.obj
 0003:000008b8       ??_C@_0BI@KNIK@?G?k?J?d?H?k?R?$KK?O?B?T?X?N?D?$LM?$PO?$LF?D?$LF?X?V?$LH?3?$AA@ 004748b8     gh0stView.obj
 0003:000008d0       ??_C@_0BF@CNNP@?H?$LH?H?O?P?$LG?T?X?$LH?$PO?N?q?$LG?K?B?p?5?9?3?$CJ?$AA@ 004748d0     gh0stView.obj
 0003:000008e8       ??_C@_07JCGI@Warning?$AA@  004748e8     gh0stView.obj
 0003:000008f0       ??_C@_0N@CEBE@?T?$LG?$LD?L?$LH?C?N?J?M?x?V?$LH?$AA@ 004748f0     gh0stView.obj
 0003:00000900       ??_C@_0BI@HEOG@?G?k?J?d?H?k?R?$KK?R?$PO?$LC?X?$LH?C?N?J?$LF?D?M?x?V?$LH?3?$AA@ 00474900     gh0stView.obj
 0003:00000918       ??_C@_0BI@ILDP@?G?k?J?d?H?k?R?$KK?O?T?J?$LO?$LH?C?N?J?$LF?D?M?x?V?$LH?3?$AA@ 00474918     gh0stView.obj
 0003:00000930       ??_C@_0BA@MHK@?G?k?J?d?H?k?P?B?$LF?D?$LB?$LI?W?$KC?3?$AA@ 00474930     gh0stView.obj
 0003:00000940       ??_C@_0BB@ECCN@?E?z?A?$LP?$LI?$PM?$LI?D?V?w?$LL?z?$LB?$LI?W?$KC?$AA@ 00474940     gh0stView.obj
 0003:00000954       ??_C@_0BD@OEKP@?$LI?$PM?$LI?D?V?w?$LL?z?$CI?$CFs?$CJ?$LF?D?$LB?$LI?W?$KC?$AA@ 00474954     gh0stView.obj
 0003:00000968       ??_C@_0P@PMOM@?O?B?T?X?$LI?$PM?P?B?$LH?$PO?N?q?$LG?K?$AA@ 00474968     gh0stView.obj
 0003:00000978       ??_C@_0BM@DELC@?G?k?J?d?H?k?R?$KK?O?B?T?X?P?B?$LH?$PO?N?q?$LG?K?$LF?D?$LF?X?V?$LH?3?$AA@ 00474978     gh0stView.obj
 0003:00000994       ??_C@_03LBIP@ini?$AA@      00474994     IniFile.obj
 0003:00000998       ??_C@_02MHMJ@?$CFu?$AA@    00474998     IniFile.obj
 0003:0000099c       ??_C@_07EODH@?$CGCancel?$AA@ 0047499c     InputDlg.obj
 0003:000009a4       ??_C@_03NOMH@?$CGOK?$AA@   004749a4     InputDlg.obj
 0003:000009a8       ??_C@_08OLHM@OnAccept?$AA@ 004749a8     IOCPServer.obj
 0003:000009b8       ??_R0PAX@8                 004749b8     IOCPServer.obj
 0003:000009c8       ??_R0PAD@8                 004749c8     IOCPServer.obj
 0003:000009d8       ??_C@_0N@HHDO@bad?5Allocate?$AA@ 004749d8     IOCPServer.obj
 0003:000009e8       ??_C@_0L@BIJM@bad?5buffer?$AA@ 004749e8     IOCPServer.obj
 0003:000009f4       ??_C@_0BA@FELK@OnClientReading?$AA@ 004749f4     IOCPServer.obj
 0003:00000a04       ??_C@_0BC@NPOO@RemoveStaleClient?$AA@ 00474a04     IOCPServer.obj
 0003:00000a18       ??_C@_0P@OEJ@MoveToFreePool?$AA@ 00474a18     IOCPServer.obj
 0003:00000a28       ??_C@_0BA@IME@AllocateContext?$AA@ 00474a28     IOCPServer.obj
 0003:00000a38       ??_C@_0N@NCCF@?$LB?$KD?$LE?f?$LM?G?B?$LM?$CI?$CGS?$CJ?$AA@ 00474a38     KeyBoardDlg.obj
 0003:00000a48       ??_C@_0N@NEHC@?G?e?$LP?U?$LM?G?B?$LM?$CI?$CGC?$CJ?$AA@ 00474a48     KeyBoardDlg.obj
 0003:00000a58       ??_C@_0N@HDGJ@?$MA?k?O?$NP?$LM?G?B?$LM?$CI?$CGO?$CJ?$AA@ 00474a58     KeyBoardDlg.obj
 0003:00000a68       ??_C@_0N@JPHP@?N?D?$LM?$PO?$LB?$KD?$LE?f?J?$KH?$LA?$NM?$AA@ 00474a68     KeyBoardDlg.obj
 0003:00000a78       ??_C@_03PKEJ@txt?$AA@      00474a78     KeyBoardDlg.obj
 0003:00000a7c       ??_C@_0BH@JNEL@?N?D?$LB?$LO?N?D?$LF?$LF?$CI?$CK?4txt?$CJ?$HM?$CK?4txt?$HM?$AA@ 00474a7c     KeyBoardDlg.obj
 0003:00000a94       ??_C@_0BH@LGLG@_?$CFY?9?$CFm?9?$CFd_?$CFH?9?$CFM?9?$CFS?4txt?$AA@ 00474a94     KeyBoardDlg.obj
 0003:00000aac       ??_C@_0BC@JKAA@?5?$CI?$MA?k?O?$NP?$LM?G?B?$LM?N?$LE?$LP?$KK?F?t?$CJ?$AA@ 00474aac     KeyBoardDlg.obj
 0003:00000ac0       ??_C@_0BC@KCIM@?5?$CI?$MA?k?O?$NP?$LM?G?B?$LM?R?Q?$LP?$KK?F?t?$CJ?$AA@ 00474ac0     KeyBoardDlg.obj
 0003:00000ad4       ??_C@_0BA@PIHE@?2?2?$CFs?5?9?5?$LM?$PM?E?L?$LM?G?B?$LM?$AA@ 00474ad4     KeyBoardDlg.obj
 0003:00000af4       ??_C@_0L@IAGP@CMainFrame?$AA@ 00474af4     MainFrm.obj
 0003:00000b00       ??_C@_08NPHI@password?$AA@ 00474b00     MainFrm.obj
 0003:00000b0c       ??_C@_04OGKO@?K?N?L?e?$AA@ 00474b0c     MainFrm.obj
 0003:00000b14       ??_C@_09DCBC@Gh0st?53?46?$AA@ 00474b14     MainFrm.obj
 0003:00000b20       ??_C@_0BK@PEBG@S?3?5?$CF?42f?5kb?1s?5R?3?5?$CF?42f?5kb?1s?$AA@ 00474b20     MainFrm.obj
 0003:00000b3c       ??_C@_07NFMK@?A?$KM?$LN?S?3?50?$AA@ 00474b3c     MainFrm.obj
 0003:00000b44       ??_C@_07PJEB@?$LG?K?$LP?Z?3?50?$AA@ 00474b44     MainFrm.obj
 0003:00000b4c       ??_C@_0P@IGDI@?$LG?K?$LP?Z?$CFd?$LA?s?$LG?$KI?J?$KH?$LA?$NM?$AA@ 00474b4c     MainFrm.obj
 0003:00000b5c       ??_C@_08PCCM@?$LG?K?$LP?Z?3?5?$CFd?$AA@ 00474b5c     MainFrm.obj
 0003:00000b68       ??_C@_01FDLN@?1?$AA@       00474b68     MainFrm.obj
 0003:00000b6c       ??_C@_0N@CLDN@Running?5?4?4?4?4?$AA@ 00474b6c     MainFrm.obj
 0003:00000b7c       ??_C@_08LCAA@?A?$KM?$LN?S?3?5?$CFd?$AA@ 00474b7c     MainFrm.obj
 0003:00000b88       ??_C@_0N@PGCF@?2shell32?4dll?$AA@ 00474b88     ScreenSpyDlg.obj
 0003:00000b98       ??_C@_03LLKB@bmp?$AA@      00474b98     ScreenSpyDlg.obj
 0003:00000b9c       ??_C@_0BH@NNG@?N?$LL?M?$LM?N?D?$LM?$PO?$CI?$CK?4bmp?$CJ?$HM?$CK?4bmp?$HM?$AA@ 00474b9c     ScreenSpyDlg.obj
 0003:00000bb4       ??_C@_0BH@PHFO@_?$CFY?9?$CFm?9?$CFd_?$CFH?9?$CFM?9?$CFS?4bmp?$AA@ 00474bb4     ScreenSpyDlg.obj
 0003:00000bcc       ??_C@_0BJ@OFLB@?2?2?$CFs?5?$CFd?5?$CK?5?$CFd?5?$LF?Z?$CFd?V?$KB?5?$CFd?$CF?$CF?$AA@ 00474bcc     ScreenSpyDlg.obj
 0003:00000be8       ??_C@_0N@PJGB@?2?2?$CFs?5?$CFd?5?$CK?5?$CFd?$AA@ 00474be8     ScreenSpyDlg.obj
 0003:00000bf8       ??_C@_0N@IBJI@32?N?$LL?U?f?$LC?J?$CI?$CGG?$CJ?$AA@ 00474bf8     ScreenSpyDlg.obj
 0003:00000c08       ??_C@_0N@KAJJ@16?N?$LL?$LI?$NP?$LC?J?$CI?$CGF?$CJ?$AA@ 00474c08     ScreenSpyDlg.obj
 0003:00000c18       ??_C@_0N@NKIB@8?5?N?$LL?$LC?J?I?$KL?$CI?$CGE?$CJ?$AA@ 00474c18     ScreenSpyDlg.obj
 0003:00000c28       ??_C@_0N@HGHJ@8?5?N?$LL?$LL?R?$LG?H?$CI?$CGD?$CJ?$AA@ 00474c28     ScreenSpyDlg.obj
 0003:00000c38       ??_C@_0N@HFIA@4?5?N?$LL?$LC?J?I?$KL?$CI?$CGC?$CJ?$AA@ 00474c38     ScreenSpyDlg.obj
 0003:00000c48       ??_C@_0N@NJHI@4?5?N?$LL?$LL?R?$LG?H?$CI?$CGB?$CJ?$AA@ 00474c48     ScreenSpyDlg.obj
 0003:00000c58       ??_C@_0N@BKAB@1?5?N?$LL?$LK?Z?$LA?W?$CI?$CGA?$CJ?$AA@ 00474c58     ScreenSpyDlg.obj
 0003:00000c68       ??_C@_0BB@LBAD@?$LC?n?R?l?$LB?H?$LN?O?K?c?$LH?$KI?$CI?$CGX?$CJ?$AA@ 00474c68     ScreenSpyDlg.obj
 0003:00000c7c       ??_C@_0BB@FFPN@?$LI?t?P?P?I?$KI?C?h?K?c?$LH?$KI?$CI?$CGS?$CJ?$AA@ 00474c7c     ScreenSpyDlg.obj
 0003:00000c90       ??_C@_0P@HAGJ@?I?h?V?C?$LM?t?L?y?$LA?e?$CI?$CGL?$CJ?$AA@ 00474c90     ScreenSpyDlg.obj
 0003:00000ca0       ??_C@_0P@LFOB@?$LL?q?H?$KB?$LM?t?L?y?$LA?e?$CI?$CGR?$CJ?$AA@ 00474ca0     ScreenSpyDlg.obj
 0003:00000cb0       ??_C@_0N@MBGC@?$LB?$KD?$LE?f?$LP?l?U?U?$CI?$CGS?$CJ?$AA@ 00474cb0     ScreenSpyDlg.obj
 0003:00000cc0       ??_C@_0BJ@GLAL@?$LC?$LG?W?$LN?$LC?c?$CI?$LF?$LM?V?B?J?s?$LB?j?I?A?K?$LI?$CJ?$CI?$CGL?$CJ?$AA@ 00474cc0     ScreenSpyDlg.obj
 0003:00000cdc       ??_C@_0P@LFLA@?$LH?$PO?N?q?$LG?K?$LK?Z?F?A?$CI?$CGB?$CJ?$AA@ 00474cdc     ScreenSpyDlg.obj
 0003:00000cec       ??_C@_0BJ@CGBK@?K?x?$LG?$KI?$LH?$PO?N?q?$LG?K?J?s?$LB?j?$LK?M?$LM?$PM?E?L?$CI?$CGL?$CJ?$AA@ 00474cec     ScreenSpyDlg.obj
 0003:00000d08       ??_C@_0BD@GJPP@?$LI?z?W?Y?$LH?$PO?N?q?$LG?K?J?s?$LB?j?$CI?$CGT?$CJ?$AA@ 00474d08     ScreenSpyDlg.obj
 0003:00000d1c       ??_C@_0BF@BOAP@?$LH?$KC?K?MCtrl?9Alt?9Del?$CI?$CGK?$CJ?$AA@ 00474d1c     ScreenSpyDlg.obj
 0003:00000d34       ??_C@_0N@IBLP@?$LP?X?V?F?F?A?D?$LL?$CI?$CGY?$CJ?$AA@ 00474d34     ScreenSpyDlg.obj
 0003:00000d44       ??_C@_0CF@GEJN@Please?5wait?5?9?5initial?5screen?5loa@ 00474d44     ScreenSpyDlg.obj
 0003:00000d6c       ??_C@_0O@OOEE@CSettingsView?$AA@ 00474d6c     SettingsView.obj
 0003:00000dc0       ??_C@_09HMGA@ProxyUser?$AA@ 00474dc0     SettingsView.obj
 0003:00000dcc       ??_C@_09MBHB@ProxyPort?$AA@ 00474dcc     SettingsView.obj
 0003:00000dd8       ??_C@_04EILB@1080?$AA@     00474dd8     SettingsView.obj
 0003:00000de0       ??_C@_09POPM@ProxyPass?$AA@ 00474de0     SettingsView.obj
 0003:00000dec       ??_C@_09KIGK@ProxyHost?$AA@ 00474dec     SettingsView.obj
 0003:00000df8       ??_C@_09EDAD@UsedProxy?$AA@ 00474df8     SettingsView.obj
 0003:00000e04       ??_C@_09IEJL@ProxyAuth?$AA@ 00474e04     SettingsView.obj
 0003:00000e10       ??_C@_04CEAI@Port?$AA@     00474e10     SettingsView.obj
 0003:00000e18       ??_C@_02PBDP@80?$AA@       00474e18     SettingsView.obj
 0003:00000e1c       ??_C@_0L@MDFJ@Connection?$AA@ 00474e1c     SettingsView.obj
 0003:00000e28       ??_C@_04ENBD@Host?$AA@     00474e28     SettingsView.obj
 0003:00000e30       ??_C@_01KALE@?$HM?$AA@     00474e30     SettingsView.obj
 0003:00000e34       ??_C@_01PKAG@?3?$AA@       00474e34     SettingsView.obj
 0003:00000e38       ??_C@_01FCOA@?5?$AA@       00474e38     SettingsView.obj
 0003:00000e3c       ??_C@_0EP@EJJP@?C?$LL?S?P?U?R?$LF?$LNIP?J?$PN?$LO?$NN?$LP?b?N?D?$LM?$POQQWry?4Dat?5?G?k@ 00474e3c     SettingsView.obj
 0003:00000e8c       ??_C@_0BM@GOLN@?U?R?$LF?$LNIP?J?$PN?$LO?$NN?$LP?b?N?D?$LM?$PO?3?5QQWry?4Dat?$AA@ 00474e8c     SettingsView.obj
 0003:00000ea8       ??_C@_0N@PNJL@192?4168?416?42?$AA@ 00474ea8     SettingsView.obj
 0003:00000eb8       ??_C@_0BD@EPHK@?G?k?M?j?U?$PL?L?n?$LH?$PO?N?q?F?w?P?E?O?$KC?$AA@ 00474eb8     SettingsView.obj
 0003:00000ecc       ??_C@_0BJ@PMP@?G?k?M?j?U?$PL?L?n?P?$LE?$LE?z?$MA?m?$LH?$PO?N?q?F?w?P?E?O?$KC?$AA@ 00474ecc     SettingsView.obj
 0003:00000ee8       ??_C@_0BD@JNMI@?$LE?z?$MA?m?$LH?$PO?N?q?F?w?$LJ?$KE?W?w?U?$PN?$LD?$KD?$AA@ 00474ee8     SettingsView.obj
 0003:00000efc       ??_C@_0BA@PCKK@?S?C?$LL?$KH?C?$PL?1?C?$NM?B?k?$LE?m?N?s?$AA@ 00474efc     SettingsView.obj
 0003:00000f0c       ??_C@_0BF@CIIC@?N?$NO?$LH?$KI?A?$KM?$LN?S?$LF?$LN?$LE?z?$MA?m?$LH?$PO?N?q?F?w?$AA@ 00474f0c     SettingsView.obj
 0003:00000f24       ??_C@_0BC@NPJB@socket?5?$LD?u?J?$LM?$LL?$KP?J?$KH?$LA?$NM?$AA@ 00474f24     SettingsView.obj
 0003:00000f38       ??_C@_0CN@DNFI@?$LC?$LL?D?$NM?$LE?r?$LP?$KK?$LF?$LN?V?w?$LL?z?$CFs?$LF?D?A?$KM?$LN?S?$KD?$KM?5?T?Z?$LG?K?$LP?Z?5@ 00474f38     SettingsView.obj
 0003:00000f68       ??_C@_0CN@DCOL@?$LD?I?$LJ?$KG?$LE?r?$LP?$KK?$LF?$LN?V?w?$LL?z?$CFs?$LF?D?A?$KM?$LN?S?$KD?$KM?5?T?Z?$LG?K?$LP?Z?5@ 00474f68     SettingsView.obj
 0003:00000f98       ??_C@_0BB@PDLP@?C?$LL?S?P?$LC?i?$LF?$LN?O?$OA?$LJ?X?P?E?O?$KC?$AA@ 00474f98     SEU_QQwry.obj
 0003:00000fac       ??_C@_0N@DEFN@?G?k?J?d?H?kIP?$LF?X?V?$LH?$AA@ 00474fac     SEU_QQwry.obj
 0003:00000fbc       ??_C@_02PIMC@?$AN?6?$AA@   00474fbc     ShellDlg.obj
 0003:00000fc0       ??_C@_0BA@JPKD@?2?2?$CFs?5?9?5?T?$LG?$LD?L?V?U?$LG?K?$AA@ 00474fc0     ShellDlg.obj
 0003:00000fd0       ??_C@_0O@GMLL@?$LD?L?P?r?B?$LH?$LO?$LG?5?1?5?$CFd?$AA@ 00474fd0     SystemDlg.obj
 0003:00000fe0       ??_C@_03PFPJ@?$CF5u?$AA@   00474fe0     SystemDlg.obj
 0003:00000fe4       ??_C@_0O@GANO@?$LE?$LA?$LP?Z?C?$PL?$LD?F?5?1?5?$CFd?$AA@ 00474fe4     SystemDlg.obj
 0003:00000ff4       ??_C@_04LGGB@?I?h?$LB?$LI?$AA@ 00474ff4     SystemDlg.obj
 0003:00000ffc       ??_C@_09BKHA@?$LF?g?$LL?$LA?1?V?w?$LL?z?$AA@ 00474ffc     SystemDlg.obj
 0003:00001008       ??_C@_04CABI@?C?$NM?B?k?$AA@ 00475008     SystemDlg.obj
 0003:00001010       ??_C@_04JHAD@?S?C?$LL?$KH?$AA@ 00475010     SystemDlg.obj
 0003:00001018       ??_C@_08DLID@?$LE?$LA?$LP?Z?C?$PL?$LD?F?$AA@ 00475018     SystemDlg.obj
 0003:00001024       ??_C@_08NAMI@?$LD?L?P?r?B?$LH?$LO?$LG?$AA@ 00475024     SystemDlg.obj
 0003:00001030       ??_C@_03KCAH@PID?$AA@      00475030     SystemDlg.obj
 0003:00001034       ??_C@_08NNGD@?S?$LD?O?q?C?$PL?$LD?F?$AA@ 00475034     SystemDlg.obj
 0003:00001040       ??_C@_08NMDF@?$LC?$KG?$LK?E?C?$NM?B?k?$AA@ 00475040     SystemDlg.obj
 0003:0000104c       ??_C@_08NLKF@?$LE?$LA?$LP?Z?$LJ?$NM?$MA?m?$AA@ 0047504c     SystemDlg.obj
 0003:00001058       ??_C@_08DKDB@?$LN?x?$LD?L?$LJ?$NM?$MA?m?$AA@ 00475058     SystemDlg.obj
 0003:00001064       ??_C@_0BA@OMDP@?2?2?$CFs?5?9?5?O?$LF?M?$LD?$LJ?$NM?$MA?m?$AA@ 00475064     SystemDlg.obj
 0003:00001074       ??_C@_0N@OCLP@?$LN?x?$LD?L?$LN?a?J?x?$LO?$KP?$LI?f?$AA@ 00475074     SystemDlg.obj
 0003:00001084       ??_C@_0BJ@JPJE@?$CFs?H?$LH?J?$LF?6?O?k?V?U?V?$LJ?$LI?C?O?n?$LN?x?$LD?L?B?p?$DP?$AA@ 00475084     SystemDlg.obj
 0003:000010a0       ??_C@_0BL@PLJL@?$CFs?H?$LH?J?$LF?6?O?k?V?U?V?$LJ?U?b?$CFd?O?n?$LN?x?$LD?L?B?p?$DP?$AA@ 004750a0     SystemDlg.obj
 0003:000010bc       ??_C@_0GP@DEBC@?$LO?$KP?$LI?f?3?5?V?U?V?$LJ?$LN?x?$LD?L?$LL?a?$LF?$LM?V?B?$LC?$LL?O?$KD?M?$PL?$LH?$KC?I?z?$LF?D@ 004750bc     SystemDlg.obj
 0003:0000112c       ??_C@_0BA@FEAO@CTabSDIFrameWnd?$AA@ 0047512c     TabSDIFrameWnd.obj
 0003:0000113c       ??_C@_0M@EFA@UxTheme?4dll?$AA@ 0047513c     ThemeUtil.obj
 0003:00001148       ??_C@_0O@FBIC@OpenThemeData?$AA@ 00475148     ThemeUtil.obj
 0003:00001158       ??_C@_0O@JDAJ@IsThemeActive?$AA@ 00475158     ThemeUtil.obj
 0003:00001168       ??_C@_0P@PCMA@CloseThemeData?$AA@ 00475168     ThemeUtil.obj
 0003:00001178       ??_C@_0O@GMEE@GetThemeColor?$AA@ 00475178     ThemeUtil.obj
 0003:00001188       ??_C@_0BC@GHHP@GetThemeEnumValue?$AA@ 00475188     ThemeUtil.obj
 0003:0000119c       ??_C@_0M@KBKJ@GetThemeInt?$AA@ 0047519c     ThemeUtil.obj
 0003:000011a8       ??_C@_0BA@MIOA@GetThemeMargins?$AA@ 004751a8     ThemeUtil.obj
 0003:000011b8       ??_C@_0BB@IMGI@GetThemeFilename?$AA@ 004751b8     ThemeUtil.obj
 0003:000011cc       ??_C@_0BE@LDKH@GetCurrentThemeName?$AA@ 004751cc     ThemeUtil.obj
 0003:000011e0       ??_C@_09MEJO@CTrayIcon?$AA@ 004751e0     TrayIcon.obj
 0003:000011ec       ??_C@_0BB@CHNF@?$LE?$LE?$LN?$KI?B?$LM?O?q?N?D?$LM?$PO?J?$KH?$LA?$NM?$AA@ 004751ec     WebCamDlg.obj
 0003:00001200       ??_C@_03POMH@avi?$AA@      00475200     WebCamDlg.obj
 0003:00001204       ??_C@_0BH@BAGO@?J?S?F?$LF?N?D?$LM?$PO?$CI?$CK?4avi?$CJ?$HM?$CK?4avi?$HM?$AA@ 00475204     WebCamDlg.obj
 0003:0000121c       ??_C@_0BH@LCDI@_?$CFY?9?$CFm?9?$CFd_?$CFH?9?$CFM?9?$CFS?4avi?$AA@ 0047521c     WebCamDlg.obj
 0003:00001234       ??_C@_09JLKM@352?5?$CK?5288?$AA@ 00475234     WebCamDlg.obj
 0003:00001240       ??_C@_09NCBG@176?5?$CK?5144?$AA@ 00475240     WebCamDlg.obj
 0003:0000124c       ??_C@_0N@DMFC@?$LB?$KD?$LE?f?B?$LM?O?q?$CI?$CGV?$CJ?$AA@ 0047524c     WebCamDlg.obj
 0003:0000125c       ??_C@_0N@IDFI@?J?S?F?$LF?Q?$LJ?K?u?$CI?$CGC?$CJ?$AA@ 0047525c     WebCamDlg.obj
 0003:0000126c       ??_C@_0BN@LDDL@?U?$PN?T?Z?B?$LM?O?q?V?P?$KD?$KM?$LC?$LL?D?$NM?$LF?w?U?$PL?J?S?F?$LF?$LE?s?P?$KB?$AA@ 0047526c     WebCamDlg.obj
 0003:0000128c       ??_C@_0O@IFKI@Recording?5?4?4?4?$AA@ 0047528c     WebCamDlg.obj
 0003:0000129c       ??_C@_05IOHI@1?41?44?$AA@  0047529c     zlib:compress.obj
 0003:000012a8       ??_C@_0BA@FKCH@need?5dictionary?$AA@ 004752a8     zlib:inflate.obj
 0003:000012b8       ??_C@_0BF@OBFI@incorrect?5data?5check?$AA@ 004752b8     zlib:inflate.obj
 0003:000012d0       ??_C@_0BH@NLIB@incorrect?5header?5check?$AA@ 004752d0     zlib:inflate.obj
 0003:000012e8       ??_C@_0BE@FAJE@invalid?5window?5size?$AA@ 004752e8     zlib:inflate.obj
 0003:000012fc       ??_C@_0BL@KPEJ@unknown?5compression?5method?$AA@ 004752fc     zlib:inflate.obj
 0003:00001318       _z_errmsg                  00475318     zlib:zutil.obj
 0003:00001340       ??_C@_0BF@HPBB@incompatible?5version?$AA@ 00475340     zlib:zutil.obj
 0003:00001358       ??_C@_0N@EHHN@buffer?5error?$AA@ 00475358     zlib:zutil.obj
 0003:00001368       ??_C@_0BE@EMHE@insufficient?5memory?$AA@ 00475368     zlib:zutil.obj
 0003:0000137c       ??_C@_0L@EBEB@data?5error?$AA@ 0047537c     zlib:zutil.obj
 0003:00001388       ??_C@_0N@OPOA@stream?5error?$AA@ 00475388     zlib:zutil.obj
 0003:00001398       ??_C@_0L@DFEP@file?5error?$AA@ 00475398     zlib:zutil.obj
 0003:000013a4       ??_C@_0L@JPFB@stream?5end?$AA@ 004753a4     zlib:zutil.obj
 0003:000013f4       ??_C@_0BK@BNJN@invalid?5bit?5length?5repeat?$AA@ 004753f4     zlib:infblock.obj
 0003:00001410       ??_C@_0CE@LAKP@too?5many?5length?5or?5distance?5symb@ 00475410     zlib:infblock.obj
 0003:00001434       ??_C@_0BN@DBOJ@invalid?5stored?5block?5lengths?$AA@ 00475434     zlib:infblock.obj
 0003:00001454       ??_C@_0BD@IFBC@invalid?5block?5type?$AA@ 00475454     zlib:infblock.obj
 0003:00001468       ??_C@_0BG@EGK@invalid?5distance?5code?$AA@ 00475468     zlib:infcodes.obj
 0003:00001480       ??_C@_0BM@CHJP@invalid?5literal?1length?5code?$AA@ 00475480     zlib:infcodes.obj
 0003:000025a8       ??_C@_0CE@MFNM@incomplete?5dynamic?5bit?5lengths?5t@ 004765a8     zlib:inftrees.obj
 0003:000025cc       ??_C@_0CI@BBGL@oversubscribed?5dynamic?5bit?5lengt@ 004765cc     zlib:inftrees.obj
 0003:000025f4       ??_C@_0BP@KPP@incomplete?5literal?1length?5tree?$AA@ 004765f4     zlib:inftrees.obj
 0003:00002614       ??_C@_0CD@ODII@oversubscribed?5literal?1length?5tr@ 00476614     zlib:inftrees.obj
 0003:00002638       ??_C@_0CB@INA@empty?5distance?5tree?5with?5lengths@ 00476638     zlib:inftrees.obj
 0003:0000265c       ??_C@_0BJ@NKOC@incomplete?5distance?5tree?$AA@ 0047665c     zlib:inftrees.obj
 0003:00002678       ??_C@_0BN@OAAG@oversubscribed?5distance?5tree?$AA@ 00476678     zlib:inftrees.obj
 0003:00002698       _inflate_mask              00476698     zlib:infutil.obj
 0003:000026dc       ?_afxNewHandler@@3P6AHI@ZA 004766dc     nafxcw:afxmem.obj
 0003:000026e0       ??_R0?AVCObject@@@8        004766e0     nafxcw:dlgcore.obj
 0003:000026f8       ??_R0?AVCCmdTarget@@@8     004766f8     nafxcw:dlgcore.obj
 0003:00002718       ??_R0?AVCWnd@@@8           00476718     nafxcw:dlgcore.obj
 0003:00002730       ??_R0?AVCDialog@@@8        00476730     nafxcw:dlgcore.obj
 0003:00002748       ??_R0PAVCException@@@8     00476748     nafxcw:dlgcore.obj
 0003:00002768       ??_R0?AVCCmdUI@@@8         00476768     nafxcw:wincore.obj
 0003:00002780       ??_R0?AVCTestCmdUI@@@8     00476780     nafxcw:wincore.obj
 0003:000027a0       ??_R0?AVCTempWnd@@@8       004767a0     nafxcw:wincore.obj
 0003:000027b8       ??_R0?AVCNoTrackObject@@@8 004767b8     nafxcw:wincore.obj
 0003:000027d8       ??_R0?AV_AFX_CTL3D_STATE@@@8 004767d8     nafxcw:wincore.obj
 0003:000027f8       ?_dispatchEntryCount@CCmdTarget@@0IA 004767f8     nafxcw:cmdtarg.obj
 0003:000027fc       ?_dwStockPropMask@CCmdTarget@@0KA 004767fc     nafxcw:cmdtarg.obj
 0003:00002800       ?_eventsinkEntryCount@CCmdTarget@@0IA 00476800     nafxcw:cmdtarg.obj
 0003:00002804       ?_afxPchNil@@3PBDB         00476804     nafxcw:strcore.obj
 0003:00002808       ?_afxDataNil@@3PAUCStringData@@A 00476808     nafxcw:strcore.obj
 0003:0000280c       ?_afxInitData@@3PAHA       0047680c     nafxcw:strcore.obj
 0003:00002820       ??_R0?AV_AFX_THREAD_STATE@@@8 00476820     nafxcw:afxstate.obj
 0003:00002840       ??_R0?AVAFX_MODULE_STATE@@@8 00476840     nafxcw:afxstate.obj
 0003:00002860       ??_R0?AVAFX_MODULE_THREAD_STATE@@@8 00476860     nafxcw:afxstate.obj
 0003:00002888       ??_R0?AV_AFX_BASE_MODULE_STATE@@@8 00476888     nafxcw:afxstate.obj
 0003:000028b0       ??_R0?AVCDC@@@8            004768b0     nafxcw:wingdi.obj
 0003:000028c8       ??_R0?AVCClientDC@@@8      004768c8     nafxcw:wingdi.obj
 0003:000028e0       ??_R0?AVCWindowDC@@@8      004768e0     nafxcw:wingdi.obj
 0003:000028f8       ??_R0?AVCPaintDC@@@8       004768f8     nafxcw:wingdi.obj
 0003:00002910       ??_R0?AVCGdiObject@@@8     00476910     nafxcw:wingdi.obj
 0003:00002930       ??_R0?AVCPen@@@8           00476930     nafxcw:wingdi.obj
 0003:00002948       ??_R0?AVCBrush@@@8         00476948     nafxcw:wingdi.obj
 0003:00002960       ??_R0?AVCTempDC@@@8        00476960     nafxcw:wingdi.obj
 0003:00002978       ??_R0?AVCTempGdiObject@@@8 00476978     nafxcw:wingdi.obj
 0003:00002998       ??_R0PAVCObject@@@8        00476998     nafxcw:wingdi.obj
 0003:000029b0       ??_R0PAVCSimpleException@@@8 004769b0     nafxcw:wingdi.obj
 0003:000029d0       ??_R0PAVCResourceException@@@8 004769d0     nafxcw:wingdi.obj
 0003:000029f8       ??_R0?AVCException@@@8     004769f8     nafxcw:wingdi.obj
 0003:00002a18       ??_R0?AVCSimpleException@@@8 00476a18     nafxcw:wingdi.obj
 0003:00002a38       ??_R0?AVCResourceException@@@8 00476a38     nafxcw:wingdi.obj
 0003:00002a60       ??_R0?AVCUserException@@@8 00476a60     nafxcw:wingdi.obj
 0003:00002a80       ??_R0?AVCButton@@@8        00476a80     nafxcw:winctrl1.obj
 0003:00002a98       ??_R0?AVCComboBox@@@8      00476a98     nafxcw:winctrl1.obj
 0003:00002ab0       ??_R0?AVCEdit@@@8          00476ab0     nafxcw:winctrl1.obj
 0003:00002ac8       ??_R0?AVCToolTipCtrl@@@8   00476ac8     nafxcw:tooltip.obj
 0003:00002ae8       ??_R0?AVCRgn@@@8           00476ae8     nafxcw:wingdix.obj
 0003:00002b00       ??_R0?AVCFile@@@8          00476b00     nafxcw:filecore.obj
 0003:00002b18       ??_R0?AVCFileException@@@8 00476b18     nafxcw:filecore.obj
 0003:00002b38       ??_R0?AVCView@@@8          00476b38     nafxcw:viewform.obj
 0003:00002b50       ??_R0?AVCScrollView@@@8    00476b50     nafxcw:viewform.obj
 0003:00002b70       ??_R0?AVCFormView@@@8      00476b70     nafxcw:viewform.obj
 0003:00002b88       ??_R0?AVCCommonDialog@@@8  00476b88     nafxcw:dlgfile.obj
 0003:00002ba8       ??_R0?AVCFileDialog@@@8    00476ba8     nafxcw:dlgfile.obj
 0003:00002bc8       ??_R0PAVCNotSupportedException@@@8 00476bc8     nafxcw:except.obj
 0003:00002bf0       ??_R0?AVCMemoryException@@@8 00476bf0     nafxcw:except.obj
 0003:00002c10       ??_R0?AVCNotSupportedException@@@8 00476c10     nafxcw:except.obj
 0003:00002c38       ??_R0PAVCArchiveException@@@8 00476c38     nafxcw:arccore.obj
 0003:00002c58       ??_R0?AVCListCtrl@@@8      00476c58     nafxcw:winctrl2.obj
 0003:00002c70       ??_R0?AVCProgressCtrl@@@8  00476c70     nafxcw:winctrl2.obj
 0003:00002c90       ??_R0?AVCHeaderCtrl@@@8    00476c90     nafxcw:winctrl2.obj
 0003:00002cb0       ??_R0?AVCTabCtrl@@@8       00476cb0     nafxcw:winctrl2.obj
 0003:00002cc8       ??_R0?AVCImageList@@@8     00476cc8     nafxcw:winctrl2.obj
 0003:00002ce8       ??_R0?AVCTempImageList@@@8 00476ce8     nafxcw:winctrl2.obj
 0003:00002d08       ??_R0?AVCControlBar@@@8    00476d08     nafxcw:barstat.obj
 0003:00002d28       ??_R0?AVCStatusBar@@@8     00476d28     nafxcw:barstat.obj
 0003:00002d48       ??_R0?AVCStatusCmdUI@@@8   00476d48     nafxcw:barstat.obj
 0003:00002d64       ?_afxComCtlVersion@@3HA    00476d64     nafxcw:bartool.obj
 0003:00002d68       ?_afxDropDownWidth@@3HA    00476d68     nafxcw:bartool.obj
 0003:00002d70       ??_R0?AVCToolBar@@@8       00476d70     nafxcw:bartool.obj
 0003:00002d88       ??_R0?AVCToolCmdUI@@@8     00476d88     nafxcw:bartool.obj
 0003:00002da8       ??_R0?AVCFileFind@@@8      00476da8     nafxcw:filefind.obj
 0003:00002dc0       ??_R0?AVCMenu@@@8          00476dc0     nafxcw:winmenu.obj
 0003:00002dd8       ??_R0?AVCTempMenu@@@8      00476dd8     nafxcw:winmenu.obj
 0003:00002df0       ?bStaticInit@CDocManager@@2HA 00476df0     nafxcw:appcore.obj
 0003:00002df8       ??_R0?AV_AFX_WIN_STATE@@@8 00476df8     nafxcw:appcore.obj
 0003:00002e18       ??_R0?AVCWinThread@@@8     00476e18     nafxcw:appcore.obj
 0003:00002e38       ??_R0?AVCWinApp@@@8        00476e38     nafxcw:appcore.obj
 0003:00002e50       ??_R0?AVCCommandLineInfo@@@8 00476e50     nafxcw:appcore.obj
 0003:00002e70       ??_R0?AV_AFX_CTL3D_THREAD@@@8 00476e70     nafxcw:thrdcore.obj
 0003:00002e90       ??_R0?AVCDocTemplate@@@8   00476e90     nafxcw:docsingl.obj
 0003:00002eb0       ??_R0?AVCSingleDocTemplate@@@8 00476eb0     nafxcw:docsingl.obj
 0003:00002ed8       ??_R0?AVCOccManager@@@8    00476ed8     nafxcw:occmgr.obj
 0003:00002ef8       ??_R0?AVCMirrorFile@@@8    00476ef8     nafxcw:doccore.obj
 0003:00002f18       ??_R0?AVCCtrlView@@@8      00476f18     nafxcw:viewcmn.obj
 0003:00002f30       ??_R0?AVCListView@@@8      00476f30     nafxcw:viewcmn.obj
 0003:00002f48       ??_R0?AVCFrameWnd@@@8      00476f48     nafxcw:winfrm.obj
 0003:00002f60       ??_R0?AUCThreadData@@@8    00476f60     nafxcw:afxtls.obj
 0003:00002f80       ??_R0?AVCHandleMap@@@8     00476f80     nafxcw:winhand.obj
 0003:00002fa0       ??_R0?AVCMapPtrToPtr@@@8   00476fa0     nafxcw:map_pp.obj
 0003:00002fc0       ??_R0?AVCPtrList@@@8       00476fc0     nafxcw:list_p.obj
 0003:00002fd8       ??_R0?AVCMapStringToPtr@@@8 00476fd8     nafxcw:map_sp.obj
 0003:00002ff8       ??_R0PAVCFileException@@@8 00476ff8     nafxcw:filex.obj
 0003:00003018       ??_R0?AVCArchiveException@@@8 00477018     nafxcw:arcex.obj
 0003:00003038       ??_R0?AUIUnknown@@@8       00477038     nafxcw:arcstrm.obj
 0003:00003050       ??_R0?AUISequentialStream@@@8 00477050     nafxcw:arcstrm.obj
 0003:00003070       ??_R0?AUIStream@@@8        00477070     nafxcw:arcstrm.obj
 0003:00003088       ??_R0?AVCArchiveStream@@@8 00477088     nafxcw:arcstrm.obj
 0003:000030a8       ??_R0?AVCDocManager@@@8    004770a8     nafxcw:docmgr.obj
 0003:000030c8       ??_R0?AVCNewTypeDlg@@@8    004770c8     nafxcw:docmgr.obj
 0003:000030e4       ?_dwStockPropMask@COleControlContainer@@0KA 004770e4     nafxcw:occcont.obj
 0003:000030e8       ?_dispatchEntryCount@COleControlContainer@@0IA 004770e8     nafxcw:occcont.obj
 0003:000030f0       ??_R0?AUIOleWindow@@@8     004770f0     nafxcw:occcont.obj
 0003:00003110       ??_R0?AUIOleInPlaceUIWindow@@@8 00477110     nafxcw:occcont.obj
 0003:00003138       ??_R0?AUIOleInPlaceFrame@@@8 00477138     nafxcw:occcont.obj
 0003:00003158       ??_R0?AVXOleIPFrame@COleControlContainer@@@8 00477158     nafxcw:occcont.obj
 0003:00003188       ??_R0?AVCOleControlContainer@@@8 00477188     nafxcw:occcont.obj
 0003:000031b0       ??_R0?AUIParseDisplayName@@@8 004771b0     nafxcw:occcont.obj
 0003:000031d0       ??_R0?AUIOleContainer@@@8  004771d0     nafxcw:occcont.obj
 0003:000031f0       ??_R0?AVXOleContainer@COleControlContainer@@@8 004771f0     nafxcw:occcont.obj
 0003:00003228       ??_R0?AVCFont@@@8          00477228     nafxcw:occcont.obj
 0003:00003240       ??_R0?AVCEnumArray@@@8     00477240     nafxcw:occcont.obj
 0003:00003260       ??_R0?AVCEnumUnknown@@@8   00477260     nafxcw:occcont.obj
 0003:00003280       ??_R0?AUIRowsetNotify@@@8  00477280     nafxcw:occsite.obj
 0003:000032a0       ??_R0?AVXRowsetNotify@COleControlSite@@@8 004772a0     nafxcw:occsite.obj
 0003:000032d0       ??_R0?AUIOleInPlaceSite@@@8 004772d0     nafxcw:occsite.obj
 0003:000032f0       ??_R0?AVXOleIPSite@COleControlSite@@@8 004772f0     nafxcw:occsite.obj
 0003:00003320       ??_R0?AUINotifyDBEvents@@@8 00477320     nafxcw:occsite.obj
 0003:00003340       ??_R0?AVXNotifyDBEvents@COleControlSite@@@8 00477340     nafxcw:occsite.obj
 0003:00003370       ??_R0?AUIOleClientSite@@@8 00477370     nafxcw:occsite.obj
 0003:00003390       ??_R0?AVXOleClientSite@COleControlSite@@@8 00477390     nafxcw:occsite.obj
 0003:000033c0       ??_R0?AUIBoundObjectSite@@@8 004773c0     nafxcw:occsite.obj
 0003:000033e0       ??_R0?AVXBoundObjectSite@COleControlSite@@@8 004773e0     nafxcw:occsite.obj
 0003:00003410       ??_R0?AVXEventSink@COleControlSite@@@8 00477410     nafxcw:occsite.obj
 0003:00003440       ??_R0?AVCOleControlSite@@@8 00477440     nafxcw:occsite.obj
 0003:00003460       ??_R0?AUIPropertyNotifySink@@@8 00477460     nafxcw:occsite.obj
 0003:00003488       ??_R0?AVXPropertyNotifySink@COleControlSite@@@8 00477488     nafxcw:occsite.obj
 0003:000034c0       ??_R0?AUIDispatch@@@8      004774c0     nafxcw:occsite.obj
 0003:000034d8       ??_R0?AVXAmbientProps@COleControlSite@@@8 004774d8     nafxcw:occsite.obj
 0003:00003508       ??_R0?AUIOleControlSite@@@8 00477508     nafxcw:occsite.obj
 0003:00003528       ??_R0?AVXOleControlSite@COleControlSite@@@8 00477528     nafxcw:occsite.obj
 0003:00003558       ??_R0?AVCDataSourceControl@@@8 00477558     nafxcw:occsite.obj
 0003:00003580       __GUID_0c733a05_2a1c_11ce_ade5_00aa0044773d 00477580     nafxcw:occsite.obj
 0003:00003590       __GUID_0c733a11_2a1c_11ce_ade5_00aa0044773d 00477590     nafxcw:occsite.obj
 0003:000035a0       __GUID_0c733a8c_2a1c_11ce_ade5_00aa0044773d 004775a0     nafxcw:occsite.obj
 0003:000035b0       ??_R0?AVCMemFile@@@8       004775b0     nafxcw:filemem.obj
 0003:000035c8       ??_R0?AVCDockContext@@@8   004775c8     nafxcw:dockcont.obj
 0003:000035e8       ??_R0PAVCOleException@@@8  004775e8     nafxcw:oledisp1.obj
 0003:00003608       ??_R0?AVCOleDispatchException@@@8 00477608     nafxcw:oledisp1.obj
 0003:00003630       ??_R0PAVCOleDispatchException@@@8 00477630     nafxcw:oledisp1.obj
 0003:00003654       ?_afxMonthDays@@3PAHA      00477654     nafxcw:olevar.obj
 0003:00003688       ??_R0?AUIEnumVOID@@@8      00477688     nafxcw:oleenum.obj
 0003:000036a0       ??_R0?AVXEnumVOID@CEnumArray@@@8 004776a0     nafxcw:oleenum.obj
 0003:000036c4       ?_afxTickCount@@3KA        004776c4     nafxcw:oleinit.obj
 0003:000036c8       ??_R0?AVCOleException@@@8  004776c8     nafxcw:olemisc.obj
 0003:000036e8       ??_R0?AVCOleMessageFilter@@@8 004776e8     nafxcw:olemsgf.obj
 0003:00003708       ??_R0?AUIMessageFilter@@@8 00477708     nafxcw:olemsgf.obj
 0003:00003728       ??_R0?AVXMessageFilter@COleMessageFilter@@@8 00477728     nafxcw:olemsgf.obj
 0003:00003758       ??_R0?AVCOleDialog@@@8     00477758     nafxcw:oledlgs2.obj
 0003:00003778       ??_R0?AVCOleBusyDialog@@@8 00477778     nafxcw:oledlgs2.obj
 0003:00003798       ??_R0?AV_AFX_OLE_STATE@@@8 00477798     nafxcw:oledata.obj
 0003:000037b8       ??_C@_0M@OLOG@CCJListView?$AA@ 004777b8     CJ60StaticLib:CJListView.obj
 0003:000037c4       ??_C@_03NBMA@?$CFd?0?$AA@  004777c4     CJ60StaticLib:CJListView.obj
 0003:000037c8       ??_C@_07FNBF@Control?$AA@  004777c8     CJ60StaticLib:CJListView.obj
 0003:000037d0       __NLG_Destination          004777d0     LIBCMT:exsup.obj
 0003:000037e0       __fltused                  004777e0     LIBCMT:fpinit.obj
 0003:000037e4       __ldused                   004777e4     LIBCMT:fpinit.obj
 0003:000037e8       __FPinit                   004777e8     LIBCMT:fpinit.obj
 0003:000037ec       __FPmtinit                 004777ec     LIBCMT:fpinit.obj
 0003:000037f0       __FPmtterm                 004777f0     LIBCMT:fpinit.obj
 0003:000037f8       ??_R0?AVtype_info@@@8      004777f8     LIBCMT:typinfo.obj
 0003:00003810       ?__pMyUnhandledExceptionFilter@@3PAXA 00477810     LIBCMT:throw.obj
 0003:00003814       __aexit_rtn                00477814     LIBCMT:wincrt0.obj
 0003:00003818       ___app_type                00477818     LIBCMT:wincrt0.obj
 0003:00003918       ___lc_time_curr            00477918     LIBCMT:strftime.obj
 0003:00003920       ___lc_time_c               00477920     LIBCMT:strftime.obj
 0003:00003b50       ___tlsindex                00477b50     LIBCMT:tidtable.obj
 0003:00003b54       ?__pInconsistency@@3P6AXXZA 00477b54     LIBCMT:hooks.obj
 0003:00003b58       __cfltcvt_tab              00477b58     LIBCMT:cmiscdat.obj
 0003:00003b70       __locktable                00477b70     LIBCMT:mlock.obj
 0003:00003c30       __XcptActTab               00477c30     LIBCMT:winxfltr.obj
 0003:00003ca8       __First_FPE_Indx           00477ca8     LIBCMT:winxfltr.obj
 0003:00003cac       __Num_FPE                  00477cac     LIBCMT:winxfltr.obj
 0003:00003cb0       __XcptActTabSize           00477cb0     LIBCMT:winxfltr.obj
 0003:00003cb4       __XcptActTabCount          00477cb4     LIBCMT:winxfltr.obj
 0003:00003cb8       ___badioinfo               00477cb8     LIBCMT:ioinit.obj
 0003:00003cdc       __amblksiz                 00477cdc     LIBCMT:heapinit.obj
 0003:00003d70       ___old_small_block_heap    00477d70     LIBCMT:sbheap.obj
 0003:00005d94       ___old_sbh_threshold       00479d94     LIBCMT:sbheap.obj
 0003:00005da0       __pctype                   00479da0     LIBCMT:ctype.obj
 0003:00005da4       __pwctype                  00479da4     LIBCMT:ctype.obj
 0003:00005da8       __ctype                    00479da8     LIBCMT:ctype.obj
 0003:00005fac       ___mb_cur_max              00479fac     LIBCMT:nlsdata1.obj
 0003:00005fb0       ___decimal_point           00479fb0     LIBCMT:nlsdata1.obj
 0003:00005fb4       ___decimal_point_length    00479fb4     LIBCMT:nlsdata1.obj
 0003:00005fc0       ___nullstring              00479fc0     LIBCMT:output.obj
 0003:00005fc4       ___wnullstring             00479fc4     LIBCMT:output.obj
 0003:00005fd0       __timezone                 00479fd0     LIBCMT:timeset.obj
 0003:00005fd4       __daylight                 00479fd4     LIBCMT:timeset.obj
 0003:00005fd8       __dstbias                  00479fd8     LIBCMT:timeset.obj
 0003:0000605c       __tzname                   0047a05c     LIBCMT:timeset.obj
 0003:00006084       __lpdays                   0047a084     LIBCMT:days.obj
 0003:000060b8       __days                     0047a0b8     LIBCMT:days.obj
 0003:000062d8       __d_inf                    0047a2d8     LIBCMT:util.obj
 0003:000062e0       __d_ind                    0047a2e0     LIBCMT:util.obj
 0003:000062e8       __d_max                    0047a2e8     LIBCMT:util.obj
 0003:000062f0       __d_min                    0047a2f0     LIBCMT:util.obj
 0003:000062f8       __d_mzero                  0047a2f8     LIBCMT:util.obj
 0003:00006350       __iob                      0047a350     LIBCMT:_file.obj
 0003:000065d0       __matherr_flag             0047a5d0     LIBCMT:matherr.obj
 0003:000065d8       ___lconv_static_decimal    0047a5d8     LIBCMT:lconv.obj
 0003:000065e0       ___lconv_c                 0047a5e0     LIBCMT:lconv.obj
 0003:00006610       ___lconv                   0047a610     LIBCMT:lconv.obj
 0003:00006620       __pow10pos                 0047a620     LIBCMT:constpow.obj
 0003:00006780       __pow10neg                 0047a780     LIBCMT:constpow.obj
 0003:000068dc       ??_C@_04OJPN@edit?$AA@     0047a8dc     ctl3d32s:CTL3D.OBJ
 0003:000068e4       ??_C@_07PAH@hangeul?$AA@   0047a8e4     ctl3d32s:CTL3D.OBJ
 0003:000068ec       ??_C@_05GCGK@kanji?$AA@    0047a8ec     ctl3d32s:CTL3D.OBJ
 0003:000068f4       ??_C@_07ELCN@english?$AA@  0047a8f4     ctl3d32s:CTL3D.OBJ
 0003:000068fc       ??_C@_05BJDJ@roman?$AA@    0047a8fc     ctl3d32s:CTL3D.OBJ
 0003:00006904       ??_C@_0M@ODOG@hangeulmenu?$AA@ 0047a904     ctl3d32s:CTL3D.OBJ
 0003:00006910       ??_C@_09IBMG@kanjimenu?$AA@ 0047a910     ctl3d32s:CTL3D.OBJ
 0003:0000691c       ??_C@_07CIAP@windows?$AA@  0047a91c     ctl3d32s:CTL3D.OBJ
 0003:00006924       ??_C@_07LEGE@C3dHNew?$AA@  0047a924     ctl3d32s:CTL3D.OBJ
 0003:0000692c       ??_C@_07CBCM@C3dLNew?$AA@  0047a92c     ctl3d32s:CTL3D.OBJ
 0003:00006934       ??_C@_06JKNM@C3dNew?$AA@   0047a934     ctl3d32s:CTL3D.OBJ
 0003:0000693c       ??_C@_04HKNC@C3dH?$AA@     0047a93c     ctl3d32s:CTL3D.OBJ
 0003:00006944       ??_C@_04NAIO@C3dL?$AA@     0047a944     ctl3d32s:CTL3D.OBJ
 0003:0000694c       ??_C@_03KKOJ@C3d?$AA@      0047a94c     ctl3d32s:CTL3D.OBJ
 0003:00006950       ??_C@_04IEDG@C3dD?$AA@     0047a950     ctl3d32s:CTL3D.OBJ
 0003:00006958       ??_C@_06KBFD@?$CD32770?$AA@ 0047a958     ctl3d32s:CTL3D.OBJ
 0003:00006960       ??_C@_0BK@DNHG@DisableThreadLibraryCalls?$AA@ 0047a960     ctl3d32s:CTL3D.OBJ
 0003:0000697c       ??_C@_0N@MMAA@KERNEL32?4DLL?$AA@ 0047a97c     ctl3d32s:CTL3D.OBJ
 0003:00006990       ??_R0?AVCUIntArray@@@8     0047a990     nafxcw:array_u.obj
 0003:000069b0       ?classCStringArray@CStringArray@@2UCRuntimeClass@@A 0047a9b0     nafxcw:array_s.obj
 0003:000069c8       ??_R0?AVCStringArray@@@8   0047a9c8     nafxcw:array_s.obj
 0003:000069e8       ??_C@_00A@?$AA@            0047a9e8     AudioDlg.obj
 0003:000069f0       ?m_si@CBmpToAvi@@0U_AVISTREAMINFOA@@A 0047a9f0     BmpToAvi.obj
 0003:00006a90       ?theApp@@3VCGh0stApp@@A    0047aa90     gh0st.obj
 0003:00006b64       ?g_Column_Count@@3HA       0047ab64     gh0stView.obj
 0003:00006b6c       ?g_Column_Width@@3HA       0047ab6c     gh0stView.obj
 0003:00006b70       ?m_cs@CIOCPServer@@2U_RTL_CRITICAL_SECTION@@A 0047ab70     IOCPServer.obj
 0003:00006ba4       ?g_pFrame@@3PAVCMainFrame@@A 0047aba4     MainFrm.obj
 0003:00006ba8       ?m_PassWord@@3VCString@@A  0047aba8     MainFrm.obj
 0003:00006bb0       ?g_pConnectView@@3PAVCGh0stView@@A 0047abb0     MainFrm.obj
 0003:00006bb4       ?m_iocpServer@@3PAVCIOCPServer@@A 0047abb4     MainFrm.obj
 0003:00006bb8       __afxForceEXCLUDE          0047abb8     nafxcw:nolib.obj
 0003:00006bc4       ?_afxGotScrollLines@@3HA   0047abc4     nafxcw:wincore.obj
 0003:00006bc8       ?_afxMsgCache@@3PAUAFX_MSG_CACHE@@A 0047abc8     nafxcw:wincore.obj
 0003:000083c8       ?s_alloc@CTempWnd@@1VCFixedAlloc@@A 0047c3c8     nafxcw:wincore.obj
 0003:000083f0       ?wndNoTopMost@CWnd@@2V1@B  0047c3f0     nafxcw:wincore.obj
 0003:00008430       ?wndTopMost@CWnd@@2V1@B    0047c430     nafxcw:wincore.obj
 0003:00008470       ?wndBottom@CWnd@@2V1@B     0047c470     nafxcw:wincore.obj
 0003:000084b0       ?wndTop@CWnd@@2V1@B        0047c4b0     nafxcw:wincore.obj
 0003:000084ec       ?m_nMsgDragList@CWnd@@1IB  0047c4ec     nafxcw:wincore.obj
 0003:000084f0       _g_pfnGetSystemMetrics     0047c4f0     nafxcw:wincore.obj
 0003:000084f4       _g_pfnMonitorFromWindow    0047c4f4     nafxcw:wincore.obj
 0003:000084f8       _g_pfnMonitorFromRect      0047c4f8     nafxcw:wincore.obj
 0003:000084fc       _g_pfnMonitorFromPoint     0047c4fc     nafxcw:wincore.obj
 0003:00008500       _g_pfnGetMonitorInfo       0047c500     nafxcw:wincore.obj
 0003:00008504       _g_pfnEnumDisplayMonitors  0047c504     nafxcw:wincore.obj
 0003:00008508       _g_fMultiMonInitDone       0047c508     nafxcw:wincore.obj
 0003:00008510       ?_afxAlloc512@@3VCFixedAlloc@@A 0047c510     nafxcw:strcore.obj
 0003:00008538       ?_afxAlloc256@@3VCFixedAlloc@@A 0047c538     nafxcw:strcore.obj
 0003:00008560       ?_afxAlloc128@@3VCFixedAlloc@@A 0047c560     nafxcw:strcore.obj
 0003:00008588       ?_afxAlloc64@@3VCFixedAlloc@@A 0047c588     nafxcw:strcore.obj
 0003:000085b0       ?afxChNil@@3DA             0047c5b0     nafxcw:strcore.obj
 0003:000085b4       ?_afxBaseModuleState@@3V?$CProcessLocal@V_AFX_BASE_MODULE_STATE@@@@A 0047c5b4     nafxcw:afxstate.obj
 0003:000085b8       ?_afxThreadState@@3V?$CThreadLocal@V_AFX_THREAD_STATE@@@@A 0047c5b8     nafxcw:afxstate.obj
 0003:000085c8       ?_simpleUserException@@3VCUserException@@A 0047c5c8     nafxcw:wingdi.obj
 0003:00008660       ?_simpleResourceException@@3VCResourceException@@A 0047c660     nafxcw:wingdi.obj
 0003:000086f8       ?s_alloc@CTempGdiObject@@1VCFixedAlloc@@A 0047c6f8     nafxcw:wingdi.obj
 0003:00008720       ?s_alloc@CTempDC@@1VCFixedAlloc@@A 0047c720     nafxcw:wingdi.obj
 0003:00008748       ?_afxHalftoneBrush@@3PAUHBRUSH__@@A 0047c748     nafxcw:wingdix.obj
 0003:0000874c       ?_afxWingdixTerm@@3DA      0047c74c     nafxcw:wingdix.obj
 0003:00008760       ?_simpleNotSupportedException@@3VCNotSupportedException@@A 0047c760     nafxcw:except.obj
 0003:000087f8       ?_simpleMemoryException@@3VCMemoryException@@A 0047c7f8     nafxcw:except.obj
 0003:00008898       ?s_alloc@CTempImageList@@1VCFixedAlloc@@A 0047c898     nafxcw:winctrl2.obj
 0003:000088c8       ?s_alloc@CTempMenu@@1VCFixedAlloc@@A 0047c8c8     nafxcw:winmenu.obj
 0003:000088f0       ?_afxWinState@@3V?$CProcessLocal@V_AFX_WIN_STATE@@@@A 0047c8f0     nafxcw:appcore.obj
 0003:000088f4       ?pStaticDocManager@CDocManager@@2PAV1@A 0047c8f4     nafxcw:appcore.obj
 0003:000088f8       ?pStaticList@CDocManager@@2PAVCPtrList@@A 0047c8f8     nafxcw:appcore.obj
 0003:000088fc       ?_afxOccManager@@3V?$CProcessLocal@VCOccManager@@@@A 0047c8fc     nafxcw:occmgr.obj
 0003:00008900       ?_afxMsgMouseWheel@@3IA    0047c900     nafxcw:winfrm.obj
 0003:00008908       ?rectDefault@CFrameWnd@@2VCRect@@B 0047c908     nafxcw:winfrm.obj
 0003:00008918       ?_afxTlsRef@@3JA           0047c918     nafxcw:afxtls.obj
 0003:0000891c       ?_afxThreadData@@3PAVCThreadSlotData@@A 0047c91c     nafxcw:afxtls.obj
 0003:00008920       ?__afxThreadData@@3PAEA    0047c920     nafxcw:afxtls.obj
 0003:00008954       ?_afxCtl3dThread@@3V?$CThreadLocal@V_AFX_CTL3D_THREAD@@@@A 0047c954     nafxcw:app3d.obj
 0003:00008958       ?_afxCtl3dState@@3V?$CProcessLocal@V_AFX_CTL3D_STATE@@@@A 0047c958     nafxcw:app3d.obj
 0003:00008960       ?afxData@@3UAUX_DATA@@A    0047c960     nafxcw:auxdata.obj
 0003:000089cc       ?_afxDBCS@@3HB             0047c9cc     nafxcw:afxdbcs.obj
 0003:000089d0       ?_afxLockInit@@3PAHA       0047c9d0     nafxcw:afxcrit.obj
 0003:00008a18       ?_afxLockInitLock@@3U_RTL_CRITICAL_SECTION@@A 0047ca18     nafxcw:afxcrit.obj
 0003:00008a30       ?_afxResourceLock@@3PAU_RTL_CRITICAL_SECTION@@A 0047ca30     nafxcw:afxcrit.obj
 0003:00008bc8       ?_afxCriticalWin32s@@3HA   0047cbc8     nafxcw:afxcrit.obj
 0003:00008bcc       ?_afxCriticalInit@@3HA     0047cbcc     nafxcw:afxcrit.obj
 0003:00008bd0       ?_afxMsgSETRGB@@3IA        0047cbd0     nafxcw:dlgcomm.obj
 0003:00008bd4       ?_afxMsgHELP@@3IA          0047cbd4     nafxcw:dlgcomm.obj
 0003:00008bd8       ?_afxMsgCOLOROK@@3IA       0047cbd8     nafxcw:dlgcomm.obj
 0003:00008bdc       ?_afxMsgFILEOK@@3IA        0047cbdc     nafxcw:dlgcomm.obj
 0003:00008be0       ?_afxMsgSHAREVI@@3IA       0047cbe0     nafxcw:dlgcomm.obj
 0003:00008be4       ?_afxMsgLBSELCHANGE@@3IA   0047cbe4     nafxcw:dlgcomm.obj
 0003:00008bf8       ?_afxTickInit@@3HA         0047cbf8     nafxcw:oleinit.obj
 0003:00008c00       ?_oleData@@3UOLE_DATA@@A   0047cc00     nafxcw:oleinit.obj
 0003:00008c30       ?_afx_sizeMiniSys@@3UtagSIZE@@A 0047cc30     nafxcw:winmini.obj
 0003:00008c38       ?_afx_hfontMiniSys@@3PAUHFONT__@@A 0047cc38     nafxcw:winmini.obj
 0003:00008c3c       ?_afx_hbmMiniSys@@3PAUHBITMAP__@@A 0047cc3c     nafxcw:winmini.obj
 0003:00008c40       ?_afxWinminiTerm@@3HA      0047cc40     nafxcw:winmini.obj
 0003:00008c44       ?_afxOleState@@3V?$CProcessLocal@V_AFX_OLE_STATE@@@@A 0047cc44     nafxcw:oledata.obj
 0003:00008c48       ___fastflag                0047cc48     LIBCMT:fpinit.obj
 0003:00008c4c       __adjust_fdiv              0047cc4c     LIBCMT:fpinit.obj
 0003:00008c50       __aenvptr                  0047cc50     LIBCMT:wincrt0.obj
 0003:00008c54       __wenvptr                  0047cc54     LIBCMT:wincrt0.obj
 0003:00008c58       ___error_mode              0047cc58     LIBCMT:wincrt0.obj
 0003:00008ca0       __umaskval                 0047cca0     LIBCMT:crt0dat.obj
 0003:00008ca4       __osver                    0047cca4     LIBCMT:crt0dat.obj
 0003:00008ca8       __winver                   0047cca8     LIBCMT:crt0dat.obj
 0003:00008cac       __winmajor                 0047ccac     LIBCMT:crt0dat.obj
 0003:00008cb0       __winminor                 0047ccb0     LIBCMT:crt0dat.obj
 0003:00008cb4       ___argc                    0047ccb4     LIBCMT:crt0dat.obj
 0003:00008cb8       ___argv                    0047ccb8     LIBCMT:crt0dat.obj
 0003:00008cbc       ___wargv                   0047ccbc     LIBCMT:crt0dat.obj
 0003:00008cc0       __environ                  0047ccc0     LIBCMT:crt0dat.obj
 0003:00008cc4       ___initenv                 0047ccc4     LIBCMT:crt0dat.obj
 0003:00008cc8       __wenviron                 0047ccc8     LIBCMT:crt0dat.obj
 0003:00008ccc       ___winitenv                0047cccc     LIBCMT:crt0dat.obj
 0003:00008cd0       __pgmptr                   0047ccd0     LIBCMT:crt0dat.obj
 0003:00008cd4       __wpgmptr                  0047ccd4     LIBCMT:crt0dat.obj
 0003:00008cd8       __exitflag                 0047ccd8     LIBCMT:crt0dat.obj
 0003:00008cdc       __C_Termination_Done       0047ccdc     LIBCMT:crt0dat.obj
 0003:00008ce0       __C_Exit_Done              0047cce0     LIBCMT:crt0dat.obj
 0003:00008e54       __adbgmsg                  0047ce54     LIBCMT:crt0msg.obj
 0003:00008e58       ?_pnhHeap@@3P6AHI@ZA       0047ce58     LIBCMT:handler.obj
 0003:00008e5c       __newmode                  0047ce5c     LIBCMT:_newmode.obj
 0003:00008f2c       ___lc_handle               0047cf2c     LIBCMT:nlsdata2.obj
 0003:00008f44       ___lc_codepage             0047cf44     LIBCMT:nlsdata2.obj
 0003:00008f48       ___lc_collate_cp           0047cf48     LIBCMT:nlsdata2.obj
 0003:00008f64       __cflush                   0047cf64     LIBCMT:_file.obj
 0003:00008f68       ___lc_time_intl            0047cf68     LIBCMT:inittime.obj
 0003:00008f84       ___lc_id                   0047cf84     LIBCMT:nlsdata3.obj
 0003:00008fe8       ___lconv_static_null       0047cfe8     LIBCMT:lconv.obj
 0003:00009008       ?_init_CStringArray@@3UAFX_CLASSINIT@@A 0047d008     nafxcw:array_s.obj
 0003:0000900c       ?_afxInitAppState@@3DA     0047d00c     nafxcw:appmodul.obj
 0003:00009010       ___piob                    0047d010     <common>
 0003:00009020       __bufin                    0047d020     <common>
 0003:0000a020       __nstream                  0047e020     <common>
 0003:0000a024       ___setlc_active            0047e024     <common>
 0003:0000a028       ___unguarded_readlc_active 0047e028     <common>
 0003:0000a02c       ___sbh_sizeHeaderList      0047e02c     <common>
 0003:0000a030       ___sbh_indGroupDefer       0047e030     <common>
 0003:0000a034       ___sbh_pHeaderScan         0047e034     <common>
 0003:0000a038       ___sbh_pHeaderDefer        0047e038     <common>
 0003:0000a03c       ___sbh_cntHeaderList       0047e03c     <common>
 0003:0000a040       ___sbh_pHeaderList         0047e040     <common>
 0003:0000a044       ___sbh_threshold           0047e044     <common>
 0003:0000a048       __crtheap                  0047e048     <common>
 0003:0000a04c       ___active_heap             0047e04c     <common>
 0003:0000a060       ___pioinfo                 0047e060     <common>
 0003:0000a160       __nhandle                  0047e160     <common>
 0003:0000a164       ___env_initialized         0047e164     <common>
 0003:0000a168       ___mbctype_initialized     0047e168     <common>
 0003:0000a16c       ___onexitend               0047e16c     <common>
 0003:0000a170       ___onexitbegin             0047e170     <common>
 0003:0000a174       ___alternate_form          0047e174     <common>
 0003:0000a178       ___no_lead_zeros           0047e178     <common>
 0003:0000a17c       ___mbcodepage              0047e17c     <common>
 0003:0000a180       ___mbulinfo                0047e180     <common>
 0003:0000a18c       ___ismbcodepage            0047e18c     <common>
 0003:0000a1a0       __mbcasemap                0047e1a0     <common>
 0003:0000a2a0       __mbctype                  0047e2a0     <common>
 0003:0000a3a4       ___mblcid                  0047e3a4     <common>
 0003:0000a3a8       __acmdln                   0047e3a8     <common>
 0003:0000a3c0       _g_CriticalSection         0047e3c0     <common>
 0003:0000a3e0       _g3d                       0047e3e0     <common>

 entry point at        0001:0002f649

 Static symbols

 0001:00015850       _$E334                     00416850 f   MainFrm.obj
 0001:00015860       _$E331                     00416860 f   MainFrm.obj
 0001:00015870       _$E333                     00416870 f   MainFrm.obj
 0001:00015880       _$E332                     00416880 f   MainFrm.obj
 0001:00010fc0       _$E342                     00411fc0 f   gh0stView.obj
 0001:00010fd0       _$E341                     00411fd0 f   gh0stView.obj
 0001:00010bc0       _$E317                     00411bc0 f   gh0st.obj
 0001:00010bd0       _$E314                     00411bd0 f   gh0st.obj
 0001:00010be0       _$E316                     00411be0 f   gh0st.obj
 0001:00010bf0       _$E315                     00411bf0 f   gh0st.obj
 0001:00023860       _huft_build                00424860 f   zlib:inftrees.obj
 0001:00020610       _tr_static_init            00421610 f   zlib:trees.obj
 0001:00020620       _init_block                00421620 f   zlib:trees.obj
 0001:00020b80       _build_tree                00421b80 f   zlib:trees.obj
 0001:00020dc0       _pqdownheap                00421dc0 f   zlib:trees.obj
 0001:00020ea0       _gen_bitlen                00421ea0 f   zlib:trees.obj
 0001:000210d0       _gen_codes                 004220d0 f   zlib:trees.obj
 0001:00021150       _build_bl_tree             00422150 f   zlib:trees.obj
 0001:000211c0       _scan_tree                 004221c0 f   zlib:trees.obj
 0001:000212b0       _send_all_trees            004222b0 f   zlib:trees.obj
 0001:00021520       _send_tree                 00422520 f   zlib:trees.obj
 0001:00021aa0       _compress_block            00422aa0 f   zlib:trees.obj
 0001:00021ee0       _set_data_type             00422ee0 f   zlib:trees.obj
 0001:00021f60       _bi_reverse                00422f60 f   zlib:trees.obj
 0001:00021f80       _bi_flush                  00422f80 f   zlib:trees.obj
 0001:00022010       _bi_windup                 00423010 f   zlib:trees.obj
 0001:00022090       _copy_block                00423090 f   zlib:trees.obj
 0001:0001f060       _putShortMSB               00420060 f   zlib:deflate.obj
 0001:0001f090       _flush_pending             00420090 f   zlib:deflate.obj
 0001:0001f1c0       _lm_init                   004201c0 f   zlib:deflate.obj
 0001:0001f260       _deflate_stored            00420260 f   zlib:deflate.obj
 0001:0001f3c0       _fill_window               004203c0 f   zlib:deflate.obj
 0001:0001f4f0       _read_buf                  004204f0 f   zlib:deflate.obj
 0001:0001f570       _deflate_fast              00420570 f   zlib:deflate.obj
 0001:0001f8a0       _longest_match             004208a0 f   zlib:deflate.obj
 0001:0001fa10       _deflate_slow              00420a10 f   zlib:deflate.obj
 0001:0003df00       _$E366                     0043ef00 f   nafxcw:appmodul.obj
 0001:0003df05       _$E365                     0043ef05 f   nafxcw:appmodul.obj
 0001:00040443       ?DestructElements@@YAXPAVCString@@H@Z 00441443 f   nafxcw:array_s.obj
 0001:00040582       ?ConstructElements@@YAXPAVCString@@H@Z 00441582 f   nafxcw:array_s.obj
 0001:00057d83       _$E366                     00458d83 f   nafxcw:array_s.obj
 0001:00057d88       _$E365                     00458d88 f   nafxcw:array_s.obj
 0001:00057d3f       _$E368                     00458d3f f   nafxcw:oledata.obj
 0001:00057d49       _$E365                     00458d49 f   nafxcw:oledata.obj
 0001:00057d4a       _$E367                     00458d4a f   nafxcw:oledata.obj
 0001:00057d56       _$E366                     00458d56 f   nafxcw:oledata.obj
 0001:00053ff6       _$E366                     00454ff6 f   nafxcw:winmini.obj
 0001:00053ffb       _$E365                     00454ffb f   nafxcw:winmini.obj
 0001:00057a1d       _$E366                     00458a1d f   nafxcw:oleinit.obj
 0001:00057a22       _$E365                     00458a22 f   nafxcw:oleinit.obj
 0001:00056e04       _$E366                     00457e04 f   nafxcw:afxdbcs.obj
 0001:00056e09       _$E365                     00457e09 f   nafxcw:afxdbcs.obj
 0001:00056cca       _$E368                     00457cca f   nafxcw:auxdata.obj
 0001:00056cd4       _$E365                     00457cd4 f   nafxcw:auxdata.obj
 0001:00056cde       _$E367                     00457cde f   nafxcw:auxdata.obj
 0001:00056cea       _$E366                     00457cea f   nafxcw:auxdata.obj
 0001:00056c88       _$E368                     00457c88 f   nafxcw:app3d.obj
 0001:00056c92       _$E365                     00457c92 f   nafxcw:app3d.obj
 0001:00056c93       _$E367                     00457c93 f   nafxcw:app3d.obj
 0001:00056c9f       _$E366                     00457c9f f   nafxcw:app3d.obj
 0001:00056ca9       _$E373                     00457ca9 f   nafxcw:app3d.obj
 0001:00056cb3       _$E370                     00457cb3 f   nafxcw:app3d.obj
 0001:00056cb4       _$E372                     00457cb4 f   nafxcw:app3d.obj
 0001:00056cc0       _$E371                     00457cc0 f   nafxcw:app3d.obj
 0001:00051d51       _$E366                     00452d51 f   nafxcw:winfrm.obj
 0001:00051d56       _$E365                     00452d56 f   nafxcw:winfrm.obj
 0001:00051d74       _$E369                     00452d74 f   nafxcw:winfrm.obj
 0001:00051d79       _$E368                     00452d79 f   nafxcw:winfrm.obj
 0001:00024f8d       _$E376                     00425f8d f   nafxcw:occmgr.obj
 0001:00024f97       _$E373                     00425f97 f   nafxcw:occmgr.obj
 0001:00024f98       _$E375                     00425f98 f   nafxcw:occmgr.obj
 0001:00024fa4       _$E374                     00425fa4 f   nafxcw:occmgr.obj
 0001:00055f50       _$E368                     00456f50 f   nafxcw:appcore.obj
 0001:00055f5a       _$E365                     00456f5a f   nafxcw:appcore.obj
 0001:00055f5b       _$E367                     00456f5b f   nafxcw:appcore.obj
 0001:00055f67       _$E366                     00456f67 f   nafxcw:appcore.obj
 0001:00055995       _$E371                     00456995 f   nafxcw:winmenu.obj
 0001:0005599f       _$E367                     0045699f f   nafxcw:winmenu.obj
 0001:000559ae       _$E370                     004569ae f   nafxcw:winmenu.obj
 0001:000559ba       _$E368                     004569ba f   nafxcw:winmenu.obj
 0001:00054de7       _$E371                     00455de7 f   nafxcw:winctrl2.obj
 0001:00054df1       _$E367                     00455df1 f   nafxcw:winctrl2.obj
 0001:00054e00       _$E370                     00455e00 f   nafxcw:winctrl2.obj
 0001:00054e0c       _$E368                     00455e0c f   nafxcw:winctrl2.obj
 0001:00054cf7       _$E368                     00455cf7 f   nafxcw:except.obj
 0001:00054d01       _$E365                     00455d01 f   nafxcw:except.obj
 0001:00054d13       _$E367                     00455d13 f   nafxcw:except.obj
 0001:00054d1f       _$E366                     00455d1f f   nafxcw:except.obj
 0001:00054d2f       _$E373                     00455d2f f   nafxcw:except.obj
 0001:00054d39       _$E370                     00455d39 f   nafxcw:except.obj
 0001:00054d4b       _$E372                     00455d4b f   nafxcw:except.obj
 0001:00054d57       _$E371                     00455d57 f   nafxcw:except.obj
 0001:000516e1       _$E366                     004526e1 f   nafxcw:wingdix.obj
 0001:000516e6       _$E365                     004526e6 f   nafxcw:wingdix.obj
 0001:00054aae       _$E372                     00455aae f   nafxcw:wingdi.obj
 0001:00054ab8       _$E369                     00455ab8 f   nafxcw:wingdi.obj
 0001:00054aca       _$E371                     00455aca f   nafxcw:wingdi.obj
 0001:00054ad6       _$E370                     00455ad6 f   nafxcw:wingdi.obj
 0001:00054ae6       _$E377                     00455ae6 f   nafxcw:wingdi.obj
 0001:00054af0       _$E374                     00455af0 f   nafxcw:wingdi.obj
 0001:00054b02       _$E376                     00455b02 f   nafxcw:wingdi.obj
 0001:00054b0e       _$E375                     00455b0e f   nafxcw:wingdi.obj
 0001:00054c41       _$E383                     00455c41 f   nafxcw:wingdi.obj
 0001:00054c4b       _$E379                     00455c4b f   nafxcw:wingdi.obj
 0001:00054c5a       _$E382                     00455c5a f   nafxcw:wingdi.obj
 0001:00054c66       _$E380                     00455c66 f   nafxcw:wingdi.obj
 0001:00054c81       _$E388                     00455c81 f   nafxcw:wingdi.obj
 0001:00054c8b       _$E385                     00455c8b f   nafxcw:wingdi.obj
 0001:00054c9a       _$E387                     00455c9a f   nafxcw:wingdi.obj
 0001:00054ca6       _$E386                     00455ca6 f   nafxcw:wingdi.obj
 0001:000547b6       _$E368                     004557b6 f   nafxcw:afxstate.obj
 0001:000547c0       _$E365                     004557c0 f   nafxcw:afxstate.obj
 0001:000547c1       _$E367                     004557c1 f   nafxcw:afxstate.obj
 0001:000547cd       _$E366                     004557cd f   nafxcw:afxstate.obj
 0001:000549b7       _$E373                     004559b7 f   nafxcw:afxstate.obj
 0001:000549c1       _$E370                     004559c1 f   nafxcw:afxstate.obj
 0001:000549c2       _$E372                     004559c2 f   nafxcw:afxstate.obj
 0001:000549ce       _$E371                     004559ce f   nafxcw:afxstate.obj
 0001:0004518b       _$E368                     0044618b f   nafxcw:strcore.obj
 0001:00045195       _$E365                     00446195 f   nafxcw:strcore.obj
 0001:000451a4       _$E367                     004461a4 f   nafxcw:strcore.obj
 0001:000451b0       _$E366                     004461b0 f   nafxcw:strcore.obj
 0001:000451ba       _$E373                     004461ba f   nafxcw:strcore.obj
 0001:000451c4       _$E370                     004461c4 f   nafxcw:strcore.obj
 0001:000451d6       _$E372                     004461d6 f   nafxcw:strcore.obj
 0001:000451e2       _$E371                     004461e2 f   nafxcw:strcore.obj
 0001:000451ec       _$E378                     004461ec f   nafxcw:strcore.obj
 0001:000451f6       _$E375                     004461f6 f   nafxcw:strcore.obj
 0001:00045208       _$E377                     00446208 f   nafxcw:strcore.obj
 0001:00045214       _$E376                     00446214 f   nafxcw:strcore.obj
 0001:0004521e       _$E383                     0044621e f   nafxcw:strcore.obj
 0001:00045228       _$E380                     00446228 f   nafxcw:strcore.obj
 0001:0004523a       _$E382                     0044623a f   nafxcw:strcore.obj
 0001:00045246       _$E381                     00446246 f   nafxcw:strcore.obj
 0001:000414db       _$E374                     004424db f   nafxcw:wincore.obj
 0001:000414e0       _$E373                     004424e0 f   nafxcw:wincore.obj
 0001:000414f1       _$E380                     004424f1 f   nafxcw:wincore.obj
 0001:000414fb       _$E376                     004424fb f   nafxcw:wincore.obj
 0001:00041508       _$E379                     00442508 f   nafxcw:wincore.obj
 0001:00041514       _$E377                     00442514 f   nafxcw:wincore.obj
 0001:0004152f       _$E385                     0044252f f   nafxcw:wincore.obj
 0001:00041539       _$E382                     00442539 f   nafxcw:wincore.obj
 0001:00041546       _$E384                     00442546 f   nafxcw:wincore.obj
 0001:00041552       _$E383                     00442552 f   nafxcw:wincore.obj
 0001:0004156d       _$E390                     0044256d f   nafxcw:wincore.obj
 0001:00041577       _$E387                     00442577 f   nafxcw:wincore.obj
 0001:00041584       _$E389                     00442584 f   nafxcw:wincore.obj
 0001:00041590       _$E388                     00442590 f   nafxcw:wincore.obj
 0001:000415ab       _$E395                     004425ab f   nafxcw:wincore.obj
 0001:000415b5       _$E392                     004425b5 f   nafxcw:wincore.obj
 0001:000415c2       _$E394                     004425c2 f   nafxcw:wincore.obj
 0001:000415ce       _$E393                     004425ce f   nafxcw:wincore.obj
 0001:00054545       _$E403                     00455545 f   nafxcw:wincore.obj
 0001:0005454f       _$E399                     0045554f f   nafxcw:wincore.obj
 0001:0005455e       _$E402                     0045555e f   nafxcw:wincore.obj
 0001:0005456a       _$E400                     0045556a f   nafxcw:wincore.obj
 0001:0003a5ac       _findenv                   0043b5ac f   LIBCMT:setenv.obj
 0001:0003a604       _copy_environ              0043b604 f   LIBCMT:setenv.obj
 0001:0003a3fa       _strncnt                   0043b3fa f   LIBCMT:a_cmp.obj
 0001:00039b7f       _flsall                    0043ab7f f   LIBCMT:fflush.obj
 0001:00038fe7       _siglookup                 00439fe7 f   LIBCMT:winsig.obj
 0001:000386cf       _x_ismbbtype               004396cf f   LIBCMT:ismbbyte.obj
 0001:00037eeb       __abstract_cw              00438eeb f   LIBCMT:ieee87.obj
 0001:00037f7d       __hw_cw                    00438f7d f   LIBCMT:ieee87.obj
 0001:00037bfb       __get_fname                00438bfb f   LIBCMT:fpexcept.obj
 0001:00036c8c       __tzset_lk                 00437c8c f   LIBCMT:tzset.obj
 0001:00036f34       __isindst_lk               00437f34 f   LIBCMT:tzset.obj
 0001:000370e0       _cvtdate                   004380e0 f   LIBCMT:tzset.obj
 0001:0003683d       _write_char                0043783d f   LIBCMT:output.obj
 0001:00036872       _write_multi_char          00437872 f   LIBCMT:output.obj
 0001:000368a3       _write_string              004378a3 f   LIBCMT:output.obj
 0001:000368db       _get_int_arg               004378db f   LIBCMT:output.obj
 0001:000368e8       _get_int64_arg             004378e8 f   LIBCMT:output.obj
 0001:000368f8       _get_short_arg             004378f8 f   LIBCMT:output.obj
 0001:0003a3fa       _strncnt                   0043b3fa f   LIBCMT:a_cmp.obj
 0001:00033f1a       _parse_cmdline             00434f1a f   LIBCMT:stdargv.obj
 0001:00033d36       _xcptlookup                00434d36 f   LIBCMT:winxfltr.obj
 0001:000337a9       __cftoe2                   004347a9 f   LIBCMT:cvt.obj
 0001:000338c0       __cftof2                   004348c0 f   LIBCMT:cvt.obj
 0001:00033a4b       __shift                    00434a4b f   LIBCMT:cvt.obj
 0001:00032be2       ?FindHandler@@YAXPAUEHExceptionRecord@@PAUEHRegistrationNode@@PAU_CONTEXT@@PAXPBU_s_FuncInfo@@EH1@Z 00433be2 f   LIBCMT:frame.obj
 0001:00032d95       ?FindHandlerForForeignException@@YAXPAUEHExceptionRecord@@PAUEHRegistrationNode@@PAU_CONTEXT@@PAXPBU_s_FuncInfo@@HH1@Z 00433d95 f   LIBCMT:frame.obj
 0001:00032e3f       ?TypeMatch@@YAHPBU_s_HandlerType@@PBU_s_CatchableType@@PBU_s_ThrowInfo@@@Z 00433e3f f   LIBCMT:frame.obj
 0001:00032f3a       ?FrameUnwindFilter@@YAHPAU_EXCEPTION_POINTERS@@@Z 00433f3a f   LIBCMT:frame.obj
 0001:00032f50       ?CatchIt@@YAXPAUEHExceptionRecord@@PAUEHRegistrationNode@@PAU_CONTEXT@@PAXPBU_s_FuncInfo@@PBU_s_HandlerType@@PBU_s_CatchableType@@PBU_s_TryBlockMapEntry@@H1E@Z 00433f50 f   LIBCMT:frame.obj
 0001:00032fcb       ?CallCatchBlock@@YAPAXPAUEHExceptionRecord@@PAUEHRegistrationNode@@PAU_CONTEXT@@PBU_s_FuncInfo@@PAXHK@Z 00433fcb f   LIBCMT:frame.obj
 0001:000330e6       ?ExFilterRethrow@@YAHPAU_EXCEPTION_POINTERS@@@Z 004340e6 f   LIBCMT:frame.obj
 0001:00033110       ?BuildCatchObject@@YAXPAUEHExceptionRecord@@PAUEHRegistrationNode@@PBU_s_HandlerType@@PBU_s_CatchableType@@@Z 00434110 f   LIBCMT:frame.obj
 0001:0003333b       ?AdjustPointer@@YAPAXPAXABUPMD@@@Z 0043433b f   LIBCMT:frame.obj
 0001:00032646       _xtoa                      00433646 f   LIBCMT:xtoa.obj
 0001:0003220a       __threadstartex@4          0043320a f   LIBCMT:threadex.obj
 0001:000320ce       _doexit                    004330ce f   LIBCMT:crt0dat.obj
 0001:00032185       __initterm                 00433185 f   LIBCMT:crt0dat.obj
 0001:00031878       __expandtime               00432878 f   LIBCMT:strftime.obj
 0001:00031c67       __store_str                00432c67 f   LIBCMT:strftime.obj
 0001:00031c8e       __store_num                00432c8e f   LIBCMT:strftime.obj
 0001:00031cfd       __store_number             00432cfd f   LIBCMT:strftime.obj
 0001:00031d46       __store_winword            00432d46 f   LIBCMT:strftime.obj
 0001:0003151c       _getSystemCP               0043251c f   LIBCMT:mbctype.obj
 0001:00031566       _CPtoLCID                  00432566 f   LIBCMT:mbctype.obj
 0001:00031599       _setSBCS                   00432599 f   LIBCMT:mbctype.obj
 0001:000315c2       _setSBUpLow                004325c2 f   LIBCMT:mbctype.obj
 0001:00030e45       __make_time_t              00431e45 f   LIBCMT:mktime.obj
 0001:000304b0       LeadUp1                    004314b0 f   LIBCMT:memmove.obj
 0001:000304dc       LeadUp2                    004314dc f   LIBCMT:memmove.obj
 0001:00030500       LeadUp3                    00431500 f   LIBCMT:memmove.obj
 0001:0003057f       UnwindUp0                  0043157f f   LIBCMT:memmove.obj
 0001:0003056c       UnwindUp1                  0043156c f   LIBCMT:memmove.obj
 0001:00030564       UnwindUp2                  00431564 f   LIBCMT:memmove.obj
 0001:0003055c       UnwindUp3                  0043155c f   LIBCMT:memmove.obj
 0001:00030554       UnwindUp4                  00431554 f   LIBCMT:memmove.obj
 0001:0003054c       UnwindUp5                  0043154c f   LIBCMT:memmove.obj
 0001:00030544       UnwindUp6                  00431544 f   LIBCMT:memmove.obj
 0001:0003053c       UnwindUp7                  0043153c f   LIBCMT:memmove.obj
 0001:00030598       TrailUp0                   00431598 f   LIBCMT:memmove.obj
 0001:000305a0       TrailUp1                   004315a0 f   LIBCMT:memmove.obj
 0001:000305ac       TrailUp2                   004315ac f   LIBCMT:memmove.obj
 0001:000305c0       TrailUp3                   004315c0 f   LIBCMT:memmove.obj
 0001:00030638       LeadDown1                  00431638 f   LIBCMT:memmove.obj
 0001:00030658       LeadDown2                  00431658 f   LIBCMT:memmove.obj
 0001:00030680       LeadDown3                  00431680 f   LIBCMT:memmove.obj
 0001:000306d4       UnwindDown7                004316d4 f   LIBCMT:memmove.obj
 0001:000306dc       UnwindDown6                004316dc f   LIBCMT:memmove.obj
 0001:000306e4       UnwindDown5                004316e4 f   LIBCMT:memmove.obj
 0001:000306ec       UnwindDown4                004316ec f   LIBCMT:memmove.obj
 0001:000306f4       UnwindDown3                004316f4 f   LIBCMT:memmove.obj
 0001:000306fc       UnwindDown2                004316fc f   LIBCMT:memmove.obj
 0001:00030704       UnwindDown1                00431704 f   LIBCMT:memmove.obj
 0001:00030717       UnwindDown0                00431717 f   LIBCMT:memmove.obj
 0001:00030730       TrailDown0                 00431730 f   LIBCMT:memmove.obj
 0001:00030738       TrailDown1                 00431738 f   LIBCMT:memmove.obj
 0001:00030748       TrailDown2                 00431748 f   LIBCMT:memmove.obj
 0001:0003075c       TrailDown3                 0043175c f   LIBCMT:memmove.obj
 0001:000301ff       _strtoxl                   004311ff f   LIBCMT:strtol.obj
 0001:0002fd50       LeadUp1                    00430d50 f   LIBCMT:memcpy.obj
 0001:0002fd7c       LeadUp2                    00430d7c f   LIBCMT:memcpy.obj
 0001:0002fda0       LeadUp3                    00430da0 f   LIBCMT:memcpy.obj
 0001:0002fe1f       UnwindUp0                  00430e1f f   LIBCMT:memcpy.obj
 0001:0002fe0c       UnwindUp1                  00430e0c f   LIBCMT:memcpy.obj
 0001:0002fe04       UnwindUp2                  00430e04 f   LIBCMT:memcpy.obj
 0001:0002fdfc       UnwindUp3                  00430dfc f   LIBCMT:memcpy.obj
 0001:0002fdf4       UnwindUp4                  00430df4 f   LIBCMT:memcpy.obj
 0001:0002fdec       UnwindUp5                  00430dec f   LIBCMT:memcpy.obj
 0001:0002fde4       UnwindUp6                  00430de4 f   LIBCMT:memcpy.obj
 0001:0002fddc       UnwindUp7                  00430ddc f   LIBCMT:memcpy.obj
 0001:0002fe38       TrailUp0                   00430e38 f   LIBCMT:memcpy.obj
 0001:0002fe40       TrailUp1                   00430e40 f   LIBCMT:memcpy.obj
 0001:0002fe4c       TrailUp2                   00430e4c f   LIBCMT:memcpy.obj
 0001:0002fe60       TrailUp3                   00430e60 f   LIBCMT:memcpy.obj
 0001:0002fed8       LeadDown1                  00430ed8 f   LIBCMT:memcpy.obj
 0001:0002fef8       LeadDown2                  00430ef8 f   LIBCMT:memcpy.obj
 0001:0002ff20       LeadDown3                  00430f20 f   LIBCMT:memcpy.obj
 0001:0002ff74       UnwindDown7                00430f74 f   LIBCMT:memcpy.obj
 0001:0002ff7c       UnwindDown6                00430f7c f   LIBCMT:memcpy.obj
 0001:0002ff84       UnwindDown5                00430f84 f   LIBCMT:memcpy.obj
 0001:0002ff8c       UnwindDown4                00430f8c f   LIBCMT:memcpy.obj
 0001:0002ff94       UnwindDown3                00430f94 f   LIBCMT:memcpy.obj
 0001:0002ff9c       UnwindDown2                00430f9c f   LIBCMT:memcpy.obj
 0001:0002ffa4       UnwindDown1                00430fa4 f   LIBCMT:memcpy.obj
 0001:0002ffb7       UnwindDown0                00430fb7 f   LIBCMT:memcpy.obj
 0001:0002ffd0       TrailDown0                 00430fd0 f   LIBCMT:memcpy.obj
 0001:0002ffd8       TrailDown1                 00430fd8 f   LIBCMT:memcpy.obj
 0001:0002ffe8       TrailDown2                 00430fe8 f   LIBCMT:memcpy.obj
 0001:0002fffc       TrailDown3                 00430ffc f   LIBCMT:memcpy.obj
 0001:0002f776       _fast_error_exit           00430776 f   LIBCMT:wincrt0.obj
 0001:00032f3a       ?ArrayUnwindFilter@@YAHPAU_EXCEPTION_POINTERS@@@Z 00433f3a f   LIBCMT:frame.obj
 0001:0002f038       _gu_return                 00430038 f   LIBCMT:exsup.obj
 0001:0002f040       __unwind_handler           00430040 f   LIBCMT:exsup.obj
 0001:0002ee55       ?CatchGuardHandler@@YA?AW4_EXCEPTION_DISPOSITION@@PAUEHExceptionRecord@@PAUCatchGuardRN@@PAX2@Z 0042fe55 f   LIBCMT:trnsctrl.obj
 0001:0002ef30       ?TranslatorGuardHandler@@YA?AW4_EXCEPTION_DISPOSITION@@PAUEHExceptionRecord@@PAUTranslatorGuardRN@@PAX2@Z 0042ff30 f   LIBCMT:trnsctrl.obj
 0001:0003a780       _LpfnGetDefWndProcNull     0043b780 f   ctl3d32s:CTL3D.OBJ
 0001:0003a7a0       _LpfnGetDefWndProc         0043b7a0 f   ctl3d32s:CTL3D.OBJ
 0001:0003a7f0       _SubclassWindow            0043b7f0 f   ctl3d32s:CTL3D.OBJ
 0001:0003a990       _HookSubclassWindow        0043b990 f   ctl3d32s:CTL3D.OBJ
 0001:0003a9d0       _CleanupSubclass           0043b9d0 f   ctl3d32s:CTL3D.OBJ
 0001:0003aa30       _DeleteObjectNull          0043ba30 f   ctl3d32s:CTL3D.OBJ
 0001:0003aa50       _DeleteObjects             0043ba50 f   ctl3d32s:CTL3D.OBJ
 0001:0003aa80       _PatFill                   0043ba80 f   ctl3d32s:CTL3D.OBJ
 0001:0003aab0       _DrawRec3d                 0043bab0 f   ctl3d32s:CTL3D.OBJ
 0001:0003abf0       _DrawInsetRect3d           0043bbf0 f   ctl3d32s:CTL3D.OBJ
 0001:0003ac60       _ClipCtlDc                 0043bc60 f   ctl3d32s:CTL3D.OBJ
 0001:0003aca0       _MyGetTextExtent           0043bca0 f   ctl3d32s:CTL3D.OBJ
 0001:0003b270       _CheckChildSubclass        0043c270 f   ctl3d32s:CTL3D.OBJ
 0001:0003b4d0       _Ctl3dDlgFramePaintI@20    0043c4d0 f   ctl3d32s:CTL3D.OBJ
 0001:0003b820       _FInit3dDialogs            0043c820 f   ctl3d32s:CTL3D.OBJ
 0001:0003ba10       _End3dDialogs              0043ca10 f   ctl3d32s:CTL3D.OBJ
 0001:0003baf0       _InternalCtl3dColorChange  0043caf0 f   ctl3d32s:CTL3D.OBJ
 0001:0003bfb0       _DoesChildNeedSubclass     0043cfb0 f   ctl3d32s:CTL3D.OBJ
 0001:0003c1a0       _FBtn                      0043d1a0 f   ctl3d32s:CTL3D.OBJ
 0001:0003c1d0       _FEdit                     0043d1d0 f   ctl3d32s:CTL3D.OBJ
 0001:0003c1d0       _FList                     0043d1d0 f   ctl3d32s:CTL3D.OBJ
 0001:0003c220       _FComboList                0043d220 f   ctl3d32s:CTL3D.OBJ
 0001:0003c260       _FCombo                    0043d260 f   ctl3d32s:CTL3D.OBJ
 0001:0003c330       _FStatic                   0043d330 f   ctl3d32s:CTL3D.OBJ
 0001:0003c380       _DoSubclassCtl             0043d380 f   ctl3d32s:CTL3D.OBJ
 0001:0003c470       _Inval3dCtl                0043d470 f   ctl3d32s:CTL3D.OBJ
 0001:0003c530       _Val3dCtl                  0043d530 f   ctl3d32s:CTL3D.OBJ
 0001:0003c5a0       _DrawPushButton            0043d5a0 f   ctl3d32s:CTL3D.OBJ
 0001:0003c8e0       _BtnPaint                  0043d8e0 f   ctl3d32s:CTL3D.OBJ

 1969 bytes saved through ICF

